 volumetric_fog_demo

 Timestamp is 61c28d22 (Tue Dec 21 21:27:46 2021)

 Preferred load address is 0000000140000000

 Start         Length     Name                   Class
 0001:00000000 0003e8f0H .text$mn                CODE
 0001:0003e8f0 00000040H .text$mn$00             CODE
 0001:0003e930 0000076dH .text$x                 CODE
 0002:00000000 00000308H .idata$5                DATA
 0002:00000308 00000018H .00cfg                  DATA
 0002:00000320 00000008H .CRT$XCA                DATA
 0002:00000328 00000008H .CRT$XCAA               DATA
 0002:00000330 00000008H .CRT$XCZ                DATA
 0002:00000338 00000008H .CRT$XIA                DATA
 0002:00000340 00000008H .CRT$XIAA               DATA
 0002:00000348 00000008H .CRT$XIAC               DATA
 0002:00000350 00000020H .CRT$XIC                DATA
 0002:00000370 00000008H .CRT$XIZ                DATA
 0002:00000378 00000008H .CRT$XPA                DATA
 0002:00000380 00000010H .CRT$XPX                DATA
 0002:00000390 00000008H .CRT$XPXA               DATA
 0002:00000398 00000008H .CRT$XPZ                DATA
 0002:000003a0 00000008H .CRT$XTA                DATA
 0002:000003a8 00000008H .CRT$XTZ                DATA
 0002:000003b0 00000000H .gfids$y                DATA
 0002:000003b0 00010860H .rdata                  DATA
 0002:00010c10 0000016cH .rdata$r                DATA
 0002:00010d7c 0000034cH .rdata$zzzdbg           DATA
 0002:000110c8 00000008H .rtc$IAA                DATA
 0002:000110d0 00000008H .rtc$IZZ                DATA
 0002:000110d8 00000008H .rtc$TAA                DATA
 0002:000110e0 00000010H .rtc$TZZ                DATA
 0002:000110f0 00001220H .xdata                  DATA
 0002:00012310 00000084H .xdata$x                DATA
 0002:00012394 00000000H .edata                  DATA
 0002:00012394 00000028H .idata$2                DATA
 0002:000123bc 00000014H .idata$3                DATA
 0002:000123d0 00000308H .idata$4                DATA
 0002:000126d8 000006d0H .idata$6                DATA
 0003:00000000 00000a40H .data                   DATA
 0003:00000a40 00000070H .data$r                 DATA
 0003:00000ab0 000018e0H .bss                    DATA
 0004:00000000 000036d8H .pdata                  DATA
 0005:00000000 000048b0H .gxfg$y                 DATA
 0006:00000000 00000014H .gehcont$y              DATA

  Address         Publics by Value              Rva+Base               Lib:Object

 0000:00000000       __guard_longjmp_count      0000000000000000     <absolute>
 0000:00000000       __guard_iat_table          0000000000000000     <absolute>
 0000:00000000       __volatile_metadata        0000000000000000     <absolute>
 0000:00000000       __guard_fids_count         0000000000000000     <absolute>
 0000:00000000       __hybrid_code_map          0000000000000000     <absolute>
 0000:00000000       __guard_longjmp_table      0000000000000000     <absolute>
 0000:00000000       __hybrid_code_map_count    0000000000000000     <absolute>
 0000:00000000       ___safe_se_handler_count   0000000000000000     <absolute>
 0000:00000000       __enclave_config           0000000000000000     <absolute>
 0000:00000000       ___safe_se_handler_table   0000000000000000     <absolute>
 0000:00000000       __guard_fids_table         0000000000000000     <absolute>
 0000:00000000       __guard_iat_count          0000000000000000     <absolute>
 0000:00000000       __hybrid_auxiliary_iat     0000000000000000     <absolute>
 0000:00000000       __dynamic_value_reloc_table 0000000000000000     <absolute>
 0000:00000100       __guard_flags              0000000000000100     <absolute>
 0000:00000000       __ImageBase                0000000140000000     <linker-defined>
 0001:00000000       WinMain                    0000000140001000 f   win32_main.obj
 0001:00000840       ?V2i@@YA?ATv2i@@HH@Z       0000000140001840 f i win32_main.obj
 0001:00000880       ?Win32GetClock@@YA?AT_LARGE_INTEGER@@XZ 0000000140001880 f i win32_main.obj
 0001:000008a0       ?Win32GetLastFileTime@@YA?AU_FILETIME@@PEAD@Z 00000001400018a0 f i win32_main.obj
 0001:00000910       ?Win32LoadDemoCode@@YAXPEAUprog_demo_code@@@Z 0000000140001910 f i win32_main.obj
 0001:00000b00       __GSHandlerCheck           0000000140001b00 f   LIBCMTD:gshandler.obj
 0001:00000b40       __GSHandlerCheckCommon     0000000140001b40 f   LIBCMTD:gshandler.obj
 0001:00000c50       __security_check_cookie    0000000140001c50 f   LIBCMTD:amdsecgs.obj
 0001:00000f30       ?configure_argv@__scrt_narrow_argv_policy@@SAHXZ 0000000140001f30 f i LIBCMTD:exe_winmain.obj
 0001:00000f50       ?initialize_environment@__scrt_narrow_environment_policy@@SAHXZ 0000000140001f50 f i LIBCMTD:exe_winmain.obj
 0001:00000fa0       ?set_app_type@__scrt_winmain_policy@@SAXXZ 0000000140001fa0 f i LIBCMTD:exe_winmain.obj
 0001:00000fc0       ?set_commode@__scrt_file_policy@@SAXXZ 0000000140001fc0 f i LIBCMTD:exe_winmain.obj
 0001:00000fe0       ?set_fmode@__scrt_file_policy@@SAXXZ 0000000140001fe0 f i LIBCMTD:exe_winmain.obj
 0001:00001000       WinMainCRTStartup          0000000140002000 f   LIBCMTD:exe_winmain.obj
 0001:00001010       __raise_securityfailure    0000000140002010 f   LIBCMTD:gs_report.obj
 0001:00001050       __report_gsfailure         0000000140002050 f   LIBCMTD:gs_report.obj
 0001:00001130       __report_rangecheckfailure 0000000140002130 f   LIBCMTD:gs_report.obj
 0001:00001150       __report_securityfailure   0000000140002150 f   LIBCMTD:gs_report.obj
 0001:00001350       ??$__crt_fast_decode_pointer@PEAP6AXXZ@@YAPEAP6AXXZQEAP6AXXZ@Z 0000000140002350 f i LIBCMTD:utility.obj
 0001:00001350       ??$__crt_fast_decode_pointer@P6AXXZ@@YAP6AXXZQ6AXXZ@Z 0000000140002350 f i libvcruntimed:purevirt.obj
 0001:00001350       ??$__crt_fast_decode_pointer@PEAX@@YAPEAXQEAX@Z 0000000140002350 f i libvcruntimed:winapi_downlevel.obj
 0001:00001390       ??$__crt_fast_encode_pointer@P6AXXZ@@YAP6AXXZQ6AXXZ@Z 0000000140002390 f i libvcruntimed:purevirt_data.obj
 0001:00001390       ??$__crt_fast_encode_pointer@PEAX@@YAPEAXQEAX@Z 0000000140002390 f i libvcruntimed:winapi_downlevel.obj
 0001:00001390       ??$__crt_fast_encode_pointer@PEAP6AXXZ@@YAPEAP6AXXZQEAP6AXXZ@Z 0000000140002390 f i LIBCMTD:utility.obj
 0001:000013d0       ?__crt_rotate_pointer_value@@YA_K_KH@Z 00000001400023d0 f i LIBCMTD:utility.obj
 0001:00001550       NtCurrentTeb               0000000140002550 f i LIBCMTD:utility.obj
 0001:00001560       __scrt_acquire_startup_lock 0000000140002560 f   LIBCMTD:utility.obj
 0001:000015d0       __scrt_initialize_crt      00000001400025d0 f   LIBCMTD:utility.obj
 0001:00001620       __scrt_initialize_onexit_tables 0000000140002620 f   LIBCMTD:utility.obj
 0001:00001730       __scrt_is_nonwritable_in_current_image 0000000140002730 f   LIBCMTD:utility.obj
 0001:000017c0       __scrt_release_startup_lock 00000001400027c0 f   LIBCMTD:utility.obj
 0001:000017f0       __scrt_uninitialize_crt    00000001400027f0 f   LIBCMTD:utility.obj
 0001:00001830       _onexit                    0000000140002830 f   LIBCMTD:utility.obj
 0001:000018c0       atexit                     00000001400028c0 f   LIBCMTD:utility.obj
 0001:000019c0       __security_init_cookie     00000001400029c0 f   LIBCMTD:gs_support.obj
 0001:00001a40       _matherr                   0000000140002a40 f   LIBCMTD:matherr.obj
 0001:00001a50       _get_startup_argv_mode     0000000140002a50 f   LIBCMTD:argv_mode.obj
 0001:00001a60       __scrt_stub_for_initialize_mta 0000000140002a60 f   LIBCMTD:utility_desktop.obj
 0001:00001a60       _get_startup_thread_locale_mode 0000000140002a60 f   LIBCMTD:thread_locale.obj
 0001:00001a60       __scrt_initialize_winrt    0000000140002a60 f   LIBCMTD:utility_desktop.obj
 0001:00001a60       __scrt_exe_initialize_mta  0000000140002a60 f   LIBCMTD:utility_desktop.obj
 0001:00001a60       _get_startup_new_mode      0000000140002a60 f   LIBCMTD:new_mode.obj
 0001:00001a60       _get_startup_commit_mode   0000000140002a60 f   LIBCMTD:commit_mode.obj
 0001:00001a70       _get_startup_file_mode     0000000140002a70 f   LIBCMTD:file_mode.obj
 0001:00001a80       ?__scrt_initialize_type_info@@YAXXZ 0000000140002a80 f   LIBCMTD:tncleanup.obj
 0001:00001aa0       _should_initialize_environment 0000000140002aa0 f   LIBCMTD:env_mode.obj
 0001:00001ab0       _initialize_invalid_parameter_handler 0000000140002ab0 f   LIBCMTD:invalid_parameter_handler.obj
 0001:00001ab0       _initialize_denormal_control 0000000140002ab0 f   LIBCMTD:denormal_control.obj
 0001:00001ac0       __local_stdio_printf_options 0000000140002ac0 f i LIBCMTD:default_local_stdio_options.obj
 0001:00001ad0       __local_stdio_scanf_options 0000000140002ad0 f i LIBCMTD:default_local_stdio_options.obj
 0001:00001ae0       __scrt_initialize_default_local_stdio_options 0000000140002ae0 f   LIBCMTD:default_local_stdio_options.obj
 0001:00001b30       __scrt_is_user_matherr_present 0000000140002b30 f   LIBCMTD:matherr_detection.obj
 0001:00001b60       __scrt_get_dyn_tls_init_callback 0000000140002b60 f   LIBCMTD:dyn_tls_init.obj
 0001:00001b70       __scrt_get_dyn_tls_dtor_callback 0000000140002b70 f   LIBCMTD:dyn_tls_dtor.obj
 0001:00001b80       __crt_debugger_hook        0000000140002b80 f   LIBCMTD:utility_desktop.obj
 0001:00001b90       __scrt_fastfail            0000000140002b90 f   LIBCMTD:utility_desktop.obj
 0001:00001d30       __scrt_get_show_window_mode 0000000140002d30 f   LIBCMTD:utility_desktop.obj
 0001:00001d90       __scrt_initialize_mta      0000000140002d90 f   LIBCMTD:utility_desktop.obj
 0001:00001da0       __scrt_is_managed_app      0000000140002da0 f   LIBCMTD:utility_desktop.obj
 0001:00001e50       __scrt_set_unhandled_exception_filter 0000000140002e50 f   LIBCMTD:utility_desktop.obj
 0001:00001e70       __scrt_unhandled_exception_filter 0000000140002e70 f   LIBCMTD:utility_desktop.obj
 0001:00001ef0       _RTC_Initialize            0000000140002ef0 f   LIBCMTD:initsect.obj
 0001:00001f40       _RTC_Terminate             0000000140002f40 f   LIBCMTD:initsect.obj
 0001:00001f90       _guard_check_icall_nop     0000000140002f90 f i LIBCMTD:guard_support.obj
 0001:00001fa0       ?__crt_interlocked_read_64@@YA_JPED_J@Z 0000000140002fa0 f i libvcruntimed:std_type_info.obj
 0001:00001fa0       ReadNoFence64              0000000140002fa0 f i LIBCMTD:guard_support.obj
 0001:00001fc0       ??$__crt_interlocked_read_pointer@UHINSTANCE__@@@@YAPEAUHINSTANCE__@@PEDSEAU0@@Z 0000000140002fc0 f i libvcruntimed:winapi_downlevel.obj
 0001:00001fc0       ??$__crt_interlocked_read_pointer@X@@YAPEAXPEDSEAX@Z 0000000140002fc0 f i libvcruntimed:winapi_downlevel.obj
 0001:00001fc0       ReadPointerNoFence         0000000140002fc0 f i LIBCMTD:guard_support.obj
 0001:00001fe0       _guard_icall_checks_enforced 0000000140002fe0 f i LIBCMTD:guard_support.obj
 0001:00002020       __isa_available_init       0000000140003020 f   LIBCMTD:cpu_disp.obj
 0001:00002390       __scrt_is_ucrt_dll_in_use  0000000140003390 f   LIBCMTD:ucrt_detection.obj
 0001:000023c0       IsProcessorFeaturePresent  00000001400033c0 f   kernel32:KERNEL32.dll
 0001:000023d0       __C_specific_handler       00000001400033d0 f   libvcruntimed:riscchandler.obj
 0001:00002810       __vcrt_initialize          0000000140003810 f   libvcruntimed:initialization.obj
 0001:00002850       __vcrt_uninitialize        0000000140003850 f   libvcruntimed:initialization.obj
 0001:00002880       ??$?RU__vcrt_ptd@@@__crt_internal_free_policy@@QEBAXQEBU__vcrt_ptd@@@Z 0000000140003880 f i libvcruntimed:per_thread_data.obj
 0001:00002880       ??$?RD@__crt_internal_free_policy@@QEBAXQEBD@Z 0000000140003880 f i libvcruntimed:std_type_info.obj
 0001:000028b0       ??0?$__crt_unique_heap_ptr@DU__crt_public_free_policy@@@@QEAA@QEAD@Z 00000001400038b0 f i libvcruntimed:std_exception.obj
 0001:000028b0       ??0?$__crt_unique_heap_ptr@U__vcrt_ptd@@U__crt_internal_free_policy@@@@QEAA@QEAU__vcrt_ptd@@@Z 00000001400038b0 f i libvcruntimed:per_thread_data.obj
 0001:000028b0       ??0?$__crt_unique_heap_ptr@DU__crt_internal_free_policy@@@@QEAA@QEAD@Z 00000001400038b0 f i libvcruntimed:std_type_info.obj
 0001:000028d0       ??1?$__crt_unique_heap_ptr@U__vcrt_ptd@@U__crt_internal_free_policy@@@@QEAA@XZ 00000001400038d0 f i libvcruntimed:per_thread_data.obj
 0001:000028d0       ??1?$__crt_unique_heap_ptr@DU__crt_internal_free_policy@@@@QEAA@XZ 00000001400038d0 f i libvcruntimed:std_type_info.obj
 0001:000028f0       ??B?$__crt_unique_heap_ptr@U__vcrt_ptd@@U__crt_internal_free_policy@@@@QEBA_NXZ 00000001400038f0 f i libvcruntimed:per_thread_data.obj
 0001:000028f0       ??B?$__crt_unique_heap_ptr@DU__crt_internal_free_policy@@@@QEBA_NXZ 00000001400038f0 f i libvcruntimed:std_type_info.obj
 0001:000028f0       ??B?$__crt_unique_heap_ptr@DU__crt_public_free_policy@@@@QEBA_NXZ 00000001400038f0 f i libvcruntimed:std_exception.obj
 0001:00002910       ?get@?$__crt_unique_heap_ptr@DU__crt_internal_free_policy@@@@QEBAPEADXZ 0000000140003910 f i libvcruntimed:std_type_info.obj
 0001:00002910       ?get@?$__crt_unique_heap_ptr@U__vcrt_ptd@@U__crt_internal_free_policy@@@@QEBAPEAU__vcrt_ptd@@XZ 0000000140003910 f i libvcruntimed:per_thread_data.obj
 0001:00002910       ?getFuncInfo@TryBlockMap@__FrameHandler3@@QEAAPEBU_s_FuncInfo@@XZ 0000000140003910 f i libvcruntimed:risctrnsctrl.obj
 0001:00002910       ?get@?$__crt_unique_heap_ptr@DU__crt_public_free_policy@@@@QEBAPEADXZ 0000000140003910 f i libvcruntimed:std_exception.obj
 0001:00002920       ?is_valid@?$__crt_unique_heap_ptr@DU__crt_public_free_policy@@@@QEBA_NXZ 0000000140003920 f i libvcruntimed:std_exception.obj
 0001:00002920       ?is_valid@?$__crt_unique_heap_ptr@U__vcrt_ptd@@U__crt_internal_free_policy@@@@QEBA_NXZ 0000000140003920 f i libvcruntimed:per_thread_data.obj
 0001:00002920       ?is_valid@?$__crt_unique_heap_ptr@DU__crt_internal_free_policy@@@@QEBA_NXZ 0000000140003920 f i libvcruntimed:std_type_info.obj
 0001:00002950       ?release@?$__crt_unique_heap_ptr@U__vcrt_ptd@@U__crt_internal_free_policy@@@@QEAAXXZ 0000000140003950 f i libvcruntimed:per_thread_data.obj
 0001:00002950       ?release@?$__crt_unique_heap_ptr@DU__crt_internal_free_policy@@@@QEAAXXZ 0000000140003950 f i libvcruntimed:std_type_info.obj
 0001:00002980       __std_type_info_compare    0000000140003980 f   libvcruntimed:std_type_info.obj
 0001:000029d0       _NLG_Notify                00000001400039d0 f   libvcruntimed:notify.obj
 0001:000029f0       __NLG_Dispatch2            00000001400039f0 f   libvcruntimed:notify.obj
 0001:00002a00       __NLG_Return2              0000000140003a00 f   libvcruntimed:notify.obj
 0001:00002a10       __except_validate_context_record 0000000140003a10 f   libvcruntimed:jbcxrval.obj
 0001:00002a70       __DestructExceptionObject  0000000140003a70 f   libvcruntimed:ehhelpers.obj
 0001:00002b70       ?_CallMemberFunction0@@YAXQEAX0@Z 0000000140003b70 f i libvcruntimed:ehhelpers.obj
 0001:00002ba0       _IsExceptionObjectToBeDestroyed 0000000140003ba0 f   libvcruntimed:ehhelpers.obj
 0001:00002bf0       __AdjustPointer            0000000140003bf0 f   libvcruntimed:ehhelpers.obj
 0001:00002c70       __FrameUnwindFilter        0000000140003c70 f   libvcruntimed:ehhelpers.obj
 0001:00002d40       ?detach@?$__crt_unique_heap_ptr@DU__crt_public_free_policy@@@@QEAAPEADXZ 0000000140003d40 f i libvcruntimed:std_exception.obj
 0001:00002d40       ?detach@?$__crt_unique_heap_ptr@U__vcrt_ptd@@U__crt_internal_free_policy@@@@QEAAPEAU__vcrt_ptd@@XZ 0000000140003d40 f i libvcruntimed:per_thread_data.obj
 0001:00002dc0       __vcrt_freefls             0000000140003dc0 f   libvcruntimed:per_thread_data.obj
 0001:00002e00       __vcrt_getptd              0000000140003e00 f   libvcruntimed:per_thread_data.obj
 0001:00002e30       __vcrt_getptd_noexit       0000000140003e30 f   libvcruntimed:per_thread_data.obj
 0001:00002fd0       __vcrt_initialize_ptd      0000000140003fd0 f   libvcruntimed:per_thread_data.obj
 0001:00003020       __vcrt_uninitialize_ptd    0000000140004020 f   libvcruntimed:per_thread_data.obj
 0001:00003050       __vcrt_initialize_locks    0000000140004050 f   libvcruntimed:locks.obj
 0001:000030c0       __vcrt_uninitialize_locks  00000001400040c0 f   libvcruntimed:locks.obj
 0001:00003120       ??$?BX@__crt_fast_encoded_nullptr_t@@QEBAPEAXXZ 0000000140004120 f i libvcruntimed:winapi_downlevel.obj
 0001:00003120       ??$?B$$A6AXXZ@__crt_fast_encoded_nullptr_t@@QEBAP6AXXZXZ 0000000140004120 f i libvcruntimed:purevirt_data.obj
 0001:00003140       ??$__crt_interlocked_exchange_pointer@UHINSTANCE__@@PEAX@@YAPEAUHINSTANCE__@@PEDSEAU0@QEAX@Z 0000000140004140 f i libvcruntimed:winapi_downlevel.obj
 0001:00003140       ??$__crt_interlocked_exchange_pointer@XPEAX@@YAPEAXPEDSEAXQEAX@Z 0000000140004140 f i libvcruntimed:winapi_downlevel.obj
 0001:00003140       ??$__crt_interlocked_exchange_pointer@UHINSTANCE__@@PEAU1@@@YAPEAUHINSTANCE__@@PEDSEAU0@QEAU0@@Z 0000000140004140 f i libvcruntimed:winapi_downlevel.obj
 0001:00003160       ?__crt_fast_encode_pointer@@YA?AU__crt_fast_encoded_nullptr_t@@$$T@Z 0000000140004160 f i libvcruntimed:winapi_downlevel.obj
 0001:000036c0       __vcrt_FlsAlloc            00000001400046c0 f   libvcruntimed:winapi_downlevel.obj
 0001:00003710       __vcrt_FlsFree             0000000140004710 f   libvcruntimed:winapi_downlevel.obj
 0001:00003760       __vcrt_FlsGetValue         0000000140004760 f   libvcruntimed:winapi_downlevel.obj
 0001:000037b0       __vcrt_FlsSetValue         00000001400047b0 f   libvcruntimed:winapi_downlevel.obj
 0001:00003810       __vcrt_InitializeCriticalSectionEx 0000000140004810 f   libvcruntimed:winapi_downlevel.obj
 0001:00003870       __vcrt_initialize_winapi_thunks 0000000140004870 f   libvcruntimed:winapi_downlevel.obj
 0001:000038f0       __vcrt_uninitialize_winapi_thunks 00000001400048f0 f   libvcruntimed:winapi_downlevel.obj
 0001:00003990       __vcrt_initialize_pure_virtual_call_handler 0000000140004990 f   libvcruntimed:purevirt_data.obj
 0001:000039c0       _vsprintf_s_l              00000001400049c0 f i libvcruntimed:undname.obj
 0001:00003a30       sprintf_s                  0000000140004a30 f i libvcruntimed:undname.obj
 0001:00003aa0       memcpy_repmovs             0000000140004aa0 f   libvcruntimed:memcpy.obj
 0001:00003ac0       memmove                    0000000140004ac0 f   libvcruntimed:memcpy.obj
 0001:00003ac0       memcpy                     0000000140004ac0 f   libvcruntimed:memcpy.obj
 0001:00003f00       ??$?0AEAViterator@TryBlockMap@__FrameHandler3@@AEAV012@$0A@@?$pair@Viterator@TryBlockMap@__FrameHandler3@@V123@@std@@QEAA@AEAViterator@TryBlockMap@__FrameHandler3@@0@Z 0000000140004f00 f i libvcruntimed:risctrnsctrl.obj
 0001:00004010       ??$_CallSETranslator@V__FrameHandler3@@@@YAHPEAUEHExceptionRecord@@PEA_KPEAU_CONTEXT@@PEAU_xDISPATCHER_CONTEXT@@PEBU_s_FuncInfo@@K1@Z 0000000140005010 f i libvcruntimed:risctrnsctrl.obj
 0001:00004090       ??$forward@AEAViterator@TryBlockMap@__FrameHandler3@@@std@@YAAEAViterator@TryBlockMap@__FrameHandler3@@AEAV123@@Z 0000000140005090 f i libvcruntimed:risctrnsctrl.obj
 0001:000040a0       ??0iterator@HandlerMap@__FrameHandler3@@QEAA@AEAV12@I@Z 00000001400050a0 f i libvcruntimed:frame.obj
 0001:000040a0       ??0iterator@TryBlockMap@__FrameHandler3@@QEAA@AEAV12@I@Z 00000001400050a0 f i libvcruntimed:risctrnsctrl.obj
 0001:000040d0       ?CatchTryBlock@__FrameHandler3@@SAPEBU_s_TryBlockMapEntry@@PEBU_s_FuncInfo@@H@Z 00000001400050d0 f   libvcruntimed:risctrnsctrl.obj
 0001:00004170       ?ExecutionInCatch@__FrameHandler3@@SA_NPEAU_xDISPATCHER_CONTEXT@@PEBU_s_FuncInfo@@@Z 0000000140005170 f   libvcruntimed:risctrnsctrl.obj
 0001:000041c0       ?FrameUnwindToEmptyState@__FrameHandler3@@SAXPEA_KPEAU_xDISPATCHER_CONTEXT@@PEBU_s_FuncInfo@@@Z 00000001400051c0 f   libvcruntimed:risctrnsctrl.obj
 0001:00004260       ?GetEstablisherFrame@__FrameHandler3@@SAPEA_KPEA_KPEAU_xDISPATCHER_CONTEXT@@PEBU_s_FuncInfo@@0@Z 0000000140005260 f   libvcruntimed:risctrnsctrl.obj
 0001:000043d0       ?GetRangeOfTrysToCheck@__FrameHandler3@@SA?AU?$pair@Viterator@TryBlockMap@__FrameHandler3@@V123@@std@@AEAVTryBlockMap@1@HH@Z 00000001400053d0 f   libvcruntimed:risctrnsctrl.obj
 0001:00004620       ?UnwindNestedFrames@__FrameHandler3@@SAXPEA_KPEAUEHExceptionRecord@@PEAU_CONTEXT@@0PEAXPEBU_s_FuncInfo@@HHPEBU_s_HandlerType@@PEAU_xDISPATCHER_CONTEXT@@E@Z 0000000140005620 f   libvcruntimed:risctrnsctrl.obj
 0001:00004790       ?getpDC@TryBlockMap@__FrameHandler3@@QEAAPEAU_xDISPATCHER_CONTEXT@@XZ 0000000140005790 f i libvcruntimed:risctrnsctrl.obj
 0001:000047a0       _CreateFrameInfo           00000001400057a0 f   libvcruntimed:risctrnsctrl.obj
 0001:00004810       _FindAndUnlinkFrame        0000000140005810 f   libvcruntimed:risctrnsctrl.obj
 0001:00004890       _GetImageBase              0000000140005890 f   libvcruntimed:risctrnsctrl.obj
 0001:000048b0       _GetThrowImageBase         00000001400058b0 f   libvcruntimed:risctrnsctrl.obj
 0001:000048d0       _SetImageBase              00000001400058d0 f   libvcruntimed:risctrnsctrl.obj
 0001:000048f0       _SetThrowImageBase         00000001400058f0 f   libvcruntimed:risctrnsctrl.obj
 0001:00004910       __CxxFrameHandler3         0000000140005910 f   libvcruntimed:risctrnsctrl.obj
 0001:000049d0       ?GetCurrentState@__FrameHandler3@@SAHPEA_KPEAU_xDISPATCHER_CONTEXT@@PEBU_s_FuncInfo@@@Z 00000001400059d0 f   libvcruntimed:ehstate.obj
 0001:00004a30       ?GetUnwindTryBlock@__FrameHandler3@@SAHPEA_KPEAU_xDISPATCHER_CONTEXT@@PEBU_s_FuncInfo@@@Z 0000000140005a30 f   libvcruntimed:ehstate.obj
 0001:00004a80       ?SetState@__FrameHandler3@@SAXPEA_KPEBU_s_FuncInfo@@H@Z 0000000140005a80 f   libvcruntimed:ehstate.obj
 0001:00004ab0       ?SetUnwindTryBlock@__FrameHandler3@@SAXPEA_KPEAU_xDISPATCHER_CONTEXT@@PEBU_s_FuncInfo@@H@Z 0000000140005ab0 f   libvcruntimed:ehstate.obj
 0001:00004b20       ?StateFromControlPc@__FrameHandler3@@SAHPEBU_s_FuncInfo@@PEAU_xDISPATCHER_CONTEXT@@@Z 0000000140005b20 f   libvcruntimed:ehstate.obj
 0001:00004b60       ?StateFromIp@__FrameHandler3@@SAHPEBU_s_FuncInfo@@PEAU_xDISPATCHER_CONTEXT@@_K@Z 0000000140005b60 f   libvcruntimed:ehstate.obj
 0001:00005db0       ??$TypeMatchHelper@V__FrameHandler3@@@@YAHPEBU_s_HandlerType@@PEBU_s_CatchableType@@PEBU_s_ThrowInfo@@@Z 0000000140006db0 f i libvcruntimed:frame.obj
 0001:00005fa0       ??$__InternalCxxFrameHandler@V__FrameHandler3@@@@YA?AW4_EXCEPTION_DISPOSITION@@PEAUEHExceptionRecord@@PEA_KPEAU_CONTEXT@@PEAU_xDISPATCHER_CONTEXT@@PEBU_s_FuncInfo@@H1E@Z 0000000140006fa0 f i libvcruntimed:frame.obj
 0001:00006420       ??0HandlerMap@__FrameHandler3@@QEAA@PEBU_s_TryBlockMapEntry@@PEAU_xDISPATCHER_CONTEXT@@@Z 0000000140007420 f i libvcruntimed:frame.obj
 0001:00006460       ??0TryBlockMap@__FrameHandler3@@QEAA@PEBU_s_FuncInfo@@PEAU_xDISPATCHER_CONTEXT@@@Z 0000000140007460 f i libvcruntimed:frame.obj
 0001:00006490       ??0bad_exception@std@@QEAA@AEBV01@@Z 0000000140007490 f i libvcruntimed:frame.obj
 0001:000064d0       ??0bad_exception@std@@QEAA@XZ 00000001400074d0 f i libvcruntimed:frame.obj
 0001:00006510       ??0exception@std@@QEAA@AEBV01@@Z 0000000140007510 f i libvcruntimed:frame.obj
 0001:00006570       ??0exception@std@@QEAA@QEBDH@Z 0000000140007570 f i libvcruntimed:frame.obj
 0001:000065c0       ??1bad_exception@std@@UEAA@XZ 00000001400075c0 f i libvcruntimed:frame.obj
 0001:000065e0       ??1exception@std@@UEAA@XZ  00000001400075e0 f i libvcruntimed:frame.obj
 0001:00006610       ??8iterator@HandlerMap@__FrameHandler3@@QEBA_NAEBV012@@Z 0000000140007610 f i libvcruntimed:frame.obj
 0001:00006650       ??8type_info@@QEBA_NAEBV0@@Z 0000000140007650 f i libvcruntimed:frame.obj
 0001:000066a0       ??9iterator@HandlerMap@__FrameHandler3@@QEBA_NAEBV012@@Z 00000001400076a0 f i libvcruntimed:frame.obj
 0001:000066e0       ??Diterator@HandlerMap@__FrameHandler3@@QEAAPEBU_s_HandlerType@@XZ 00000001400076e0 f i libvcruntimed:frame.obj
 0001:00006710       ??Diterator@TryBlockMap@__FrameHandler3@@QEAAPEBU_s_TryBlockMapEntry@@XZ 0000000140007710 f i libvcruntimed:frame.obj
 0001:00006750       ??Eiterator@TryBlockMap@__FrameHandler3@@QEAAAEAV012@XZ 0000000140007750 f i libvcruntimed:frame.obj
 0001:00006750       ??Eiterator@HandlerMap@__FrameHandler3@@QEAAAEAV012@XZ 0000000140007750 f i libvcruntimed:frame.obj
 0001:00006770       ??Miterator@TryBlockMap@__FrameHandler3@@QEBA_NAEBV012@@Z 0000000140007770 f i libvcruntimed:frame.obj
 0001:000067b0       ??_Ebad_exception@std@@UEAAPEAXI@Z 00000001400077b0 f i libvcruntimed:frame.obj
 0001:000067b0       ??_Gbad_exception@std@@UEAAPEAXI@Z 00000001400077b0 f i libvcruntimed:frame.obj
 0001:000067f0       ??_Gexception@std@@UEAAPEAXI@Z 00000001400077f0 f i libvcruntimed:frame.obj
 0001:000067f0       ??_Eexception@std@@UEAAPEAXI@Z 00000001400077f0 f i libvcruntimed:frame.obj
 0001:00006830       ?BuildCatchObject@__FrameHandler3@@SAXPEAUEHExceptionRecord@@PEAXPEBU_s_HandlerType@@PEBU_s_CatchableType@@@Z 0000000140007830 f   libvcruntimed:frame.obj
 0001:00006870       ?CxxCallCatchBlock@__FrameHandler3@@SAPEAXPEAU_EXCEPTION_RECORD@@@Z 0000000140007870 f   libvcruntimed:frame.obj
 0001:00006bd0       ?FrameUnwindToState@__FrameHandler3@@SAXPEA_KPEAU_xDISPATCHER_CONTEXT@@PEBU_s_FuncInfo@@H@Z 0000000140007bd0 f   libvcruntimed:frame.obj
 0001:00006e60       ?GetHandlerSearchState@__FrameHandler3@@SAHPEA_KPEAU_xDISPATCHER_CONTEXT@@PEBU_s_FuncInfo@@@Z 0000000140007e60 f i libvcruntimed:frame.obj
 0001:00006f10       ?GetMaxState@__FrameHandler3@@SAHPEAU_xDISPATCHER_CONTEXT@@PEBU_s_FuncInfo@@@Z 0000000140007f10 f i libvcruntimed:frame.obj
 0001:00007140       ?TypeMatch@__FrameHandler3@@SAHPEBU_s_HandlerType@@PEBU_s_CatchableType@@PEBU_s_ThrowInfo@@@Z 0000000140008140 f   libvcruntimed:frame.obj
 0001:00007140       __TypeMatch                0000000140008140 f   libvcruntimed:frame.obj
 0001:00007170       ?_CallMemberFunction1@@YAXQEAX00@Z 0000000140008170 f i libvcruntimed:frame.obj
 0001:000071a0       ?_CallMemberFunction2@@YAXQEAX00H@Z 00000001400081a0 f i libvcruntimed:frame.obj
 0001:000071e0       ?_ValidateExecute@@YA_NP6A_JXZ@Z 00000001400081e0 f i libvcruntimed:frame.obj
 0001:00007200       ?_ValidateWrite@@YA_NPEAXI@Z 0000000140008200 f i libvcruntimed:frame.obj
 0001:00007200       ?_ValidateRead@@YA_NPEBXI@Z 0000000140008200 f i libvcruntimed:frame.obj
 0001:00007260       ?begin@HandlerMap@__FrameHandler3@@QEAA?AViterator@12@XZ 0000000140008260 f i libvcruntimed:frame.obj
 0001:00007290       ?end@HandlerMap@__FrameHandler3@@QEAA?AViterator@12@XZ 0000000140008290 f i libvcruntimed:frame.obj
 0001:000072c0       ?getESTypes@__FrameHandler3@@SAPEBU_s_ESTypeList@@PEBU_s_FuncInfo@@@Z 00000001400082c0 f i libvcruntimed:frame.obj
 0001:00007300       ?getLastEntry@HandlerMap@__FrameHandler3@@QEAAPEBU_s_HandlerType@@XZ 0000000140008300 f i libvcruntimed:frame.obj
 0001:00007320       ?getMagicNum@__FrameHandler3@@SAIPEBU_s_FuncInfo@@@Z 0000000140008320 f i libvcruntimed:frame.obj
 0001:00007340       ?getNumTryBlocks@TryBlockMap@__FrameHandler3@@QEAAIXZ 0000000140008340 f i libvcruntimed:frame.obj
 0001:00007360       ?isEHs@__FrameHandler3@@SA_NPEBU_s_FuncInfo@@@Z 0000000140008360 f i libvcruntimed:frame.obj
 0001:000073a0       ?isNoExcept@__FrameHandler3@@SA_NPEBU_s_FuncInfo@@@Z 00000001400083a0 f i libvcruntimed:frame.obj
 0001:000073e0       ?what@exception@std@@UEBAPEBDXZ 00000001400083e0 f i libvcruntimed:frame.obj
 0001:00007420       __vcrt_EncodePointer       0000000140008420 f i libvcruntimed:frame.obj
 0001:00007450       memset_repmovs             0000000140008450 f   libvcruntimed:memset.obj
 0001:00007470       memset                     0000000140008470 f   libvcruntimed:memset.obj
 0001:00007610       _CallSettingFrame          0000000140008610 f   libvcruntimed:handlers.obj
 0001:00007660       _CallSettingFrameEncoded   0000000140008660 f   libvcruntimed:handlers.obj
 0001:000076b0       ??$?RD@__crt_public_free_policy@@QEBAXQEBD@Z 00000001400086b0 f i libvcruntimed:std_exception.obj
 0001:000076d0       ??1?$__crt_unique_heap_ptr@DU__crt_public_free_policy@@@@QEAA@XZ 00000001400086d0 f i libvcruntimed:std_exception.obj
 0001:000076f0       ?release@?$__crt_unique_heap_ptr@DU__crt_public_free_policy@@@@QEAAXXZ 00000001400086f0 f i libvcruntimed:std_exception.obj
 0001:00007720       __std_exception_copy       0000000140008720 f   libvcruntimed:std_exception.obj
 0001:00007850       __std_exception_destroy    0000000140008850 f   libvcruntimed:std_exception.obj
 0001:00007890       _CxxThrowException         0000000140008890 f   libvcruntimed:throw.obj
 0001:00007a50       _seh_filter_exe            0000000140008a50 f   libucrtd:exception_filter.obj
 0001:00007ef0       __acrt_report_runtime_error 0000000140008ef0 f   libucrtd:report_runtime_error.obj
 0001:00008170       _invoke_watson_if_error    0000000140009170 f i libucrtd:report_runtime_error.obj
 0001:000081c0       _query_app_type            00000001400091c0 f   libucrtd:report_runtime_error.obj
 0001:000081d0       _set_app_type              00000001400091d0 f   libucrtd:report_runtime_error.obj
 0001:000081e0       ??$__crt_fast_decode_pointer@P6AHPEAU_exception@@@Z@@YAP6AHPEAU_exception@@@ZQ6AH0@Z@Z 00000001400091e0 f i libucrtd:matherr.obj
 0001:00008220       ??$__crt_fast_encode_pointer@P6AHPEAU_exception@@@Z@@YAP6AHPEAU_exception@@@ZQ6AH0@Z@Z 0000000140009220 f i libucrtd:matherr.obj
 0001:00008260       ?get_current_state_index@__crt_state_management@@YA_KXZ 0000000140009260 f i libucrtd:matherr.obj
 0001:00008270       ?initialize@?$dual_state_global@P6AHPEAU_exception@@@Z@__crt_state_management@@QEAAXQ6AHPEAU_exception@@@Z@Z 0000000140009270 f i libucrtd:matherr.obj
 0001:000082c0       ?value@?$dual_state_global@P6AHPEAU_exception@@@Z@__crt_state_management@@QEAAAEAP6AHPEAU_exception@@@ZXZ 00000001400092c0 f i libucrtd:matherr.obj
 0001:000082e0       __acrt_has_user_matherr    00000001400092e0 f   libucrtd:matherr.obj
 0001:00008320       __acrt_initialize_user_matherr 0000000140009320 f   libucrtd:matherr.obj
 0001:00008340       __acrt_invoke_user_matherr 0000000140009340 f   libucrtd:matherr.obj
 0001:000083b0       __setusermatherr           00000001400093b0 f   libucrtd:matherr.obj
 0001:000083f0       ??$?RE@__crt_internal_free_policy@@QEBAXQEBE@Z 00000001400093f0 f i libucrtd:argv_parsing.obj
 0001:00008420       ??$?RPEAD@__crt_internal_free_policy@@QEBAXQEBQEAD@Z 0000000140009420 f i libucrtd:argv_parsing.obj
 0001:000087e0       ??$get_module_file_name@$$TAEAY0BAF@DH@?$__crt_char_traits@D@@SAK$$QEA$$TAEAY0BAF@D$$QEAH@Z 00000001400097e0 f i libucrtd:argv_parsing.obj
 0001:00008cf0       ??$set_program_name@PEAD@?$__crt_char_traits@D@@SAX$$QEAPEAD@Z 0000000140009cf0 f i libucrtd:argv_parsing.obj
 0001:00008d30       ??0?$__crt_unique_heap_ptr@EU__crt_internal_free_policy@@@@QEAA@QEAE@Z 0000000140009d30 f i libucrtd:argv_parsing.obj
 0001:00008d50       ??0?$__crt_unique_heap_ptr@PEADU__crt_internal_free_policy@@@@QEAA@QEAPEAD@Z 0000000140009d50 f i libucrtd:argv_parsing.obj
 0001:00008d70       ??1?$__crt_unique_heap_ptr@EU__crt_internal_free_policy@@@@QEAA@XZ 0000000140009d70 f i libucrtd:argv_parsing.obj
 0001:00008d90       ??1?$__crt_unique_heap_ptr@PEADU__crt_internal_free_policy@@@@QEAA@XZ 0000000140009d90 f i libucrtd:argv_parsing.obj
 0001:00008db0       ??B?$__crt_unique_heap_ptr@EU__crt_internal_free_policy@@@@QEBA_NXZ 0000000140009db0 f i libucrtd:argv_parsing.obj
 0001:00008e30       ?detach@?$__crt_unique_heap_ptr@EU__crt_internal_free_policy@@@@QEAAPEAEXZ 0000000140009e30 f i libucrtd:argv_parsing.obj
 0001:00008e60       ?detach@?$__crt_unique_heap_ptr@PEADU__crt_internal_free_policy@@@@QEAAPEAPEADXZ 0000000140009e60 f i libucrtd:argv_parsing.obj
 0001:00008ee0       ?get@?$__crt_unique_heap_ptr@EU__crt_internal_free_policy@@@@QEBAPEAEXZ 0000000140009ee0 f i libucrtd:argv_parsing.obj
 0001:00008ef0       ?get@?$__crt_unique_heap_ptr@PEADU__crt_internal_free_policy@@@@QEBAPEAPEADXZ 0000000140009ef0 f i libucrtd:argv_parsing.obj
 0001:00008f00       ?get_address_of@?$__crt_unique_heap_ptr@PEADU__crt_internal_free_policy@@@@QEAAPEAPEAPEADXZ 0000000140009f00 f i libucrtd:argv_parsing.obj
 0001:00008f30       ?is_valid@?$__crt_unique_heap_ptr@EU__crt_internal_free_policy@@@@QEBA_NXZ 0000000140009f30 f i libucrtd:argv_parsing.obj
 0001:00008f60       ?release@?$__crt_unique_heap_ptr@EU__crt_internal_free_policy@@@@QEAAXXZ 0000000140009f60 f i libucrtd:argv_parsing.obj
 0001:00008f90       ?release@?$__crt_unique_heap_ptr@PEADU__crt_internal_free_policy@@@@QEAAXXZ 0000000140009f90 f i libucrtd:argv_parsing.obj
 0001:00009000       __acrt_allocate_buffer_for_argv 000000014000a000 f   libucrtd:argv_parsing.obj
 0001:00009120       _configure_narrow_argv     000000014000a120 f   libucrtd:argv_parsing.obj
 0001:00009140       _set_pgmptr                000000014000a140 f i libucrtd:argv_parsing.obj
 0001:000095d0       ??$get_environment_from_os@$$V@?$__crt_char_traits@D@@SAPEADXZ 000000014000a5d0 f i libucrtd:environment_initialization.obj
 0001:000095e0       ??$tcscpy_s@PEADAEB_KAEAPEAD@?$__crt_char_traits@D@@SAH$$QEAPEADAEB_KAEAPEAD@Z 000000014000a5e0 f i libucrtd:environment_initialization.obj
 0001:00009620       ??$tcslen@AEAPEAD@?$__crt_char_traits@D@@SA_KAEAPEAD@Z 000000014000a620 f i libucrtd:environment_initialization.obj
 0001:00009640       ??$uninitialize@A6AXAEAPEAPEAD@_E@?$dual_state_global@PEAPEAD@__crt_state_management@@QEAAXA6AXAEAPEAPEAD@_E@Z 000000014000a640 f i libucrtd:environment_initialization.obj
 0001:000096c0       ??$uninitialize@A6AXAEAPEAPEA_W@_E@?$dual_state_global@PEAPEA_W@__crt_state_management@@QEAAXA6AXAEAPEAPEA_W@_E@Z 000000014000a6c0 f i libucrtd:environment_initialization.obj
 0001:000097c0       ??B?$__crt_unique_heap_ptr@PEADU__crt_internal_free_policy@@@@QEBA_NXZ 000000014000a7c0 f i libucrtd:environment_initialization.obj
 0001:000097e0       ?detach@?$__crt_unique_heap_ptr@DU__crt_internal_free_policy@@@@QEAAPEADXZ 000000014000a7e0 f i libucrtd:environment_initialization.obj
 0001:00009860       ?initialize@?$dual_state_global@PEAPEAD@__crt_state_management@@QEAAXQEAPEAD@Z 000000014000a860 f i libucrtd:environment_initialization.obj
 0001:000098b0       ?is_valid@?$__crt_unique_heap_ptr@PEADU__crt_internal_free_policy@@@@QEBA_NXZ 000000014000a8b0 f i libucrtd:environment_initialization.obj
 0001:00009900       ?value@?$dual_state_global@PEAPEAD@__crt_state_management@@QEAAAEAPEAPEADXZ 000000014000a900 f i libucrtd:environment_initialization.obj
 0001:00009920       __dcrt_uninitialize_environments_nolock 000000014000a920 f   libucrtd:environment_initialization.obj
 0001:00009970       _initialize_narrow_environment 000000014000a970 f   libucrtd:environment_initialization.obj
 0001:00009af0       _get_narrow_winmain_command_line 000000014000aaf0 f   libucrtd:argv_winmain.obj
 0001:00009b00       _initterm                  000000014000ab00 f   libucrtd:initterm.obj
 0001:00009b70       _initterm_e                000000014000ab70 f   libucrtd:initterm.obj
 0001:00009bf0       ??$?B$$A6AXPEAXK0@Z@__crt_fast_encoded_nullptr_t@@QEBAP6AXPEAXK0@ZXZ 000000014000abf0 f i libucrtd:exit.obj
 0001:00009cb0       ??$__crt_fast_decode_pointer@P6AXPEAXK0@Z@@YAP6AXPEAXK0@ZQ6AX0K0@Z@Z 000000014000acb0 f i libucrtd:exit.obj
 0001:00009cf0       ??$__crt_fast_encode_pointer@P6AXPEAXK0@Z@@YAP6AXPEAXK0@ZQ6AX0K0@Z@Z 000000014000acf0 f i libucrtd:exit.obj
 0001:00009d30       ??$__crt_get_proc_address@P6AXI@Z@@YAP6AXI@ZQEAUHINSTANCE__@@QEBD@Z 000000014000ad30 f i libucrtd:exit.obj
 0001:00009d60       ??$__crt_interlocked_read@J@@YAJPEDJ@Z 000000014000ad60 f i libucrtd:exit.obj
 0001:00009e10       ??0?$__crt_unique_handle_t@U__crt_hmodule_traits@@@@QEAA@QEAUHINSTANCE__@@@Z 000000014000ae10 f i libucrtd:exit.obj
 0001:00009e30       ??1?$__crt_unique_handle_t@U__crt_hmodule_traits@@@@QEAA@XZ 000000014000ae30 f i libucrtd:exit.obj
 0001:00009fb0       ?__acrt_select_exit_lock@@YA?AW4__acrt_lock_id@@XZ 000000014000afb0 f i libucrtd:exit.obj
 0001:00009fc0       ?__crt_interlocked_read_32@@YAHPEDH@Z 000000014000afc0 f i libucrtd:exit.obj
 0001:0000a000       ?close@?$__crt_unique_handle_t@U__crt_hmodule_traits@@@@QEAAXXZ 000000014000b000 f i libucrtd:exit.obj
 0001:0000a040       ?close@__crt_hmodule_traits@@SA_NPEAUHINSTANCE__@@@Z 000000014000b040 f i libucrtd:exit.obj
 0001:0000a160       ?get@?$__crt_unique_handle_t@U__crt_hmodule_traits@@@@QEBAPEAUHINSTANCE__@@XZ 000000014000b160 f i libucrtd:exit.obj
 0001:0000a170       ?get_address_of@?$__crt_unique_handle_t@U__crt_hmodule_traits@@@@QEAAPEAPEAUHINSTANCE__@@XZ 000000014000b170 f i libucrtd:exit.obj
 0001:0000a180       ?get_invalid_value@__crt_hmodule_traits@@SAPEAUHINSTANCE__@@XZ 000000014000b180 f i libucrtd:exit.obj
 0001:0000a360       __acrt_initialize_thread_local_exit_callback 000000014000b360 f   libucrtd:exit.obj
 0001:0000a380       _c_exit                    000000014000b380 f   libucrtd:exit.obj
 0001:0000a3a0       _cexit                     000000014000b3a0 f   libucrtd:exit.obj
 0001:0000a3c0       _exit                      000000014000b3c0 f   libucrtd:exit.obj
 0001:0000a3e0       _register_thread_local_exe_atexit_callback 000000014000b3e0 f   libucrtd:exit.obj
 0001:0000a430       exit                       000000014000b430 f   libucrtd:exit.obj
 0001:0000a450       ?value@?$dual_state_global@H@__crt_state_management@@QEAAAEAHXZ 000000014000b450 f i libucrtd:setmode.obj
 0001:0000a470       _set_fmode                 000000014000b470 f   libucrtd:setmode.obj
 0001:0000a550       ??$?RU__crt_multibyte_data@@@__crt_internal_free_policy@@QEBAXQEBU__crt_multibyte_data@@@Z 000000014000b550 f i libucrtd:wsetlocale.obj
 0001:0000a6c0       ??0?$__crt_unique_heap_ptr@U__crt_multibyte_data@@U__crt_internal_free_policy@@@@QEAA@QEAU__crt_multibyte_data@@@Z 000000014000b6c0 f i libucrtd:wsetlocale.obj
 0001:0000a6e0       ??1?$__crt_unique_heap_ptr@U__crt_multibyte_data@@U__crt_internal_free_policy@@@@QEAA@XZ 000000014000b6e0 f i libucrtd:wsetlocale.obj
 0001:0000a700       ??B?$__crt_unique_heap_ptr@U__crt_multibyte_data@@U__crt_internal_free_policy@@@@QEBA_NXZ 000000014000b700 f i libucrtd:wsetlocale.obj
 0001:0000a7e0       ?detach@?$__crt_unique_heap_ptr@U__crt_multibyte_data@@U__crt_internal_free_policy@@@@QEAAPEAU__crt_multibyte_data@@XZ 000000014000b7e0 f i libucrtd:wsetlocale.obj
 0001:0000a810       ?get@?$__crt_unique_heap_ptr@U__crt_multibyte_data@@U__crt_internal_free_policy@@@@QEBAPEAU__crt_multibyte_data@@XZ 000000014000b810 f i libucrtd:wsetlocale.obj
 0001:0000a820       ?is_valid@?$__crt_unique_heap_ptr@U__crt_multibyte_data@@U__crt_internal_free_policy@@@@QEBA_NXZ 000000014000b820 f i libucrtd:wsetlocale.obj
 0001:0000a850       ?release@?$__crt_unique_heap_ptr@U__crt_multibyte_data@@U__crt_internal_free_policy@@@@QEAAXXZ 000000014000b850 f i libucrtd:wsetlocale.obj
 0001:0000a880       ?value@?$dual_state_global@PEAU__crt_locale_data@@@__crt_state_management@@QEAAAEAPEAU__crt_locale_data@@XZ 000000014000b880 f i libucrtd:wsetlocale.obj
 0001:0000a8a0       __acrt_disable_global_locale_sync 000000014000b8a0 f i libucrtd:wsetlocale.obj
 0001:0000a8d0       __acrt_enable_global_locale_sync 000000014000b8d0 f i libucrtd:wsetlocale.obj
 0001:0000a900       __acrt_set_locale_changed  000000014000b900 f   libucrtd:wsetlocale.obj
 0001:0000a910       __acrt_uninitialize_locale 000000014000b910 f   libucrtd:wsetlocale.obj
 0001:0000a940       __ascii_tolower            000000014000b940 f i libucrtd:wsetlocale.obj
 0001:0000a960       __ascii_towlower           000000014000b960 f i libucrtd:wsetlocale.obj
 0001:0000a980       _configthreadlocale        000000014000b980 f   libucrtd:wsetlocale.obj
 0001:0000aae0       ?value@?$dual_state_global@J@__crt_state_management@@QEAAAEAJXZ 000000014000bae0 f i libucrtd:new_mode.obj
 0001:0000ab00       _query_new_mode            000000014000bb00 f   libucrtd:new_mode.obj
 0001:0000ab20       _set_new_mode              000000014000bb20 f   libucrtd:new_mode.obj
 0001:0000abf0       __p__commode               000000014000bbf0 f   libucrtd:ncommode.obj
 0001:0000ac00       ??$?BP6AXXZ@__crt_fast_encoded_nullptr_t@@QEBAPEAP6AXXZXZ 000000014000bc00 f i libucrtd:onexit.obj
 0001:0000ac20       ??$?RP6AXXZ@__crt_internal_free_policy@@QEBAXQEBQ6AXXZ@Z 000000014000bc20 f i libucrtd:onexit.obj
 0001:0000adb0       ??$__crt_fast_encode_pointer@P6AHXZ@@YAP6AHXZQ6AHXZ@Z 000000014000bdb0 f i libucrtd:onexit.obj
 0001:0000aec0       ??0?$__crt_unique_heap_ptr@P6AXXZU__crt_internal_free_policy@@@@QEAA@QEAP6AXXZ@Z 000000014000bec0 f i libucrtd:onexit.obj
 0001:0000aee0       ??1?$__crt_unique_heap_ptr@P6AXXZU__crt_internal_free_policy@@@@QEAA@XZ 000000014000bee0 f i libucrtd:onexit.obj
 0001:0000af00       ??1scoped_global_state_reset@__crt_state_management@@QEAA@XZ 000000014000bf00 f i libucrtd:onexit.obj
 0001:0000b500       ?detach@?$__crt_unique_heap_ptr@P6AXXZU__crt_internal_free_policy@@@@QEAAPEAP6AXXZXZ 000000014000c500 f i libucrtd:onexit.obj
 0001:0000b530       ?release@?$__crt_unique_heap_ptr@P6AXXZU__crt_internal_free_policy@@@@QEAAXXZ 000000014000c530 f i libucrtd:onexit.obj
 0001:0000b560       _crt_atexit                000000014000c560 f   libucrtd:onexit.obj
 0001:0000b580       _execute_onexit_table      000000014000c580 f   libucrtd:onexit.obj
 0001:0000b5c0       _initialize_onexit_table   000000014000c5c0 f   libucrtd:onexit.obj
 0001:0000b640       _register_onexit_function  000000014000c640 f   libucrtd:onexit.obj
 0001:0000b980       ?initialize@?$dual_state_global@PEAU__crt_locale_data@@@__crt_state_management@@QEAAXQEAU__crt_locale_data@@@Z 000000014000c980 f i libucrtd:initialization.obj
 0001:0000b9d0       __acrt_initialize          000000014000c9d0 f   libucrtd:initialization.obj
 0001:0000ba00       __acrt_uninitialize        000000014000ca00 f   libucrtd:initialization.obj
 0001:0000ba30       terminate                  000000014000ca30 f   libucrtd:terminate.obj
 0001:0000ba80       ??0_LocaleUpdate@@QEAA@QEAU__crt_locale_pointers@@@Z 000000014000ca80 f i libucrtd:debug_heap.obj
 0001:0000bba0       ??1_LocaleUpdate@@QEAA@XZ  000000014000cba0 f i libucrtd:debug_heap.obj
 0001:0000bbd0       ?GetLocaleT@_LocaleUpdate@@QEAAPEAU__crt_locale_pointers@@XZ 000000014000cbd0 f i libucrtd:debug_heap.obj
 0001:0000df80       _CrtCheckMemory            000000014000ef80 f   libucrtd:debug_heap.obj
 0001:0000e110       _CrtDumpMemoryLeaks        000000014000f110 f   libucrtd:debug_heap.obj
 0001:0000e1d0       _CrtIsValidHeapPointer     000000014000f1d0 f   libucrtd:debug_heap.obj
 0001:0000e220       _CrtIsValidPointer         000000014000f220 f   libucrtd:debug_heap.obj
 0001:0000e260       _CrtMemCheckpoint          000000014000f260 f   libucrtd:debug_heap.obj
 0001:0000e4e0       _CrtMemDumpAllObjectsSince 000000014000f4e0 f   libucrtd:debug_heap.obj
 0001:0000e540       _CrtSetDbgFlag             000000014000f540 f   libucrtd:debug_heap.obj
 0001:0000e6a0       _CrtSetDumpClient          000000014000f6a0 f   libucrtd:debug_heap.obj
 0001:0000e6d0       __acrt_get_locale_data_prefix 000000014000f6d0 f i libucrtd:debug_heap.obj
 0001:0000e6f0       __acrt_locale_changed      000000014000f6f0 f i libucrtd:debug_heap.obj
 0001:0000e720       _calloc_dbg                000000014000f720 f   libucrtd:debug_heap.obj
 0001:0000e7c0       _chvalidchk_l              000000014000f7c0 f i libucrtd:debug_heap.obj
 0001:0000e7f0       _free_dbg                  000000014000f7f0 f   libucrtd:debug_heap.obj
 0001:0000e860       _invoke_watson_if_oneof    000000014000f860 f i libucrtd:debug_heap.obj
 0001:0000e8c0       _ischartype_l              000000014000f8c0 f i libucrtd:debug_heap.obj
 0001:0000e950       _malloc_dbg                000000014000f950 f   libucrtd:debug_heap.obj
 0001:0000e990       _msize_dbg                 000000014000f990 f   libucrtd:debug_heap.obj
 0001:0000eb30       _realloc_dbg               000000014000fb30 f   libucrtd:debug_heap.obj
 0001:0000eba0       _recalloc_dbg              000000014000fba0 f   libucrtd:debug_heap.obj
 0001:0000f180       strcpy_s                   0000000140010180 f   libucrtd:strcpy_s.obj
 0001:0000f1c0       strcmp                     00000001400101c0 f   libucrtd:strcmp.obj
 0001:0000f240       strlen                     0000000140010240 f   libucrtd:strlen.obj
 0001:0000f2f0       abort                      00000001400102f0 f   libucrtd:abort.obj
 0001:00010120       ??$get_module_file_name@AEAPEAUHINSTANCE__@@AEAY0BAF@DK@?$__crt_char_traits@D@@SAKAEAPEAUHINSTANCE__@@AEAY0BAF@D$$QEAK@Z 0000000140011120 f i libucrtd:dbgrpt.obj
 0001:00010160       ??$get_module_file_name@AEAPEAUHINSTANCE__@@AEAY0BAF@_WK@?$__crt_char_traits@_W@@SAKAEAPEAUHINSTANCE__@@AEAY0BAF@_W$$QEAK@Z 0000000140011160 f i libucrtd:dbgrpt.obj
 0001:000101a0       ??$tcscpy_s@AEAY0BAF@D_KPEBD@?$__crt_char_traits@D@@SAHAEAY0BAF@D$$QEA_K$$QEAPEBD@Z 00000001400111a0 f i libucrtd:dbgrpt.obj
 0001:000101e0       ??$tcscpy_s@AEAY0BAF@_W_KPEB_W@?$__crt_char_traits@_W@@SAHAEAY0BAF@_W$$QEA_K$$QEAPEB_W@Z 00000001400111e0 f i libucrtd:dbgrpt.obj
 0001:00010220       ??$tcslen@AEAY0BAF@D@?$__crt_char_traits@D@@SA_KAEAY0BAF@D@Z 0000000140011220 f i libucrtd:dbgrpt.obj
 0001:00010240       ??$tcslen@AEAY0BAF@_W@?$__crt_char_traits@_W@@SA_KAEAY0BAF@_W@Z 0000000140011240 f i libucrtd:dbgrpt.obj
 0001:00010260       ??$tcslen@AEBQEBD@?$__crt_char_traits@D@@SA_KAEBQEBD@Z 0000000140011260 f i libucrtd:dbgrpt.obj
 0001:00010280       ??$tcslen@AEBQEB_W@?$__crt_char_traits@_W@@SA_KAEBQEB_W@Z 0000000140011280 f i libucrtd:dbgrpt.obj
 0001:000102e0       _CrtDbgReport              00000001400112e0 f   libucrtd:dbgrpt.obj
 0001:00010360       _CrtDbgReportW             0000000140011360 f   libucrtd:dbgrpt.obj
 0001:000103e0       __acrt_MessageWindowA      00000001400113e0 f   libucrtd:dbgrpt.obj
 0001:00010430       __acrt_MessageWindowW      0000000140011430 f   libucrtd:dbgrpt.obj
 0001:00010480       _snwprintf_s               0000000140011480 f i libucrtd:dbgrpt.obj
 0001:000104f0       _vsnwprintf_s_l            00000001400114f0 f i libucrtd:dbgrpt.obj
 0001:00010570       wcsncmp                    0000000140011570 f   libucrtd:wcsncmp.obj
 0001:00010600       ??$?0AEBV?$string_output_adapter@D@__crt_stdio_output@@AEB_KAEBQEBDAEAV__crt_cached_ptd_host@@AEBQEAD@?$format_validation_base@DV?$string_output_adapter@D@__crt_stdio_output@@@__crt_stdio_output@@IEAA@AEBV?$string_output_adapter@D@1@AEB_KAEBQEBDAEAV__crt_cached_ptd_host@@AEBQEAD@Z 0000000140011600 f i libucrtd:output.obj
 0001:00010650       ??$?0AEBV?$string_output_adapter@D@__crt_stdio_output@@AEB_KAEBQEBDAEAV__crt_cached_ptd_host@@AEBQEAD@?$standard_base@DV?$string_output_adapter@D@__crt_stdio_output@@@__crt_stdio_output@@IEAA@AEBV?$string_output_adapter@D@1@AEB_KAEBQEBDAEAV__crt_cached_ptd_host@@AEBQEAD@Z 0000000140011650 f i libucrtd:output.obj
 0001:000106c0       ??$?0AEBV?$string_output_adapter@_W@__crt_stdio_output@@AEB_KAEBQEB_WAEAV__crt_cached_ptd_host@@AEBQEAD@?$format_validation_base@_WV?$string_output_adapter@_W@__crt_stdio_output@@@__crt_stdio_output@@IEAA@AEBV?$string_output_adapter@_W@1@AEB_KAEBQEB_WAEAV__crt_cached_ptd_host@@AEBQEAD@Z 00000001400116c0 f i libucrtd:output.obj
 0001:00010710       ??$?0AEBV?$string_output_adapter@_W@__crt_stdio_output@@AEB_KAEBQEB_WAEAV__crt_cached_ptd_host@@AEBQEAD@?$standard_base@_WV?$string_output_adapter@_W@__crt_stdio_output@@@__crt_stdio_output@@IEAA@AEBV?$string_output_adapter@_W@1@AEB_KAEBQEB_WAEAV__crt_cached_ptd_host@@AEBQEAD@Z 0000000140011710 f i libucrtd:output.obj
 0001:00010780       ??$_tcstol_internal@DPEAPEAD$0A@@@YAJAEAV__crt_cached_ptd_host@@QEBDQEAPEADH@Z 0000000140011780 f i libucrtd:output.obj
 0001:000107d0       ??$_tcstol_internal@_WPEAPEA_W$0A@@@YAJAEAV__crt_cached_ptd_host@@QEB_WQEAPEA_WH@Z 00000001400117d0 f i libucrtd:output.obj
 0001:000123a0       ??$count@D@formatting_buffer@__crt_stdio_output@@QEBA_KXZ 00000001400133a0 f i libucrtd:output.obj
 0001:000123f0       ??$count@_W@formatting_buffer@__crt_stdio_output@@QEBA_KXZ 00000001400133f0 f i libucrtd:output.obj
 0001:00012440       ??$data@D@formatting_buffer@__crt_stdio_output@@QEAAPEADXZ 0000000140013440 f i libucrtd:output.obj
 0001:00012490       ??$data@_W@formatting_buffer@__crt_stdio_output@@QEAAPEA_WXZ 0000000140013490 f i libucrtd:output.obj
 0001:000124e0       ??$ensure_buffer_is_big_enough@D@formatting_buffer@__crt_stdio_output@@QEAA_N_KAEAV__crt_cached_ptd_host@@@Z 00000001400134e0 f i libucrtd:output.obj
 0001:00012620       ??$ensure_buffer_is_big_enough@_W@formatting_buffer@__crt_stdio_output@@QEAA_N_KAEAV__crt_cached_ptd_host@@@Z 0000000140013620 f i libucrtd:output.obj
 0001:00012760       ??$extract_argument_from_va_list@C_J@?$standard_base@DV?$string_output_adapter@D@__crt_stdio_output@@@__crt_stdio_output@@IEAA_NAEA_J@Z 0000000140013760 f i libucrtd:output.obj
 0001:000127a0       ??$extract_argument_from_va_list@C_J@?$standard_base@_WV?$string_output_adapter@_W@__crt_stdio_output@@@__crt_stdio_output@@IEAA_NAEA_J@Z 00000001400137a0 f i libucrtd:output.obj
 0001:000127e0       ??$extract_argument_from_va_list@E_J@?$standard_base@DV?$string_output_adapter@D@__crt_stdio_output@@@__crt_stdio_output@@IEAA_NAEA_J@Z 00000001400137e0 f i libucrtd:output.obj
 0001:00012820       ??$extract_argument_from_va_list@E_J@?$standard_base@_WV?$string_output_adapter@_W@__crt_stdio_output@@@__crt_stdio_output@@IEAA_NAEA_J@Z 0000000140013820 f i libucrtd:output.obj
 0001:00012860       ??$extract_argument_from_va_list@F_J@?$standard_base@DV?$string_output_adapter@D@__crt_stdio_output@@@__crt_stdio_output@@IEAA_NAEA_J@Z 0000000140013860 f i libucrtd:output.obj
 0001:000128a0       ??$extract_argument_from_va_list@F_J@?$standard_base@_WV?$string_output_adapter@_W@__crt_stdio_output@@@__crt_stdio_output@@IEAA_NAEA_J@Z 00000001400138a0 f i libucrtd:output.obj
 0001:000128e0       ??$extract_argument_from_va_list@GD@?$standard_base@DV?$string_output_adapter@D@__crt_stdio_output@@@__crt_stdio_output@@IEAA_NAEAD@Z 00000001400138e0 f i libucrtd:output.obj
 0001:00012910       ??$extract_argument_from_va_list@G_J@?$standard_base@DV?$string_output_adapter@D@__crt_stdio_output@@@__crt_stdio_output@@IEAA_NAEA_J@Z 0000000140013910 f i libucrtd:output.obj
 0001:00012950       ??$extract_argument_from_va_list@G_J@?$standard_base@_WV?$string_output_adapter@_W@__crt_stdio_output@@@__crt_stdio_output@@IEAA_NAEA_J@Z 0000000140013950 f i libucrtd:output.obj
 0001:00012990       ??$extract_argument_from_va_list@H_J@?$standard_base@DV?$string_output_adapter@D@__crt_stdio_output@@@__crt_stdio_output@@IEAA_NAEA_J@Z 0000000140013990 f i libucrtd:output.obj
 0001:000129c0       ??$extract_argument_from_va_list@H_J@?$standard_base@_WV?$string_output_adapter@_W@__crt_stdio_output@@@__crt_stdio_output@@IEAA_NAEA_J@Z 00000001400139c0 f i libucrtd:output.obj
 0001:000129f0       ??$extract_argument_from_va_list@I_J@?$standard_base@DV?$string_output_adapter@D@__crt_stdio_output@@@__crt_stdio_output@@IEAA_NAEA_J@Z 00000001400139f0 f i libucrtd:output.obj
 0001:00012a20       ??$extract_argument_from_va_list@I_J@?$standard_base@_WV?$string_output_adapter@_W@__crt_stdio_output@@@__crt_stdio_output@@IEAA_NAEA_J@Z 0000000140013a20 f i libucrtd:output.obj
 0001:00012a50       ??$extract_argument_from_va_list@PEADPEAD@?$standard_base@DV?$string_output_adapter@D@__crt_stdio_output@@@__crt_stdio_output@@IEAA_NAEAPEAD@Z 0000000140013a50 f i libucrtd:output.obj
 0001:00012a80       ??$extract_argument_from_va_list@PEADPEAD@?$standard_base@_WV?$string_output_adapter@_W@__crt_stdio_output@@@__crt_stdio_output@@IEAA_NAEAPEAD@Z 0000000140013a80 f i libucrtd:output.obj
 0001:00012ab0       ??$extract_argument_from_va_list@PEAUansi_string@?1??type_case_Z@?$output_processor@DV?$string_output_adapter@D@__crt_stdio_output@@V?$format_validation_base@DV?$string_output_adapter@D@__crt_stdio_output@@@2@@__crt_stdio_output@@AEAA_NXZ@PEAU1?1??234@AEAA_NXZ@@?$standard_base@DV?$string_output_adapter@D@__crt_stdio_output@@@__crt_stdio_output@@IEAA_NAEAPEAUansi_string@?1??type_case_Z@?$output_processor@DV?$string_output_adapter@D@__crt_stdio_output@@V?$format_validation_base@DV?$string_output_adapter@D@__crt_stdio_output@@@2@@1@AEAA_NXZ@@Z 0000000140013ab0 f i libucrtd:output.obj
 0001:00012ae0       ??$extract_argument_from_va_list@PEAUansi_string@?1??type_case_Z@?$output_processor@_WV?$string_output_adapter@_W@__crt_stdio_output@@V?$format_validation_base@_WV?$string_output_adapter@_W@__crt_stdio_output@@@2@@__crt_stdio_output@@AEAA_NXZ@PEAU1?1??234@AEAA_NXZ@@?$standard_base@_WV?$string_output_adapter@_W@__crt_stdio_output@@@__crt_stdio_output@@IEAA_NAEAPEAUansi_string@?1??type_case_Z@?$output_processor@_WV?$string_output_adapter@_W@__crt_stdio_output@@V?$format_validation_base@_WV?$string_output_adapter@_W@__crt_stdio_output@@@2@@1@AEAA_NXZ@@Z 0000000140013ae0 f i libucrtd:output.obj
 0001:00012b10       ??$extract_argument_from_va_list@PEAXPEAX@?$standard_base@DV?$string_output_adapter@D@__crt_stdio_output@@@__crt_stdio_output@@IEAA_NAEAPEAX@Z 0000000140013b10 f i libucrtd:output.obj
 0001:00012b40       ??$extract_argument_from_va_list@PEAXPEAX@?$standard_base@_WV?$string_output_adapter@_W@__crt_stdio_output@@@__crt_stdio_output@@IEAA_NAEAPEAX@Z 0000000140013b40 f i libucrtd:output.obj
 0001:00012b70       ??$extract_argument_from_va_list@U_CRT_DOUBLE@@U1@@?$standard_base@DV?$string_output_adapter@D@__crt_stdio_output@@@__crt_stdio_output@@IEAA_NAEAU_CRT_DOUBLE@@@Z 0000000140013b70 f i libucrtd:output.obj
 0001:00012bc0       ??$extract_argument_from_va_list@U_CRT_DOUBLE@@U1@@?$standard_base@_WV?$string_output_adapter@_W@__crt_stdio_output@@@__crt_stdio_output@@IEAA_NAEAU_CRT_DOUBLE@@@Z 0000000140013bc0 f i libucrtd:output.obj
 0001:00012c10       ??$extract_argument_from_va_list@_J_J@?$standard_base@DV?$string_output_adapter@D@__crt_stdio_output@@@__crt_stdio_output@@IEAA_NAEA_J@Z 0000000140013c10 f i libucrtd:output.obj
 0001:00012c40       ??$extract_argument_from_va_list@_J_J@?$standard_base@_WV?$string_output_adapter@_W@__crt_stdio_output@@@__crt_stdio_output@@IEAA_NAEA_J@Z 0000000140013c40 f i libucrtd:output.obj
 0001:00012c70       ??$extract_argument_from_va_list@_K_J@?$standard_base@DV?$string_output_adapter@D@__crt_stdio_output@@@__crt_stdio_output@@IEAA_NAEA_J@Z 0000000140013c70 f i libucrtd:output.obj
 0001:00012ca0       ??$extract_argument_from_va_list@_K_J@?$standard_base@_WV?$string_output_adapter@_W@__crt_stdio_output@@@__crt_stdio_output@@IEAA_NAEA_J@Z 0000000140013ca0 f i libucrtd:output.obj
 0001:00012cd0       ??$extract_argument_from_va_list@_W_W@?$standard_base@DV?$string_output_adapter@D@__crt_stdio_output@@@__crt_stdio_output@@IEAA_NAEA_W@Z 0000000140013cd0 f i libucrtd:output.obj
 0001:00012d00       ??$extract_argument_from_va_list@_W_W@?$standard_base@_WV?$string_output_adapter@_W@__crt_stdio_output@@@__crt_stdio_output@@IEAA_NAEA_W@Z 0000000140013d00 f i libucrtd:output.obj
 0001:00012d30       ??$is_overflow_condition@K@__crt_strtox@@YA_NIK@Z 0000000140013d30 f i libucrtd:output.obj
 0001:00012da0       ??$is_wide_character_specifier@D@__crt_stdio_output@@YA_N_KDW4length_modifier@0@@Z 0000000140013da0 f i libucrtd:output.obj
 0001:00012e40       ??$is_wide_character_specifier@_W@__crt_stdio_output@@YA_N_K_WW4length_modifier@0@@Z 0000000140013e40 f i libucrtd:output.obj
 0001:00012f10       ??$make_c_string_character_source@DPEAPEAD@__crt_strtox@@YA?AV?$c_string_character_source@D@0@QEBDQEAPEAD@Z 0000000140013f10 f i libucrtd:output.obj
 0001:00012f50       ??$make_c_string_character_source@_WPEAPEA_W@__crt_strtox@@YA?AV?$c_string_character_source@_W@0@QEB_WQEAPEA_W@Z 0000000140013f50 f i libucrtd:output.obj
 0001:00012f90       ??$parse_integer@KV?$c_string_character_source@D@__crt_strtox@@$0A@@__crt_strtox@@YAKAEAV__crt_cached_ptd_host@@V?$c_string_character_source@D@0@H_N@Z 0000000140013f90 f i libucrtd:output.obj
 0001:00013410       ??$parse_integer@KV?$c_string_character_source@_W@__crt_strtox@@$0A@@__crt_strtox@@YAKAEAV__crt_cached_ptd_host@@V?$c_string_character_source@_W@0@H_N@Z 0000000140014410 f i libucrtd:output.obj
 0001:00013890       ??$read_va_arg@C@__crt_stdio_output@@YACAEAPEAD@Z 0000000140014890 f i libucrtd:output.obj
 0001:00013900       ??$read_va_arg@E@__crt_stdio_output@@YAEAEAPEAD@Z 0000000140014900 f i libucrtd:output.obj
 0001:00013970       ??$read_va_arg@F@__crt_stdio_output@@YAFAEAPEAD@Z 0000000140014970 f i libucrtd:output.obj
 0001:000139e0       ??$read_va_arg@G@__crt_stdio_output@@YAGAEAPEAD@Z 00000001400149e0 f i libucrtd:output.obj
 0001:00013a50       ??$read_va_arg@H@__crt_stdio_output@@YAHAEAPEAD@Z 0000000140014a50 f i libucrtd:output.obj
 0001:00013ab0       ??$read_va_arg@I@__crt_stdio_output@@YAIAEAPEAD@Z 0000000140014ab0 f i libucrtd:output.obj
 0001:00013b10       ??$read_va_arg@PEAD@__crt_stdio_output@@YAPEADAEAPEAD@Z 0000000140014b10 f i libucrtd:output.obj
 0001:00013b80       ??$read_va_arg@PEAUansi_string@?1??type_case_Z@?$output_processor@DV?$string_output_adapter@D@__crt_stdio_output@@V?$format_validation_base@DV?$string_output_adapter@D@__crt_stdio_output@@@2@@__crt_stdio_output@@AEAA_NXZ@@__crt_stdio_output@@YAPEAUansi_string@?1??type_case_Z@?$output_processor@DV?$string_output_adapter@D@__crt_stdio_output@@V?$format_validation_base@DV?$string_output_adapter@D@__crt_stdio_output@@@2@@0@AEAA_NXZ@AEAPEAD@Z 0000000140014b80 f i libucrtd:output.obj
 0001:00013bf0       ??$read_va_arg@PEAUansi_string@?1??type_case_Z@?$output_processor@_WV?$string_output_adapter@_W@__crt_stdio_output@@V?$format_validation_base@_WV?$string_output_adapter@_W@__crt_stdio_output@@@2@@__crt_stdio_output@@AEAA_NXZ@@__crt_stdio_output@@YAPEAUansi_string@?1??type_case_Z@?$output_processor@_WV?$string_output_adapter@_W@__crt_stdio_output@@V?$format_validation_base@_WV?$string_output_adapter@_W@__crt_stdio_output@@@2@@0@AEAA_NXZ@AEAPEAD@Z 0000000140014bf0 f i libucrtd:output.obj
 0001:00013c60       ??$read_va_arg@PEAX@__crt_stdio_output@@YAPEAXAEAPEAD@Z 0000000140014c60 f i libucrtd:output.obj
 0001:00013cd0       ??$read_va_arg@U_CRT_DOUBLE@@@__crt_stdio_output@@YA?AU_CRT_DOUBLE@@AEAPEAD@Z 0000000140014cd0 f i libucrtd:output.obj
 0001:00013d40       ??$read_va_arg@_J@__crt_stdio_output@@YA_JAEAPEAD@Z 0000000140014d40 f i libucrtd:output.obj
 0001:00013db0       ??$read_va_arg@_K@__crt_stdio_output@@YA_KAEAPEAD@Z 0000000140014db0 f i libucrtd:output.obj
 0001:00013e20       ??$read_va_arg@_W@__crt_stdio_output@@YA_WAEAPEAD@Z 0000000140014e20 f i libucrtd:output.obj
 0001:00013e90       ??$scratch_count@D@formatting_buffer@__crt_stdio_output@@QEBA_KXZ 0000000140014e90 f i libucrtd:output.obj
 0001:00013eb0       ??$scratch_data@D@formatting_buffer@__crt_stdio_output@@QEAAPEADXZ 0000000140014eb0 f i libucrtd:output.obj
 0001:00013f20       ??$type_case_integer@$07@?$output_processor@DV?$string_output_adapter@D@__crt_stdio_output@@V?$format_validation_base@DV?$string_output_adapter@D@__crt_stdio_output@@@2@@__crt_stdio_output@@AEAA_N_N@Z 0000000140014f20 f i libucrtd:output.obj
 0001:000143a0       ??$type_case_integer@$07@?$output_processor@_WV?$string_output_adapter@_W@__crt_stdio_output@@V?$format_validation_base@_WV?$string_output_adapter@_W@__crt_stdio_output@@@2@@__crt_stdio_output@@AEAA_N_N@Z 00000001400153a0 f i libucrtd:output.obj
 0001:00014820       ??$type_case_integer@$09@?$output_processor@DV?$string_output_adapter@D@__crt_stdio_output@@V?$format_validation_base@DV?$string_output_adapter@D@__crt_stdio_output@@@2@@__crt_stdio_output@@AEAA_N_N@Z 0000000140015820 f i libucrtd:output.obj
 0001:00014ca0       ??$type_case_integer@$09@?$output_processor@_WV?$string_output_adapter@_W@__crt_stdio_output@@V?$format_validation_base@_WV?$string_output_adapter@_W@__crt_stdio_output@@@2@@__crt_stdio_output@@AEAA_N_N@Z 0000000140015ca0 f i libucrtd:output.obj
 0001:00015120       ??$type_case_integer@$0BA@@?$output_processor@DV?$string_output_adapter@D@__crt_stdio_output@@V?$format_validation_base@DV?$string_output_adapter@D@__crt_stdio_output@@@2@@__crt_stdio_output@@AEAA_N_N@Z 0000000140016120 f i libucrtd:output.obj
 0001:000155a0       ??$type_case_integer@$0BA@@?$output_processor@_WV?$string_output_adapter@_W@__crt_stdio_output@@V?$format_validation_base@_WV?$string_output_adapter@_W@__crt_stdio_output@@@2@@__crt_stdio_output@@AEAA_N_N@Z 00000001400165a0 f i libucrtd:output.obj
 0001:00015a20       ??$type_case_integer_parse_into_buffer@I$07@?$output_processor@DV?$string_output_adapter@D@__crt_stdio_output@@V?$format_validation_base@DV?$string_output_adapter@D@__crt_stdio_output@@@2@@__crt_stdio_output@@AEAAXI_N@Z 0000000140016a20 f i libucrtd:output.obj
 0001:00015b50       ??$type_case_integer_parse_into_buffer@I$07@?$output_processor@_WV?$string_output_adapter@_W@__crt_stdio_output@@V?$format_validation_base@_WV?$string_output_adapter@_W@__crt_stdio_output@@@2@@__crt_stdio_output@@AEAAXI_N@Z 0000000140016b50 f i libucrtd:output.obj
 0001:00015c90       ??$type_case_integer_parse_into_buffer@I$09@?$output_processor@DV?$string_output_adapter@D@__crt_stdio_output@@V?$format_validation_base@DV?$string_output_adapter@D@__crt_stdio_output@@@2@@__crt_stdio_output@@AEAAXI_N@Z 0000000140016c90 f i libucrtd:output.obj
 0001:00015dc0       ??$type_case_integer_parse_into_buffer@I$09@?$output_processor@_WV?$string_output_adapter@_W@__crt_stdio_output@@V?$format_validation_base@_WV?$string_output_adapter@_W@__crt_stdio_output@@@2@@__crt_stdio_output@@AEAAXI_N@Z 0000000140016dc0 f i libucrtd:output.obj
 0001:00015f00       ??$type_case_integer_parse_into_buffer@I$0BA@@?$output_processor@DV?$string_output_adapter@D@__crt_stdio_output@@V?$format_validation_base@DV?$string_output_adapter@D@__crt_stdio_output@@@2@@__crt_stdio_output@@AEAAXI_N@Z 0000000140016f00 f i libucrtd:output.obj
 0001:00016030       ??$type_case_integer_parse_into_buffer@I$0BA@@?$output_processor@_WV?$string_output_adapter@_W@__crt_stdio_output@@V?$format_validation_base@_WV?$string_output_adapter@_W@__crt_stdio_output@@@2@@__crt_stdio_output@@AEAAXI_N@Z 0000000140017030 f i libucrtd:output.obj
 0001:00016170       ??$type_case_integer_parse_into_buffer@_K$07@?$output_processor@DV?$string_output_adapter@D@__crt_stdio_output@@V?$format_validation_base@DV?$string_output_adapter@D@__crt_stdio_output@@@2@@__crt_stdio_output@@AEAAX_K_N@Z 0000000140017170 f i libucrtd:output.obj
 0001:000162b0       ??$type_case_integer_parse_into_buffer@_K$07@?$output_processor@_WV?$string_output_adapter@_W@__crt_stdio_output@@V?$format_validation_base@_WV?$string_output_adapter@_W@__crt_stdio_output@@@2@@__crt_stdio_output@@AEAAX_K_N@Z 00000001400172b0 f i libucrtd:output.obj
 0001:000163f0       ??$type_case_integer_parse_into_buffer@_K$09@?$output_processor@DV?$string_output_adapter@D@__crt_stdio_output@@V?$format_validation_base@DV?$string_output_adapter@D@__crt_stdio_output@@@2@@__crt_stdio_output@@AEAAX_K_N@Z 00000001400173f0 f i libucrtd:output.obj
 0001:00016530       ??$type_case_integer_parse_into_buffer@_K$09@?$output_processor@_WV?$string_output_adapter@_W@__crt_stdio_output@@V?$format_validation_base@_WV?$string_output_adapter@_W@__crt_stdio_output@@@2@@__crt_stdio_output@@AEAAX_K_N@Z 0000000140017530 f i libucrtd:output.obj
 0001:00016670       ??$type_case_integer_parse_into_buffer@_K$0BA@@?$output_processor@DV?$string_output_adapter@D@__crt_stdio_output@@V?$format_validation_base@DV?$string_output_adapter@D@__crt_stdio_output@@@2@@__crt_stdio_output@@AEAAX_K_N@Z 0000000140017670 f i libucrtd:output.obj
 0001:000167b0       ??$type_case_integer_parse_into_buffer@_K$0BA@@?$output_processor@_WV?$string_output_adapter@_W@__crt_stdio_output@@V?$format_validation_base@_WV?$string_output_adapter@_W@__crt_stdio_output@@@2@@__crt_stdio_output@@AEAAX_K_N@Z 00000001400177b0 f i libucrtd:output.obj
 0001:000168f0       ??$write_multiple_characters@V?$string_output_adapter@D@__crt_stdio_output@@D@__crt_stdio_output@@YAXAEBV?$string_output_adapter@D@0@DHQEAHAEAV__crt_cached_ptd_host@@@Z 00000001400178f0 f i libucrtd:output.obj
 0001:00016960       ??$write_multiple_characters@V?$string_output_adapter@_W@__crt_stdio_output@@D@__crt_stdio_output@@YAXAEBV?$string_output_adapter@_W@0@DHQEAHAEAV__crt_cached_ptd_host@@@Z 0000000140017960 f i libucrtd:output.obj
 0001:000169d0       ??0?$c_string_character_source@D@__crt_strtox@@QEAA@QEBDQEAPEBD@Z 00000001400179d0 f i libucrtd:output.obj
 0001:00016a20       ??0?$c_string_character_source@_W@__crt_strtox@@QEAA@QEB_WQEAPEB_W@Z 0000000140017a20 f i libucrtd:output.obj
 0001:00016a70       ??0?$cached@H@__crt_cached_ptd_host@@QEAA@XZ 0000000140017a70 f i libucrtd:output.obj
 0001:00016a90       ??0?$cached@K@__crt_cached_ptd_host@@QEAA@XZ 0000000140017a90 f i libucrtd:output.obj
 0001:00016ab0       ??0?$common_data@D@__crt_stdio_output@@IEAA@AEAV__crt_cached_ptd_host@@@Z 0000000140017ab0 f i libucrtd:output.obj
 0001:00016b70       ??0?$common_data@_W@__crt_stdio_output@@IEAA@AEAV__crt_cached_ptd_host@@@Z 0000000140017b70 f i libucrtd:output.obj
 0001:00016c30       ??0?$output_adapter_data@DV?$string_output_adapter@D@__crt_stdio_output@@@__crt_stdio_output@@IEAA@AEBV?$string_output_adapter@D@1@_KQEBDAEAV__crt_cached_ptd_host@@QEAD@Z 0000000140017c30 f i libucrtd:output.obj
 0001:00016cb0       ??0?$output_adapter_data@_WV?$string_output_adapter@_W@__crt_stdio_output@@@__crt_stdio_output@@IEAA@AEBV?$string_output_adapter@_W@1@_KQEB_WAEAV__crt_cached_ptd_host@@QEAD@Z 0000000140017cb0 f i libucrtd:output.obj
 0001:00016d30       ??0?$output_processor@DV?$string_output_adapter@D@__crt_stdio_output@@V?$format_validation_base@DV?$string_output_adapter@D@__crt_stdio_output@@@2@@__crt_stdio_output@@QEAA@AEBV?$string_output_adapter@D@1@_KQEBDAEAV__crt_cached_ptd_host@@QEAD@Z 0000000140017d30 f i libucrtd:output.obj
 0001:00016d80       ??0?$output_processor@_WV?$string_output_adapter@_W@__crt_stdio_output@@V?$format_validation_base@_WV?$string_output_adapter@_W@__crt_stdio_output@@@2@@__crt_stdio_output@@QEAA@AEBV?$string_output_adapter@_W@1@_KQEB_WAEAV__crt_cached_ptd_host@@QEAD@Z 0000000140017d80 f i libucrtd:output.obj
 0001:00016dd0       ??0?$string_output_adapter@D@__crt_stdio_output@@QEAA@QEAU?$string_output_adapter_context@D@1@@Z 0000000140017dd0 f i libucrtd:output.obj
 0001:00016df0       ??0?$string_output_adapter@_W@__crt_stdio_output@@QEAA@QEAU?$string_output_adapter_context@_W@1@@Z 0000000140017df0 f i libucrtd:output.obj
 0001:00016e10       ??0__crt_cached_ptd_host@@QEAA@QEAU__crt_locale_pointers@@@Z 0000000140017e10 f i libucrtd:output.obj
 0001:00016ed0       ??0__crt_scoped_get_last_error_reset@@QEAA@XZ 0000000140017ed0 f i libucrtd:output.obj
 0001:00016ef0       ??0__crt_stdio_stream@@QEAA@QEAU_iobuf@@@Z 0000000140017ef0 f i libucrtd:output.obj
 0001:00016f10       ??0formatting_buffer@__crt_stdio_output@@QEAA@XZ 0000000140017f10 f i libucrtd:output.obj
 0001:00016f50       ??0guard@?$cached@H@__crt_cached_ptd_host@@QEAA@AEAU12@@Z 0000000140017f50 f i libucrtd:output.obj
 0001:00016f90       ??1?$c_string_character_source@D@__crt_strtox@@QEAA@XZ 0000000140017f90 f i libucrtd:output.obj
 0001:00016fc0       ??1?$c_string_character_source@_W@__crt_strtox@@QEAA@XZ 0000000140017fc0 f i libucrtd:output.obj
 0001:00016ff0       ??1?$common_data@D@__crt_stdio_output@@QEAA@XZ 0000000140017ff0 f i libucrtd:output.obj
 0001:00017010       ??1?$common_data@_W@__crt_stdio_output@@QEAA@XZ 0000000140018010 f i libucrtd:output.obj
 0001:00017030       ??1?$format_validation_base@DV?$string_output_adapter@D@__crt_stdio_output@@@__crt_stdio_output@@QEAA@XZ 0000000140018030 f i libucrtd:output.obj
 0001:00017050       ??1?$format_validation_base@_WV?$string_output_adapter@_W@__crt_stdio_output@@@__crt_stdio_output@@QEAA@XZ 0000000140018050 f i libucrtd:output.obj
 0001:00017070       ??1?$output_adapter_data@DV?$string_output_adapter@D@__crt_stdio_output@@@__crt_stdio_output@@QEAA@XZ 0000000140018070 f i libucrtd:output.obj
 0001:00017090       ??1?$output_adapter_data@_WV?$string_output_adapter@_W@__crt_stdio_output@@@__crt_stdio_output@@QEAA@XZ 0000000140018090 f i libucrtd:output.obj
 0001:000170b0       ??1?$output_processor@DV?$string_output_adapter@D@__crt_stdio_output@@V?$format_validation_base@DV?$string_output_adapter@D@__crt_stdio_output@@@2@@__crt_stdio_output@@QEAA@XZ 00000001400180b0 f i libucrtd:output.obj
 0001:000170d0       ??1?$output_processor@_WV?$string_output_adapter@_W@__crt_stdio_output@@V?$format_validation_base@_WV?$string_output_adapter@_W@__crt_stdio_output@@@2@@__crt_stdio_output@@QEAA@XZ 00000001400180d0 f i libucrtd:output.obj
 0001:000170f0       ??1?$standard_base@DV?$string_output_adapter@D@__crt_stdio_output@@@__crt_stdio_output@@QEAA@XZ 00000001400180f0 f i libucrtd:output.obj
 0001:00017110       ??1?$standard_base@_WV?$string_output_adapter@_W@__crt_stdio_output@@@__crt_stdio_output@@QEAA@XZ 0000000140018110 f i libucrtd:output.obj
 0001:00017130       ??1__crt_cached_ptd_host@@QEAA@XZ 0000000140018130 f i libucrtd:output.obj
 0001:000171e0       ??1__crt_scoped_get_last_error_reset@@QEAA@XZ 00000001400181e0 f i libucrtd:output.obj
 0001:00017200       ??1formatting_buffer@__crt_stdio_output@@QEAA@XZ 0000000140018200 f i libucrtd:output.obj
 0001:00017230       ??1guard@?$cached@H@__crt_cached_ptd_host@@QEAA@XZ 0000000140018230 f i libucrtd:output.obj
 0001:00017260       ??4?$__crt_unique_heap_ptr@DU__crt_internal_free_policy@@@@QEAAAEAV0@$$QEAV0@@Z 0000000140018260 f i libucrtd:output.obj
 0001:000172a0       ??A?$spectre_mitigated_lookup_table@Ustate_transition_pair@__crt_stdio_output@@$0IA@@__crt_stdio_output@@QEBAAEBUstate_transition_pair@1@_K@Z 00000001400182a0 f i libucrtd:output.obj
 0001:000172c0       ??C__crt_stdio_stream@@QEBAPEAU__crt_stdio_stream_data@@XZ 00000001400182c0 f i libucrtd:output.obj
 0001:000172d0       ?adjust_hexit@?$output_processor@DV?$string_output_adapter@D@__crt_stdio_output@@V?$format_validation_base@DV?$string_output_adapter@D@__crt_stdio_output@@@2@@__crt_stdio_output@@CADH_N@Z 00000001400182d0 f i libucrtd:output.obj
 0001:00017320       ?adjust_hexit@?$output_processor@_WV?$string_output_adapter@_W@__crt_stdio_output@@V?$format_validation_base@_WV?$string_output_adapter@_W@__crt_stdio_output@@@2@@__crt_stdio_output@@CADH_N@Z 0000000140018320 f i libucrtd:output.obj
 0001:00017370       ?advance_to_next_pass@?$standard_base@DV?$string_output_adapter@D@__crt_stdio_output@@@__crt_stdio_output@@IEAA_NXZ 0000000140018370 f i libucrtd:output.obj
 0001:000173c0       ?advance_to_next_pass@?$standard_base@_WV?$string_output_adapter@_W@__crt_stdio_output@@@__crt_stdio_output@@IEAA_NXZ 00000001400183c0 f i libucrtd:output.obj
 0001:00017410       ?check@?$cached@H@__crt_cached_ptd_host@@QEBA_NH@Z 0000000140018410 f i libucrtd:output.obj
 0001:00017450       ?check_synchronize_global_state_index@__crt_cached_ptd_host@@AEAA_KAEBV__crt_scoped_get_last_error_reset@@@Z 0000000140018450 f i libucrtd:output.obj
 0001:00017490       ?check_synchronize_per_thread_data@__crt_cached_ptd_host@@AEAAPEAU__acrt_ptd@@XZ 0000000140018490 f i libucrtd:output.obj
 0001:000174d0       ?create_guard@?$cached@H@__crt_cached_ptd_host@@QEAA?AVguard@12@XZ 00000001400184d0 f i libucrtd:output.obj
 0001:00017500       ?crop_zeroes@__crt_stdio_output@@YAXPEADQEAU__crt_locale_pointers@@@Z 0000000140018500 f i libucrtd:output.obj
 0001:00017650       ?disable@guard@?$cached@H@__crt_cached_ptd_host@@QEAAXXZ 0000000140018650 f i libucrtd:output.obj
 0001:00017660       ?enable@guard@?$cached@H@__crt_cached_ptd_host@@QEAAXXZ 0000000140018660 f i libucrtd:output.obj
 0001:00017670       ?find_next_state@?$output_processor@DV?$string_output_adapter@D@__crt_stdio_output@@V?$format_validation_base@DV?$string_output_adapter@D@__crt_stdio_output@@@2@@__crt_stdio_output@@AEBA?AW4state@2@DW432@@Z 0000000140018670 f i libucrtd:output.obj
 0001:00017710       ?find_next_state@?$output_processor@_WV?$string_output_adapter@_W@__crt_stdio_output@@V?$format_validation_base@_WV?$string_output_adapter@_W@__crt_stdio_output@@@2@@__crt_stdio_output@@AEBA?AW4state@2@_WW432@@Z 0000000140018710 f i libucrtd:output.obj
 0001:000177b0       ?force_decimal_point@__crt_stdio_output@@YAXPEADQEAU__crt_locale_pointers@@@Z 00000001400187b0 f i libucrtd:output.obj
 0001:000178b0       ?force_synchronize_global_state_index@__crt_cached_ptd_host@@AEAA_KAEBV__crt_scoped_get_last_error_reset@@@Z 00000001400188b0 f i libucrtd:output.obj
 0001:000178f0       ?force_synchronize_per_thread_data@__crt_cached_ptd_host@@AEAAPEAU__acrt_ptd@@XZ 00000001400188f0 f i libucrtd:output.obj
 0001:00017950       ?get@?$c_string_character_source@D@__crt_strtox@@QEAADXZ 0000000140018950 f i libucrtd:output.obj
 0001:00017990       ?get@?$c_string_character_source@_W@__crt_strtox@@QEAA_WXZ 0000000140018990 f i libucrtd:output.obj
 0001:000179d0       ?get_current_state_index@__crt_state_management@@YA_KAEBV__crt_scoped_get_last_error_reset@@@Z 00000001400189d0 f i libucrtd:output.obj
 0001:000179e0       ?get_errno@__crt_cached_ptd_host@@QEAAAEAU?$cached@H@1@XZ 00000001400189e0 f i libucrtd:output.obj
 0001:000179f0       ?get_flags@__crt_stdio_stream@@QEBAJXZ 00000001400189f0 f i libucrtd:output.obj
 0001:00017a20       ?get_locale@__crt_cached_ptd_host@@QEAAPEAU__crt_locale_pointers@@XZ 0000000140018a20 f i libucrtd:output.obj
 0001:00017a50       ?get_raw_ptd@__crt_cached_ptd_host@@QEAAPEAU__acrt_ptd@@XZ 0000000140018a50 f i libucrtd:output.obj
 0001:00017a70       ?has_flag@?$output_processor@DV?$string_output_adapter@D@__crt_stdio_output@@V?$format_validation_base@DV?$string_output_adapter@D@__crt_stdio_output@@@2@@__crt_stdio_output@@AEBA_NI@Z 0000000140018a70 f i libucrtd:output.obj
 0001:00017ab0       ?has_flag@?$output_processor@_WV?$string_output_adapter@_W@__crt_stdio_output@@V?$format_validation_base@_WV?$string_output_adapter@_W@__crt_stdio_output@@@2@@__crt_stdio_output@@AEBA_NI@Z 0000000140018ab0 f i libucrtd:output.obj
 0001:00017af0       ?is_string_backed@__crt_stdio_stream@@QEBA_NXZ 0000000140018af0 f i libucrtd:output.obj
 0001:00017b30       ?maximum_signed_value@__crt_strtox@@YAJK@Z 0000000140018b30 f i libucrtd:output.obj
 0001:00017b40       ?minimum_signed_value@__crt_strtox@@YAJK@Z 0000000140018b40 f i libucrtd:output.obj
 0001:00017b50       ?narrow_null_string@?$output_processor@DV?$string_output_adapter@D@__crt_stdio_output@@V?$format_validation_base@DV?$string_output_adapter@D@__crt_stdio_output@@@2@@__crt_stdio_output@@CAPEADXZ 0000000140018b50 f i libucrtd:output.obj
 0001:00017b60       ?narrow_null_string@?$output_processor@_WV?$string_output_adapter@_W@__crt_stdio_output@@V?$format_validation_base@_WV?$string_output_adapter@_W@__crt_stdio_output@@@2@@__crt_stdio_output@@CAPEADXZ 0000000140018b60 f i libucrtd:output.obj
 0001:00017b70       ?parse_digit@__crt_strtox@@YAID@Z 0000000140018b70 f i libucrtd:output.obj
 0001:00017be0       ?parse_digit@__crt_strtox@@YAI_W@Z 0000000140018be0 f i libucrtd:output.obj
 0001:00017c30       ?parse_int_from_format_string@?$output_processor@DV?$string_output_adapter@D@__crt_stdio_output@@V?$format_validation_base@DV?$string_output_adapter@D@__crt_stdio_output@@@2@@__crt_stdio_output@@AEAA_NQEAH@Z 0000000140018c30 f i libucrtd:output.obj
 0001:00017d30       ?parse_int_from_format_string@?$output_processor@_WV?$string_output_adapter@_W@__crt_stdio_output@@V?$format_validation_base@_WV?$string_output_adapter@_W@__crt_stdio_output@@@2@@__crt_stdio_output@@AEAA_NQEAH@Z 0000000140018d30 f i libucrtd:output.obj
 0001:00017e30       ?process@?$output_processor@DV?$string_output_adapter@D@__crt_stdio_output@@V?$format_validation_base@DV?$string_output_adapter@D@__crt_stdio_output@@@2@@__crt_stdio_output@@QEAAHXZ 0000000140018e30 f i libucrtd:output.obj
 0001:000181f0       ?process@?$output_processor@_WV?$string_output_adapter@_W@__crt_stdio_output@@V?$format_validation_base@_WV?$string_output_adapter@_W@__crt_stdio_output@@@2@@__crt_stdio_output@@QEAAHXZ 00000001400191f0 f i libucrtd:output.obj
 0001:000185b0       ?public_stream@__crt_stdio_stream@@QEBAPEAU_iobuf@@XZ 00000001400195b0 f i libucrtd:output.obj
 0001:000185c0       ?restore_state@?$c_string_character_source@D@__crt_strtox@@QEAA_NQEBD@Z 00000001400195c0 f i libucrtd:output.obj
 0001:000185e0       ?restore_state@?$c_string_character_source@_W@__crt_strtox@@QEAA_NQEB_W@Z 00000001400195e0 f i libucrtd:output.obj
 0001:00018600       ?save_state@?$c_string_character_source@D@__crt_strtox@@QEBAPEBDXZ 0000000140019600 f i libucrtd:output.obj
 0001:00018610       ?save_state@?$c_string_character_source@_W@__crt_strtox@@QEBAPEB_WXZ 0000000140019610 f i libucrtd:output.obj
 0001:00018620       ?set@?$cached@H@__crt_cached_ptd_host@@QEAAHH@Z 0000000140019620 f i libucrtd:output.obj
 0001:00018650       ?set_flag@?$output_processor@DV?$string_output_adapter@D@__crt_stdio_output@@V?$format_validation_base@DV?$string_output_adapter@D@__crt_stdio_output@@@2@@__crt_stdio_output@@AEAAXI@Z 0000000140019650 f i libucrtd:output.obj
 0001:00018670       ?set_flag@?$output_processor@_WV?$string_output_adapter@_W@__crt_stdio_output@@V?$format_validation_base@_WV?$string_output_adapter@_W@__crt_stdio_output@@@2@@__crt_stdio_output@@AEAAXI@Z 0000000140019670 f i libucrtd:output.obj
 0001:00018690       ?should_format@?$standard_base@DV?$string_output_adapter@D@__crt_stdio_output@@@__crt_stdio_output@@IEAA_NXZ 0000000140019690 f i libucrtd:output.obj
 0001:000186a0       ?should_format@?$standard_base@_WV?$string_output_adapter@_W@__crt_stdio_output@@@__crt_stdio_output@@IEAA_NXZ 00000001400196a0 f i libucrtd:output.obj
 0001:000186b0       ?should_skip_normal_state_processing@?$standard_base@DV?$string_output_adapter@D@__crt_stdio_output@@@__crt_stdio_output@@IEAA_NXZ 00000001400196b0 f i libucrtd:output.obj
 0001:000186c0       ?should_skip_normal_state_processing@?$standard_base@_WV?$string_output_adapter@_W@__crt_stdio_output@@@__crt_stdio_output@@IEAA_NXZ 00000001400196c0 f i libucrtd:output.obj
 0001:000186d0       ?should_skip_type_state_output@?$standard_base@DV?$string_output_adapter@D@__crt_stdio_output@@@__crt_stdio_output@@IEBA_NXZ 00000001400196d0 f i libucrtd:output.obj
 0001:000186e0       ?should_skip_type_state_output@?$standard_base@_WV?$string_output_adapter@_W@__crt_stdio_output@@@__crt_stdio_output@@IEBA_NXZ 00000001400196e0 f i libucrtd:output.obj
 0001:000186f0       ?state_case_dot@?$output_processor@DV?$string_output_adapter@D@__crt_stdio_output@@V?$format_validation_base@DV?$string_output_adapter@D@__crt_stdio_output@@@2@@__crt_stdio_output@@AEAA_NXZ 00000001400196f0 f i libucrtd:output.obj
 0001:00018710       ?state_case_dot@?$output_processor@_WV?$string_output_adapter@_W@__crt_stdio_output@@V?$format_validation_base@_WV?$string_output_adapter@_W@__crt_stdio_output@@@2@@__crt_stdio_output@@AEAA_NXZ 0000000140019710 f i libucrtd:output.obj
 0001:00018730       ?state_case_flag@?$output_processor@DV?$string_output_adapter@D@__crt_stdio_output@@V?$format_validation_base@DV?$string_output_adapter@D@__crt_stdio_output@@@2@@__crt_stdio_output@@AEAA_NXZ 0000000140019730 f i libucrtd:output.obj
 0001:000187d0       ?state_case_flag@?$output_processor@_WV?$string_output_adapter@_W@__crt_stdio_output@@V?$format_validation_base@_WV?$string_output_adapter@_W@__crt_stdio_output@@@2@@__crt_stdio_output@@AEAA_NXZ 00000001400197d0 f i libucrtd:output.obj
 0001:00018870       ?state_case_normal@?$output_processor@DV?$string_output_adapter@D@__crt_stdio_output@@V?$format_validation_base@DV?$string_output_adapter@D@__crt_stdio_output@@@2@@__crt_stdio_output@@AEAA_NXZ 0000000140019870 f i libucrtd:output.obj
 0001:00018970       ?state_case_normal@?$output_processor@_WV?$string_output_adapter@_W@__crt_stdio_output@@V?$format_validation_base@_WV?$string_output_adapter@_W@__crt_stdio_output@@@2@@__crt_stdio_output@@AEAA_NXZ 0000000140019970 f i libucrtd:output.obj
 0001:00018a70       ?state_case_normal_common@?$output_processor@DV?$string_output_adapter@D@__crt_stdio_output@@V?$format_validation_base@DV?$string_output_adapter@D@__crt_stdio_output@@@2@@__crt_stdio_output@@AEAA_NXZ 0000000140019a70 f i libucrtd:output.obj
 0001:00018ad0       ?state_case_normal_common@?$output_processor@_WV?$string_output_adapter@_W@__crt_stdio_output@@V?$format_validation_base@_WV?$string_output_adapter@_W@__crt_stdio_output@@@2@@__crt_stdio_output@@AEAA_NXZ 0000000140019ad0 f i libucrtd:output.obj
 0001:00018b30       ?state_case_normal_tchar@?$output_processor@DV?$string_output_adapter@D@__crt_stdio_output@@V?$format_validation_base@DV?$string_output_adapter@D@__crt_stdio_output@@@2@@__crt_stdio_output@@AEAA_ND@Z 0000000140019b30 f i libucrtd:output.obj
 0001:00018cc0       ?state_case_normal_tchar@?$output_processor@_WV?$string_output_adapter@_W@__crt_stdio_output@@V?$format_validation_base@_WV?$string_output_adapter@_W@__crt_stdio_output@@@2@@__crt_stdio_output@@AEAA_N_W@Z 0000000140019cc0 f i libucrtd:output.obj
 0001:00018ce0       ?state_case_percent@?$output_processor@DV?$string_output_adapter@D@__crt_stdio_output@@V?$format_validation_base@DV?$string_output_adapter@D@__crt_stdio_output@@@2@@__crt_stdio_output@@AEAA_NXZ 0000000140019ce0 f i libucrtd:output.obj
 0001:00018d30       ?state_case_percent@?$output_processor@_WV?$string_output_adapter@_W@__crt_stdio_output@@V?$format_validation_base@_WV?$string_output_adapter@_W@__crt_stdio_output@@@2@@__crt_stdio_output@@AEAA_NXZ 0000000140019d30 f i libucrtd:output.obj
 0001:00018d80       ?state_case_precision@?$output_processor@DV?$string_output_adapter@D@__crt_stdio_output@@V?$format_validation_base@DV?$string_output_adapter@D@__crt_stdio_output@@@2@@__crt_stdio_output@@AEAA_NXZ 0000000140019d80 f i libucrtd:output.obj
 0001:00018e00       ?state_case_precision@?$output_processor@_WV?$string_output_adapter@_W@__crt_stdio_output@@V?$format_validation_base@_WV?$string_output_adapter@_W@__crt_stdio_output@@@2@@__crt_stdio_output@@AEAA_NXZ 0000000140019e00 f i libucrtd:output.obj
 0001:00018e80       ?state_case_size@?$output_processor@DV?$string_output_adapter@D@__crt_stdio_output@@V?$format_validation_base@DV?$string_output_adapter@D@__crt_stdio_output@@@2@@__crt_stdio_output@@AEAA_NXZ 0000000140019e80 f i libucrtd:output.obj
 0001:00019340       ?state_case_size@?$output_processor@_WV?$string_output_adapter@_W@__crt_stdio_output@@V?$format_validation_base@_WV?$string_output_adapter@_W@__crt_stdio_output@@@2@@__crt_stdio_output@@AEAA_NXZ 000000014001a340 f i libucrtd:output.obj
 0001:00019800       ?state_case_type@?$output_processor@DV?$string_output_adapter@D@__crt_stdio_output@@V?$format_validation_base@DV?$string_output_adapter@D@__crt_stdio_output@@@2@@__crt_stdio_output@@AEAA_NXZ 000000014001a800 f i libucrtd:output.obj
 0001:00019cc0       ?state_case_type@?$output_processor@_WV?$string_output_adapter@_W@__crt_stdio_output@@V?$format_validation_base@_WV?$string_output_adapter@_W@__crt_stdio_output@@@2@@__crt_stdio_output@@AEAA_NXZ 000000014001acc0 f i libucrtd:output.obj
 0001:0001a250       ?state_case_width@?$output_processor@DV?$string_output_adapter@D@__crt_stdio_output@@V?$format_validation_base@DV?$string_output_adapter@D@__crt_stdio_output@@@2@@__crt_stdio_output@@AEAA_NXZ 000000014001b250 f i libucrtd:output.obj
 0001:0001a2e0       ?state_case_width@?$output_processor@_WV?$string_output_adapter@_W@__crt_stdio_output@@V?$format_validation_base@_WV?$string_output_adapter@_W@__crt_stdio_output@@@2@@__crt_stdio_output@@AEAA_NXZ 000000014001b2e0 f i libucrtd:output.obj
 0001:0001a370       ?state_count@?$format_validation_base@DV?$string_output_adapter@D@__crt_stdio_output@@@__crt_stdio_output@@KAIXZ 000000014001b370 f i libucrtd:output.obj
 0001:0001a380       ?state_count@?$format_validation_base@_WV?$string_output_adapter@_W@__crt_stdio_output@@@__crt_stdio_output@@KAIXZ 000000014001b380 f i libucrtd:output.obj
 0001:0001a390       ?state_transition_table@?$format_validation_base@DV?$string_output_adapter@D@__crt_stdio_output@@@__crt_stdio_output@@KAAEBV?$spectre_mitigated_lookup_table@Ustate_transition_pair@__crt_stdio_output@@$0IA@@2@XZ 000000014001b390 f i libucrtd:output.obj
 0001:0001a3a0       ?state_transition_table@?$format_validation_base@_WV?$string_output_adapter@_W@__crt_stdio_output@@@__crt_stdio_output@@KAAEBV?$spectre_mitigated_lookup_table@Ustate_transition_pair@__crt_stdio_output@@$0IA@@2@XZ 000000014001b3a0 f i libucrtd:output.obj
 0001:0001a3b0       ?tchar_string@?$common_data@D@__crt_stdio_output@@IEAAAEAPEADD@Z 000000014001b3b0 f i libucrtd:output.obj
 0001:0001a3d0       ?tchar_string@?$common_data@D@__crt_stdio_output@@IEAAAEAPEADXZ 000000014001b3d0 f i libucrtd:output.obj
 0001:0001a3f0       ?tchar_string@?$common_data@_W@__crt_stdio_output@@IEAAAEAPEA_WXZ 000000014001b3f0 f i libucrtd:output.obj
 0001:0001a410       ?tchar_string@?$common_data@_W@__crt_stdio_output@@IEAAAEAPEA_W_W@Z 000000014001b410 f i libucrtd:output.obj
 0001:0001a430       ?to_integer_size@__crt_stdio_output@@YA_KW4length_modifier@1@@Z 000000014001b430 f i libucrtd:output.obj
 0001:0001a4e0       ?type_case_X@?$output_processor@DV?$string_output_adapter@D@__crt_stdio_output@@V?$format_validation_base@DV?$string_output_adapter@D@__crt_stdio_output@@@2@@__crt_stdio_output@@AEAA_NXZ 000000014001b4e0 f i libucrtd:output.obj
 0001:0001a500       ?type_case_X@?$output_processor@_WV?$string_output_adapter@_W@__crt_stdio_output@@V?$format_validation_base@_WV?$string_output_adapter@_W@__crt_stdio_output@@@2@@__crt_stdio_output@@AEAA_NXZ 000000014001b500 f i libucrtd:output.obj
 0001:0001a520       ?type_case_Z@?$output_processor@DV?$string_output_adapter@D@__crt_stdio_output@@V?$format_validation_base@DV?$string_output_adapter@D@__crt_stdio_output@@@2@@__crt_stdio_output@@AEAA_NXZ 000000014001b520 f i libucrtd:output.obj
 0001:0001a640       ?type_case_Z@?$output_processor@_WV?$string_output_adapter@_W@__crt_stdio_output@@V?$format_validation_base@_WV?$string_output_adapter@_W@__crt_stdio_output@@@2@@__crt_stdio_output@@AEAA_NXZ 000000014001b640 f i libucrtd:output.obj
 0001:0001a760       ?type_case_a@?$output_processor@DV?$string_output_adapter@D@__crt_stdio_output@@V?$format_validation_base@DV?$string_output_adapter@D@__crt_stdio_output@@@2@@__crt_stdio_output@@AEAA_NXZ 000000014001b760 f i libucrtd:output.obj
 0001:0001abc0       ?type_case_a@?$output_processor@_WV?$string_output_adapter@_W@__crt_stdio_output@@V?$format_validation_base@_WV?$string_output_adapter@_W@__crt_stdio_output@@@2@@__crt_stdio_output@@AEAA_NXZ 000000014001bbc0 f i libucrtd:output.obj
 0001:0001b030       ?type_case_c@?$output_processor@DV?$string_output_adapter@D@__crt_stdio_output@@V?$format_validation_base@DV?$string_output_adapter@D@__crt_stdio_output@@@2@@__crt_stdio_output@@AEAA_NXZ 000000014001c030 f i libucrtd:output.obj
 0001:0001b050       ?type_case_c@?$output_processor@_WV?$string_output_adapter@_W@__crt_stdio_output@@V?$format_validation_base@_WV?$string_output_adapter@_W@__crt_stdio_output@@@2@@__crt_stdio_output@@AEAA_NXZ 000000014001c050 f i libucrtd:output.obj
 0001:0001b070       ?type_case_c_tchar@?$output_processor@DV?$string_output_adapter@D@__crt_stdio_output@@V?$format_validation_base@DV?$string_output_adapter@D@__crt_stdio_output@@@2@@__crt_stdio_output@@AEAA_ND@Z 000000014001c070 f i libucrtd:output.obj
 0001:0001b1e0       ?type_case_c_tchar@?$output_processor@_WV?$string_output_adapter@_W@__crt_stdio_output@@V?$format_validation_base@_WV?$string_output_adapter@_W@__crt_stdio_output@@@2@@__crt_stdio_output@@AEAA_N_W@Z 000000014001c1e0 f i libucrtd:output.obj
 0001:0001b340       ?type_case_d@?$output_processor@DV?$string_output_adapter@D@__crt_stdio_output@@V?$format_validation_base@DV?$string_output_adapter@D@__crt_stdio_output@@@2@@__crt_stdio_output@@AEAA_NXZ 000000014001c340 f i libucrtd:output.obj
 0001:0001b370       ?type_case_d@?$output_processor@_WV?$string_output_adapter@_W@__crt_stdio_output@@V?$format_validation_base@_WV?$string_output_adapter@_W@__crt_stdio_output@@@2@@__crt_stdio_output@@AEAA_NXZ 000000014001c370 f i libucrtd:output.obj
 0001:0001b3a0       ?type_case_n@?$output_processor@DV?$string_output_adapter@D@__crt_stdio_output@@V?$format_validation_base@DV?$string_output_adapter@D@__crt_stdio_output@@@2@@__crt_stdio_output@@AEAA_NXZ 000000014001c3a0 f i libucrtd:output.obj
 0001:0001b630       ?type_case_n@?$output_processor@_WV?$string_output_adapter@_W@__crt_stdio_output@@V?$format_validation_base@_WV?$string_output_adapter@_W@__crt_stdio_output@@@2@@__crt_stdio_output@@AEAA_NXZ 000000014001c630 f i libucrtd:output.obj
 0001:0001b8c0       ?type_case_o@?$output_processor@DV?$string_output_adapter@D@__crt_stdio_output@@V?$format_validation_base@DV?$string_output_adapter@D@__crt_stdio_output@@@2@@__crt_stdio_output@@AEAA_NXZ 000000014001c8c0 f i libucrtd:output.obj
 0001:0001b900       ?type_case_o@?$output_processor@_WV?$string_output_adapter@_W@__crt_stdio_output@@V?$format_validation_base@_WV?$string_output_adapter@_W@__crt_stdio_output@@@2@@__crt_stdio_output@@AEAA_NXZ 000000014001c900 f i libucrtd:output.obj
 0001:0001b940       ?type_case_p@?$output_processor@DV?$string_output_adapter@D@__crt_stdio_output@@V?$format_validation_base@DV?$string_output_adapter@D@__crt_stdio_output@@@2@@__crt_stdio_output@@AEAA_NXZ 000000014001c940 f i libucrtd:output.obj
 0001:0001b980       ?type_case_p@?$output_processor@_WV?$string_output_adapter@_W@__crt_stdio_output@@V?$format_validation_base@_WV?$string_output_adapter@_W@__crt_stdio_output@@@2@@__crt_stdio_output@@AEAA_NXZ 000000014001c980 f i libucrtd:output.obj
 0001:0001b9c0       ?type_case_s@?$output_processor@DV?$string_output_adapter@D@__crt_stdio_output@@V?$format_validation_base@DV?$string_output_adapter@D@__crt_stdio_output@@@2@@__crt_stdio_output@@AEAA_NXZ 000000014001c9c0 f i libucrtd:output.obj
 0001:0001bae0       ?type_case_s@?$output_processor@_WV?$string_output_adapter@_W@__crt_stdio_output@@V?$format_validation_base@_WV?$string_output_adapter@_W@__crt_stdio_output@@@2@@__crt_stdio_output@@AEAA_NXZ 000000014001cae0 f i libucrtd:output.obj
 0001:0001bc00       ?type_case_s_compute_narrow_string_length@?$output_processor@DV?$string_output_adapter@D@__crt_stdio_output@@V?$format_validation_base@DV?$string_output_adapter@D@__crt_stdio_output@@@2@@__crt_stdio_output@@AEAAHHD@Z 000000014001cc00 f i libucrtd:output.obj
 0001:0001bc30       ?type_case_s_compute_narrow_string_length@?$output_processor@_WV?$string_output_adapter@_W@__crt_stdio_output@@V?$format_validation_base@_WV?$string_output_adapter@_W@__crt_stdio_output@@@2@@__crt_stdio_output@@AEAAHH_W@Z 000000014001cc30 f i libucrtd:output.obj
 0001:0001bcd0       ?type_case_u@?$output_processor@DV?$string_output_adapter@D@__crt_stdio_output@@V?$format_validation_base@DV?$string_output_adapter@D@__crt_stdio_output@@@2@@__crt_stdio_output@@AEAA_NXZ 000000014001ccd0 f i libucrtd:output.obj
 0001:0001bcf0       ?type_case_u@?$output_processor@_WV?$string_output_adapter@_W@__crt_stdio_output@@V?$format_validation_base@_WV?$string_output_adapter@_W@__crt_stdio_output@@@2@@__crt_stdio_output@@AEAA_NXZ 000000014001ccf0 f i libucrtd:output.obj
 0001:0001bd10       ?type_case_x@?$output_processor@DV?$string_output_adapter@D@__crt_stdio_output@@V?$format_validation_base@DV?$string_output_adapter@D@__crt_stdio_output@@@2@@__crt_stdio_output@@AEAA_NXZ 000000014001cd10 f i libucrtd:output.obj
 0001:0001bd30       ?type_case_x@?$output_processor@_WV?$string_output_adapter@_W@__crt_stdio_output@@V?$format_validation_base@_WV?$string_output_adapter@_W@__crt_stdio_output@@@2@@__crt_stdio_output@@AEAA_NXZ 000000014001cd30 f i libucrtd:output.obj
 0001:0001bd50       ?unget@?$c_string_character_source@D@__crt_strtox@@QEAAXD@Z 000000014001cd50 f i libucrtd:output.obj
 0001:0001be30       ?unget@?$c_string_character_source@_W@__crt_strtox@@QEAAX_W@Z 000000014001ce30 f i libucrtd:output.obj
 0001:0001bf10       ?unsafe_value@?$cached@H@__crt_cached_ptd_host@@QEAAHXZ 000000014001cf10 f i libucrtd:output.obj
 0001:0001bf20       ?unsafe_value@?$cached@K@__crt_cached_ptd_host@@QEAAKXZ 000000014001cf20 f i libucrtd:output.obj
 0001:0001bf30       ?unset_flag@?$output_processor@DV?$string_output_adapter@D@__crt_stdio_output@@V?$format_validation_base@DV?$string_output_adapter@D@__crt_stdio_output@@@2@@__crt_stdio_output@@AEAAXI@Z 000000014001cf30 f i libucrtd:output.obj
 0001:0001bf60       ?unset_flag@?$output_processor@_WV?$string_output_adapter@_W@__crt_stdio_output@@V?$format_validation_base@_WV?$string_output_adapter@_W@__crt_stdio_output@@@2@@__crt_stdio_output@@AEAAXI@Z 000000014001cf60 f i libucrtd:output.obj
 0001:0001bf90       ?update_field_width@?$standard_base@DV?$string_output_adapter@D@__crt_stdio_output@@@__crt_stdio_output@@IEAA_NXZ 000000014001cf90 f i libucrtd:output.obj
 0001:0001bfc0       ?update_field_width@?$standard_base@_WV?$string_output_adapter@_W@__crt_stdio_output@@@__crt_stdio_output@@IEAA_NXZ 000000014001cfc0 f i libucrtd:output.obj
 0001:0001bff0       ?update_locale@__crt_cached_ptd_host@@AEAAXXZ 000000014001cff0 f i libucrtd:output.obj
 0001:0001c020       ?update_locale_slow@__crt_cached_ptd_host@@AEAAXXZ 000000014001d020 f i libucrtd:output.obj
 0001:0001c0d0       ?update_precision@?$standard_base@DV?$string_output_adapter@D@__crt_stdio_output@@@__crt_stdio_output@@IEAA_NXZ 000000014001d0d0 f i libucrtd:output.obj
 0001:0001c100       ?update_precision@?$standard_base@_WV?$string_output_adapter@_W@__crt_stdio_output@@@__crt_stdio_output@@IEAA_NXZ 000000014001d100 f i libucrtd:output.obj
 0001:0001c130       ?valid@?$cached@H@__crt_cached_ptd_host@@QEBA_NXZ 000000014001d130 f i libucrtd:output.obj
 0001:0001c140       ?valid@?$cached@K@__crt_cached_ptd_host@@QEBA_NXZ 000000014001d140 f i libucrtd:output.obj
 0001:0001c150       ?valid@__crt_stdio_stream@@QEBA_NXZ 000000014001d150 f i libucrtd:output.obj
 0001:0001c180       ?validate@?$c_string_character_source@D@__crt_strtox@@QEBA_NXZ 000000014001d180 f i libucrtd:output.obj
 0001:0001c240       ?validate@?$c_string_character_source@_W@__crt_strtox@@QEBA_NXZ 000000014001d240 f i libucrtd:output.obj
 0001:0001c300       ?validate@?$string_output_adapter@D@__crt_stdio_output@@QEBA_NAEAV__crt_cached_ptd_host@@@Z 000000014001d300 f i libucrtd:output.obj
 0001:0001c3e0       ?validate@?$string_output_adapter@_W@__crt_stdio_output@@QEBA_NAEAV__crt_cached_ptd_host@@@Z 000000014001d3e0 f i libucrtd:output.obj
 0001:0001c4c0       ?validate_and_update_state_at_beginning_of_format_character@?$standard_base@DV?$string_output_adapter@D@__crt_stdio_output@@@__crt_stdio_output@@IEAA_NXZ 000000014001d4c0 f i libucrtd:output.obj
 0001:0001c4d0       ?validate_and_update_state_at_beginning_of_format_character@?$standard_base@_WV?$string_output_adapter@_W@__crt_stdio_output@@@__crt_stdio_output@@IEAA_NXZ 000000014001d4d0 f i libucrtd:output.obj
 0001:0001c4e0       ?validate_and_update_state_at_end_of_format_string@?$format_validation_base@DV?$string_output_adapter@D@__crt_stdio_output@@@__crt_stdio_output@@IEAA_NXZ 000000014001d4e0 f i libucrtd:output.obj
 0001:0001c5d0       ?validate_and_update_state_at_end_of_format_string@?$format_validation_base@_WV?$string_output_adapter@_W@__crt_stdio_output@@@__crt_stdio_output@@IEAA_NXZ 000000014001d5d0 f i libucrtd:output.obj
 0001:0001c6c0       ?validate_state_for_type_case_a@?$standard_base@DV?$string_output_adapter@D@__crt_stdio_output@@@__crt_stdio_output@@IEBA_NXZ 000000014001d6c0 f i libucrtd:output.obj
 0001:0001c6d0       ?validate_state_for_type_case_a@?$standard_base@_WV?$string_output_adapter@_W@__crt_stdio_output@@@__crt_stdio_output@@IEBA_NXZ 000000014001d6d0 f i libucrtd:output.obj
 0001:0001c6e0       ?wide_character_to_digit@__crt_strtox@@YAH_W@Z 000000014001d6e0 f i libucrtd:output.obj
 0001:0001ca50       ?wide_null_string@?$output_processor@DV?$string_output_adapter@D@__crt_stdio_output@@V?$format_validation_base@DV?$string_output_adapter@D@__crt_stdio_output@@@2@@__crt_stdio_output@@CAPEA_WXZ 000000014001da50 f i libucrtd:output.obj
 0001:0001ca60       ?wide_null_string@?$output_processor@_WV?$string_output_adapter@_W@__crt_stdio_output@@V?$format_validation_base@_WV?$string_output_adapter@_W@__crt_stdio_output@@@2@@__crt_stdio_output@@CAPEA_WXZ 000000014001da60 f i libucrtd:output.obj
 0001:0001ca70       ?write_character@?$string_output_adapter@D@__crt_stdio_output@@QEBA_NDQEAHAEAV__crt_cached_ptd_host@@@Z 000000014001da70 f i libucrtd:output.obj
 0001:0001cb40       ?write_character@?$string_output_adapter@_W@__crt_stdio_output@@QEBA_N_WQEAHAEAV__crt_cached_ptd_host@@@Z 000000014001db40 f i libucrtd:output.obj
 0001:0001cc10       ?write_stored_string_tchar@?$output_processor@DV?$string_output_adapter@D@__crt_stdio_output@@V?$format_validation_base@DV?$string_output_adapter@D@__crt_stdio_output@@@2@@__crt_stdio_output@@AEAA_ND@Z 000000014001dc10 f i libucrtd:output.obj
 0001:0001cdc0       ?write_stored_string_tchar@?$output_processor@_WV?$string_output_adapter@_W@__crt_stdio_output@@V?$format_validation_base@_WV?$string_output_adapter@_W@__crt_stdio_output@@@2@@__crt_stdio_output@@AEAA_N_W@Z 000000014001ddc0 f i libucrtd:output.obj
 0001:0001cf20       ?write_string@?$string_output_adapter@D@__crt_stdio_output@@QEBAXQEBDHQEAHAEAV__crt_cached_ptd_host@@@Z 000000014001df20 f i libucrtd:output.obj
 0001:0001d090       ?write_string@?$string_output_adapter@_W@__crt_stdio_output@@QEBAXQEB_WHQEAHAEAV__crt_cached_ptd_host@@@Z 000000014001e090 f i libucrtd:output.obj
 0001:0001d200       __acrt_isleadbyte_l_noupdate 000000014001e200 f i libucrtd:output.obj
 0001:0001d230       __acrt_locale_get_ctype_array_value 000000014001e230 f i libucrtd:output.obj
 0001:0001d270       __ascii_iswalpha           000000014001e270 f i libucrtd:output.obj
 0001:0001d2b0       __ascii_toupper            000000014001e2b0 f i libucrtd:output.obj
 0001:0001d2d0       __ascii_towupper           000000014001e2d0 f i libucrtd:output.obj
 0001:0001d2f0       __stdio_common_vsnprintf_s 000000014001e2f0 f   libucrtd:output.obj
 0001:0001d380       __stdio_common_vsnwprintf_s 000000014001e380 f   libucrtd:output.obj
 0001:0001d410       __stdio_common_vsprintf_s  000000014001e410 f   libucrtd:output.obj
 0001:0001d4a0       _ctype_fast_check_internal 000000014001e4a0 f i libucrtd:output.obj
 0001:0001d4d0       _isdigit_fast_internal     000000014001e4d0 f i libucrtd:output.obj
 0001:0001d500       _tolower_fast_internal     000000014001e500 f i libucrtd:output.obj
 0001:0001d540       strncmp                    000000014001e540 f   libucrtd:strncmp.obj
 0001:0001d5c0       free                       000000014001e5c0 f   libucrtd:free.obj
 0001:0001d5f0       malloc                     000000014001e5f0 f   libucrtd:malloc.obj
 0001:0001d620       ??$?RU__acrt_ptd@@@__crt_internal_free_policy@@QEBAXQEBU__acrt_ptd@@@Z 000000014001e620 f i libucrtd:per_thread_data.obj
 0001:0001da60       ??0?$__crt_unique_heap_ptr@U__acrt_ptd@@U__crt_internal_free_policy@@@@QEAA@QEAU__acrt_ptd@@@Z 000000014001ea60 f i libucrtd:per_thread_data.obj
 0001:0001da80       ??1?$__crt_unique_heap_ptr@U__acrt_ptd@@U__crt_internal_free_policy@@@@QEAA@XZ 000000014001ea80 f i libucrtd:per_thread_data.obj
 0001:0001daa0       ??B?$__crt_unique_heap_ptr@U__acrt_ptd@@U__crt_internal_free_policy@@@@QEBA_NXZ 000000014001eaa0 f i libucrtd:per_thread_data.obj
 0001:0001ddf0       ?dangerous_get_state_array@?$dual_state_global@PEAU__crt_locale_data@@@__crt_state_management@@QEAAPEAPEAU__crt_locale_data@@XZ 000000014001edf0 f i libucrtd:per_thread_data.obj
 0001:0001dfc0       ?detach@?$__crt_unique_heap_ptr@U__acrt_ptd@@U__crt_internal_free_policy@@@@QEAAPEAU__acrt_ptd@@XZ 000000014001efc0 f i libucrtd:per_thread_data.obj
 0001:0001dff0       ?get@?$__crt_unique_heap_ptr@U__acrt_ptd@@U__crt_internal_free_policy@@@@QEBAPEAU__acrt_ptd@@XZ 000000014001eff0 f i libucrtd:per_thread_data.obj
 0001:0001e1d0       ?is_valid@?$__crt_unique_heap_ptr@U__acrt_ptd@@U__crt_internal_free_policy@@@@QEBA_NXZ 000000014001f1d0 f i libucrtd:per_thread_data.obj
 0001:0001e200       ?release@?$__crt_unique_heap_ptr@U__acrt_ptd@@U__crt_internal_free_policy@@@@QEAAXXZ 000000014001f200 f i libucrtd:per_thread_data.obj
 0001:0001e330       __acrt_getptd              000000014001f330 f   libucrtd:per_thread_data.obj
 0001:0001e360       __acrt_getptd_head         000000014001f360 f   libucrtd:per_thread_data.obj
 0001:0001e390       __acrt_getptd_noexit       000000014001f390 f   libucrtd:per_thread_data.obj
 0001:0001e3a0       __acrt_getptd_noexit_explicit 000000014001f3a0 f   libucrtd:per_thread_data.obj
 0001:0001e3d0       __acrt_initialize_ptd      000000014001f3d0 f   libucrtd:per_thread_data.obj
 0001:0001e410       __acrt_uninitialize_ptd    000000014001f410 f   libucrtd:per_thread_data.obj
 0001:0001e440       ??$__crt_fast_decode_pointer@P6AXPEB_W00I_K@Z@@YAP6AXPEB_W00I_K@ZQ6AX000I1@Z@Z 000000014001f440 f i libucrtd:invalid_parameter.obj
 0001:0001e480       ??$initialize_from_array@$$BY00Q6AXPEB_W00I_K@Z@?$dual_state_global@P6AXPEB_W00I_K@Z@__crt_state_management@@QEAAXAEAY00Q6AXPEB_W00I_K@Z@Z 000000014001f480 f i libucrtd:invalid_parameter.obj
 0001:0001e580       ?check_synchronize_global_state_index@__crt_cached_ptd_host@@AEAA_KXZ 000000014001f580 f i libucrtd:invalid_parameter.obj
 0001:0001e5e0       ?dangerous_get_state_array@?$dual_state_global@P6AXPEB_W00I_K@Z@__crt_state_management@@QEAAPEAP6AXPEB_W00I_K@ZXZ 000000014001f5e0 f i libucrtd:invalid_parameter.obj
 0001:0001e5f0       ?get_current_global_state_index@__crt_cached_ptd_host@@QEAA_KXZ 000000014001f5f0 f i libucrtd:invalid_parameter.obj
 0001:0001e610       ?get_raw_ptd_noexit@__crt_cached_ptd_host@@QEAAPEAU__acrt_ptd@@XZ 000000014001f610 f i libucrtd:invalid_parameter.obj
 0001:0001e630       ?try_synchronize_per_thread_data@__crt_cached_ptd_host@@AEAAPEAU__acrt_ptd@@XZ 000000014001f630 f i libucrtd:invalid_parameter.obj
 0001:0001e660       ?value@?$dual_state_global@P6AXPEB_W00I_K@Z@__crt_state_management@@QEAAAEAP6AXPEB_W00I_K@ZAEAV__crt_cached_ptd_host@@@Z 000000014001f660 f i libucrtd:invalid_parameter.obj
 0001:0001e690       __acrt_call_reportfault    000000014001f690 f   libucrtd:invalid_parameter.obj
 0001:0001e7c0       __acrt_initialize_invalid_parameter_handler 000000014001f7c0 f   libucrtd:invalid_parameter.obj
 0001:0001e7f0       _invalid_parameter         000000014001f7f0 f   libucrtd:invalid_parameter.obj
 0001:0001e860       _invalid_parameter_internal 000000014001f860 f   libucrtd:invalid_parameter.obj
 0001:0001e9b0       _invalid_parameter_noinfo  000000014001f9b0 f   libucrtd:invalid_parameter.obj
 0001:0001e9e0       _invoke_watson             000000014001f9e0 f   libucrtd:invalid_parameter.obj
 0001:0001ea40       _set_error_mode            000000014001fa40 f   libucrtd:set_error_mode.obj
 0001:0001f1d0       wcscat_s                   00000001400201d0 f   libucrtd:wcscat_s.obj
 0001:0001f700       wcscpy_s                   0000000140020700 f   libucrtd:wcscpy_s.obj
 0001:0001fde0       wcsncpy_s                  0000000140020de0 f   libucrtd:wcsncpy_s.obj
 0001:00021180       ??1?$__crt_simd_cleanup_guard@$00@@QEAA@XZ 0000000140022180 f i libucrtd:strnlen.obj
 0001:00021190       ??1?$__crt_simd_cleanup_guard@$0A@@@QEAA@XZ 0000000140022190 f i libucrtd:strnlen.obj
 0001:000211a0       ?compare_equals@?$__crt_simd_traits@$00E@@SA?AT__m256i@@T2@0@Z 00000001400221a0 f i libucrtd:strnlen.obj
 0001:000211e0       ?compare_equals@?$__crt_simd_traits@$00G@@SA?AT__m256i@@T2@0@Z 00000001400221e0 f i libucrtd:strnlen.obj
 0001:00021220       ?compare_equals@?$__crt_simd_traits@$0A@E@@SA?AT__m128i@@T2@0@Z 0000000140022220 f i libucrtd:strnlen.obj
 0001:00021250       ?compare_equals@?$__crt_simd_traits@$0A@G@@SA?AT__m128i@@T2@0@Z 0000000140022250 f i libucrtd:strnlen.obj
 0001:00021280       ?compute_byte_mask@?$__crt_simd_pack_traits@$00@@SAHT__m256i@@@Z 0000000140022280 f i libucrtd:strnlen.obj
 0001:000212a0       ?compute_byte_mask@?$__crt_simd_pack_traits@$0A@@@SAHT__m128i@@@Z 00000001400222a0 f i libucrtd:strnlen.obj
 0001:000212c0       ?get_zero_pack@?$__crt_simd_pack_traits@$00@@SA?AT__m256i@@XZ 00000001400222c0 f i libucrtd:strnlen.obj
 0001:000212f0       ?get_zero_pack@?$__crt_simd_pack_traits@$0A@@@SA?AT__m128i@@XZ 00000001400222f0 f i libucrtd:strnlen.obj
 0001:00021310       strnlen                    0000000140022310 f   libucrtd:strnlen.obj
 0001:00021340       wcslen                     0000000140022340 f   libucrtd:strnlen.obj
 0001:00021360       wcsnlen                    0000000140022360 f   libucrtd:strnlen.obj
 0001:000214d0       ??$message_box@$$TAEBQEB_WAEBQEB_WK@?$__crt_char_traits@_W@@SAH$$QEA$$TAEBQEB_W1$$QEAK@Z 00000001400224d0 f i libucrtd:crtmbox.obj
 0001:00021520       ??$message_box@PEAUHWND__@@AEBQEB_WAEBQEB_WAEBI@?$__crt_char_traits@_W@@SAH$$QEAPEAUHWND__@@AEBQEB_W1AEBI@Z 0000000140022520 f i libucrtd:crtmbox.obj
 0001:00021570       ??$output_debug_string@AEBQEB_W@?$__crt_char_traits@_W@@SAXAEBQEB_W@Z 0000000140022570 f i libucrtd:crtmbox.obj
 0001:00021590       __acrt_show_wide_message_box 0000000140022590 f   libucrtd:crtmbox.obj
 0001:000215c0       ?get_doserrno@__crt_cached_ptd_host@@QEAAAEAU?$cached@K@1@XZ 00000001400225c0 f i libucrtd:errno.obj
 0001:000215d0       ?set@?$cached@K@__crt_cached_ptd_host@@QEAAKK@Z 00000001400225d0 f i libucrtd:errno.obj
 0001:00021600       __acrt_errno_from_os_error 0000000140022600 f   libucrtd:errno.obj
 0001:00021690       __acrt_errno_map_os_error  0000000140022690 f   libucrtd:errno.obj
 0001:000216c0       __acrt_errno_map_os_error_ptd 00000001400226c0 f   libucrtd:errno.obj
 0001:00021720       __doserrno                 0000000140022720 f   libucrtd:errno.obj
 0001:00021750       _errno                     0000000140022750 f   libucrtd:errno.obj
 0001:000217b0       ??$__acrt_convert_wcs_mbs_cp@D_WV<lambda_7c9dea7b4ca7285d2cdb541a38da6275>@@U__crt_win32_buffer_internal_dynamic_resizing@@@@YAHQEBDAEAV?$__crt_win32_buffer@_WU__crt_win32_buffer_internal_dynamic_resizing@@@@AEBV<lambda_7c9dea7b4ca7285d2cdb541a38da6275>@@I@Z 00000001400227b0 f i libucrtd:argv_wildcards.obj
 0001:00021960       ??$__acrt_convert_wcs_mbs_cp@_WDV<lambda_d8593a27d1aa8c02be35c86a17d324c4>@@U__crt_win32_buffer_internal_dynamic_resizing@@@@YAHQEB_WAEAV?$__crt_win32_buffer@DU__crt_win32_buffer_internal_dynamic_resizing@@@@AEBV<lambda_d8593a27d1aa8c02be35c86a17d324c4>@@I@Z 0000000140022960 f i libucrtd:argv_wildcards.obj
 0001:00021b10       ??$__acrt_mbs_to_wcs_cp@U__crt_win32_buffer_internal_dynamic_resizing@@@@YAHQEBDAEAV?$__crt_win32_buffer@_WU__crt_win32_buffer_internal_dynamic_resizing@@@@I@Z 0000000140022b10 f i libucrtd:argv_wildcards.obj
 0001:00021b60       ??$__acrt_wcs_to_mbs_cp@U__crt_win32_buffer_internal_dynamic_resizing@@@@YAHQEB_WAEAV?$__crt_win32_buffer@DU__crt_win32_buffer_internal_dynamic_resizing@@@@I@Z 0000000140022b60 f i libucrtd:argv_wildcards.obj
 0001:000225a0       ??$tcsncpy_s@AEAPEAD_KAEAPEADAEB_K@?$__crt_char_traits@D@@SAHAEAPEAD$$QEA_K0AEB_K@Z 00000001400235a0 f i libucrtd:argv_wildcards.obj
 0001:000225f0       ??$tcsncpy_s@PEADAEB_KAEBQEBDAEB_K@?$__crt_char_traits@D@@SAH$$QEAPEADAEB_KAEBQEBD1@Z 00000001400235f0 f i libucrtd:argv_wildcards.obj
 0001:00022640       ??$tcsncpy_s@PEAD_KAEBQEBDAEB_K@?$__crt_char_traits@D@@SAH$$QEAPEAD$$QEA_KAEBQEBDAEB_K@Z 0000000140023640 f i libucrtd:argv_wildcards.obj
 0001:00022690       ??$tcspbrk@AEAPEADAEAY02$$CBD@?$__crt_char_traits@D@@SAPEADAEAPEADAEAY02$$CBD@Z 0000000140023690 f i libucrtd:argv_wildcards.obj
 0001:000226c0       ??0?$__crt_unique_handle_t@U__crt_findfile_traits@@@@QEAA@QEAX@Z 00000001400236c0 f i libucrtd:argv_wildcards.obj
 0001:000226e0       ??0?$__crt_win32_buffer@DU__crt_win32_buffer_internal_dynamic_resizing@@@@QEAA@XZ 00000001400236e0 f i libucrtd:argv_wildcards.obj
 0001:00022740       ??0?$__crt_win32_buffer@_WU__crt_win32_buffer_internal_dynamic_resizing@@@@QEAA@XZ 0000000140023740 f i libucrtd:argv_wildcards.obj
 0001:000227e0       ??1?$__crt_unique_handle_t@U__crt_findfile_traits@@@@QEAA@XZ 00000001400237e0 f i libucrtd:argv_wildcards.obj
 0001:00022800       ??1?$__crt_win32_buffer@DU__crt_win32_buffer_internal_dynamic_resizing@@@@QEAA@XZ 0000000140023800 f i libucrtd:argv_wildcards.obj
 0001:00022830       ??1?$__crt_win32_buffer@_WU__crt_win32_buffer_internal_dynamic_resizing@@@@QEAA@XZ 0000000140023830 f i libucrtd:argv_wildcards.obj
 0001:000228e0       ??R<lambda_7c9dea7b4ca7285d2cdb541a38da6275>@@QEBAHIQEBDQEA_W_K@Z 00000001400238e0 f i libucrtd:argv_wildcards.obj
 0001:000229c0       ??R<lambda_d8593a27d1aa8c02be35c86a17d324c4>@@QEBAHIQEB_WQEAD_K@Z 00000001400239c0 f i libucrtd:argv_wildcards.obj
 0001:00022a20       ?__acrt_get_utf8_acp_compatibility_codepage@@YAIXZ 0000000140023a20 f i libucrtd:argv_wildcards.obj
 0001:00022ac0       ?_deallocate@?$__crt_win32_buffer@DU__crt_win32_buffer_internal_dynamic_resizing@@@@AEAAXXZ 0000000140023ac0 f i libucrtd:argv_wildcards.obj
 0001:00022b10       ?_deallocate@?$__crt_win32_buffer@_WU__crt_win32_buffer_internal_dynamic_resizing@@@@AEAAXXZ 0000000140023b10 f i libucrtd:argv_wildcards.obj
 0001:00022b60       ?allocate@?$__crt_win32_buffer@DU__crt_win32_buffer_internal_dynamic_resizing@@@@QEAAH_K@Z 0000000140023b60 f i libucrtd:argv_wildcards.obj
 0001:00022be0       ?allocate@?$__crt_win32_buffer@_WU__crt_win32_buffer_internal_dynamic_resizing@@@@QEAAH_K@Z 0000000140023be0 f i libucrtd:argv_wildcards.obj
 0001:00022c70       ?allocate@__crt_win32_buffer_internal_dynamic_resizing@@SAHQEAPEAX_KAEBV__crt_win32_buffer_empty_debug_info@@@Z 0000000140023c70 f i libucrtd:argv_wildcards.obj
 0001:00022d50       ?capacity@?$__crt_win32_buffer@DU__crt_win32_buffer_internal_dynamic_resizing@@@@QEBA_KXZ 0000000140023d50 f i libucrtd:argv_wildcards.obj
 0001:00022d60       ?capacity@?$__crt_win32_buffer@_WU__crt_win32_buffer_internal_dynamic_resizing@@@@QEBA_KXZ 0000000140023d60 f i libucrtd:argv_wildcards.obj
 0001:00022d70       ?close@?$__crt_unique_handle_t@U__crt_findfile_traits@@@@QEAAXXZ 0000000140023d70 f i libucrtd:argv_wildcards.obj
 0001:00022db0       ?close@__crt_findfile_traits@@SA_NPEAX@Z 0000000140023db0 f i libucrtd:argv_wildcards.obj
 0001:00022df0       ?data@?$__crt_win32_buffer@DU__crt_win32_buffer_internal_dynamic_resizing@@@@QEAAPEADXZ 0000000140023df0 f i libucrtd:argv_wildcards.obj
 0001:00022e00       ?data@?$__crt_win32_buffer@_WU__crt_win32_buffer_internal_dynamic_resizing@@@@QEAAPEA_WXZ 0000000140023e00 f i libucrtd:argv_wildcards.obj
 0001:00022e10       ?deallocate@__crt_win32_buffer_internal_dynamic_resizing@@SAXQEAXAEBV__crt_win32_buffer_empty_debug_info@@@Z 0000000140023e10 f i libucrtd:argv_wildcards.obj
 0001:00022e40       ?debug_info@?$__crt_win32_buffer@DU__crt_win32_buffer_internal_dynamic_resizing@@@@QEBAAEBV__crt_win32_buffer_empty_debug_info@@XZ 0000000140023e40 f i libucrtd:argv_wildcards.obj
 0001:00022e50       ?debug_info@?$__crt_win32_buffer@_WU__crt_win32_buffer_internal_dynamic_resizing@@@@QEBAAEBV__crt_win32_buffer_empty_debug_info@@XZ 0000000140023e50 f i libucrtd:argv_wildcards.obj
 0001:00023050       ?get@?$__crt_unique_handle_t@U__crt_findfile_traits@@@@QEBAPEAXXZ 0000000140024050 f i libucrtd:argv_wildcards.obj
 0001:000230b0       ?get_invalid_value@__crt_findfile_traits@@SAPEAXXZ 00000001400240b0 f i libucrtd:argv_wildcards.obj
 0001:00023140       ?set_to_nullptr@?$__crt_win32_buffer@DU__crt_win32_buffer_internal_dynamic_resizing@@@@QEAAXXZ 0000000140024140 f i libucrtd:argv_wildcards.obj
 0001:00023180       ?set_to_nullptr@?$__crt_win32_buffer@_WU__crt_win32_buffer_internal_dynamic_resizing@@@@QEAAXXZ 0000000140024180 f i libucrtd:argv_wildcards.obj
 0001:000231c0       ?size@?$__crt_win32_buffer@DU__crt_win32_buffer_internal_dynamic_resizing@@@@QEAAX_K@Z 00000001400241c0 f i libucrtd:argv_wildcards.obj
 0001:000231e0       ?size@?$__crt_win32_buffer@_WU__crt_win32_buffer_internal_dynamic_resizing@@@@QEAAX_K@Z 00000001400241e0 f i libucrtd:argv_wildcards.obj
 0001:00023220       ?strpbrk@@YAPEADQEADQEBD@Z 0000000140024220 f i libucrtd:argv_wildcards.obj
 0001:00023250       __acrt_expand_narrow_argv_wildcards 0000000140024250 f   libucrtd:argv_wildcards.obj
 0001:00023280       ??$__acrt_convert_wcs_mbs_cp@_WDV<lambda_f788ae46380686e8b737efdd8c720d07>@@U__crt_win32_buffer_no_resizing@@@@YAHQEB_WAEAV?$__crt_win32_buffer@DU__crt_win32_buffer_no_resizing@@@@AEBV<lambda_f788ae46380686e8b737efdd8c720d07>@@I@Z 0000000140024280 f i libucrtd:getmodulefilenamea.obj
 0001:00023430       ??$__acrt_wcs_to_mbs_cp@U__crt_win32_buffer_no_resizing@@@@YAHQEB_WAEAV?$__crt_win32_buffer@DU__crt_win32_buffer_no_resizing@@@@I@Z 0000000140024430 f i libucrtd:getmodulefilenamea.obj
 0001:00023480       ??0?$__crt_win32_buffer@DU__crt_win32_buffer_no_resizing@@@@QEAA@QEAD_K@Z 0000000140024480 f i libucrtd:getmodulefilenamea.obj
 0001:000234f0       ??1?$__crt_win32_buffer@DU__crt_win32_buffer_no_resizing@@@@QEAA@XZ 00000001400244f0 f i libucrtd:getmodulefilenamea.obj
 0001:00023520       ??R<lambda_f788ae46380686e8b737efdd8c720d07>@@QEBAHIQEB_WQEAD_K@Z 0000000140024520 f i libucrtd:getmodulefilenamea.obj
 0001:00023580       ?_deallocate@?$__crt_win32_buffer@DU__crt_win32_buffer_no_resizing@@@@AEAAXXZ 0000000140024580 f i libucrtd:getmodulefilenamea.obj
 0001:000235d0       ?allocate@?$__crt_win32_buffer@DU__crt_win32_buffer_no_resizing@@@@QEAAH_K@Z 00000001400245d0 f i libucrtd:getmodulefilenamea.obj
 0001:00023650       ?allocate@__crt_win32_buffer_no_resizing@@SAHQEAPEAX_KAEBV__crt_win32_buffer_empty_debug_info@@@Z 0000000140024650 f i libucrtd:getmodulefilenamea.obj
 0001:00023680       ?capacity@?$__crt_win32_buffer@DU__crt_win32_buffer_no_resizing@@@@QEBA_KXZ 0000000140024680 f i libucrtd:getmodulefilenamea.obj
 0001:00023690       ?data@?$__crt_win32_buffer@DU__crt_win32_buffer_no_resizing@@@@QEAAPEADXZ 0000000140024690 f i libucrtd:getmodulefilenamea.obj
 0001:000236a0       ?deallocate@__crt_win32_buffer_no_resizing@@SAXQEAXAEBV__crt_win32_buffer_empty_debug_info@@@Z 00000001400246a0 f i libucrtd:getmodulefilenamea.obj
 0001:000236b0       ?debug_info@?$__crt_win32_buffer@DU__crt_win32_buffer_no_resizing@@@@QEBAAEBV__crt_win32_buffer_empty_debug_info@@XZ 00000001400246b0 f i libucrtd:getmodulefilenamea.obj
 0001:000236c0       ?set_to_nullptr@?$__crt_win32_buffer@DU__crt_win32_buffer_no_resizing@@@@QEAAXXZ 00000001400246c0 f i libucrtd:getmodulefilenamea.obj
 0001:00023700       ?size@?$__crt_win32_buffer@DU__crt_win32_buffer_no_resizing@@@@QEAAX_K@Z 0000000140024700 f i libucrtd:getmodulefilenamea.obj
 0001:00023720       ?size@?$__crt_win32_buffer@DU__crt_win32_buffer_no_resizing@@@@QEBA_KXZ 0000000140024720 f i libucrtd:getmodulefilenamea.obj
 0001:00023730       __acrt_GetModuleFileNameA  0000000140024730 f   libucrtd:getmodulefilenamea.obj
 0001:000238b0       ??$initialize_from_array@$$BY10BAA@E@?$dual_state_global@PEAE@__crt_state_management@@QEAAXAEAY10BAA@E@Z 00000001400248b0 f i libucrtd:mbctype.obj
 0001:00023920       ??$initialize_from_array@$$BY10BAB@E@?$dual_state_global@PEAE@__crt_state_management@@QEAAXAEAY10BAB@E@Z 0000000140024920 f i libucrtd:mbctype.obj
 0001:00023c10       ?dangerous_get_state_array@?$dual_state_global@PEAE@__crt_state_management@@QEAAPEAPEAEXZ 0000000140024c10 f i libucrtd:mbctype.obj
 0001:00023c20       ?dangerous_get_state_array@?$dual_state_global@PEAU__crt_multibyte_data@@@__crt_state_management@@QEAAPEAPEAU__crt_multibyte_data@@XZ 0000000140024c20 f i libucrtd:mbctype.obj
 0001:00023d10       ?initialize@?$dual_state_global@PEAU__crt_multibyte_data@@@__crt_state_management@@QEAAXQEAU__crt_multibyte_data@@@Z 0000000140024d10 f i libucrtd:mbctype.obj
 0001:000245e0       ?value@?$dual_state_global@PEAE@__crt_state_management@@QEAAAEAPEAEXZ 00000001400255e0 f i libucrtd:mbctype.obj
 0001:00024600       ?value@?$dual_state_global@PEAU__crt_multibyte_data@@@__crt_state_management@@QEAAAEAPEAU__crt_multibyte_data@@XZ 0000000140025600 f i libucrtd:mbctype.obj
 0001:00024620       __acrt_initialize_multibyte 0000000140025620 f   libucrtd:mbctype.obj
 0001:000246f0       __acrt_should_sync_with_global_locale 00000001400256f0 f i libucrtd:mbctype.obj
 0001:00024730       __acrt_update_thread_multibyte_data 0000000140025730 f   libucrtd:mbctype.obj
 0001:00024770       _setmbcp_nolock            0000000140025770 f   libucrtd:mbctype.obj
 0001:00024e60       _ismbblead                 0000000140025e60 f   libucrtd:ismbbyte.obj
 0001:00024e90       __acrt_initialize_command_line 0000000140025e90 f   libucrtd:argv_data.obj
 0001:00024ec0       __acrt_uninitialize_command_line 0000000140025ec0 f   libucrtd:argv_data.obj
 0001:00024f70       __acrt_MultiByteToWideChar 0000000140025f70 f   libucrtd:multibytetowidechar.obj
 0001:00025070       __acrt_WideCharToMultiByte 0000000140026070 f   libucrtd:widechartomultibyte.obj
 0001:000252f0       __dcrt_get_narrow_environment_from_os 00000001400262f0 f   libucrtd:get_environment_from_os.obj
 0001:00025520       __acrt_initialize_locks    0000000140026520 f   libucrtd:locks.obj
 0001:00025590       __acrt_lock                0000000140026590 f   libucrtd:locks.obj
 0001:000255c0       __acrt_uninitialize_locks  00000001400265c0 f   libucrtd:locks.obj
 0001:00025620       __acrt_unlock              0000000140026620 f   libucrtd:locks.obj
 0001:00025930       __acrt_get_developer_information_policy 0000000140026930 f   libucrtd:win_policies.obj
 0001:00025950       __acrt_get_process_end_policy 0000000140026950 f   libucrtd:win_policies.obj
 0001:00025960       __acrt_get_windowing_model_policy 0000000140026960 f   libucrtd:win_policies.obj
 0001:00025980       ??$?RU__crt_lowio_handle_data@@@__crt_internal_free_policy@@QEBAXQEBU__crt_lowio_handle_data@@@Z 0000000140026980 f i libucrtd:osfinfo.obj
 0001:000259b0       ??0?$__crt_unique_heap_ptr@U__crt_lowio_handle_data@@U__crt_internal_free_policy@@@@QEAA@QEAU__crt_lowio_handle_data@@@Z 00000001400269b0 f i libucrtd:osfinfo.obj
 0001:000259d0       ??1?$__crt_unique_heap_ptr@U__crt_lowio_handle_data@@U__crt_internal_free_policy@@@@QEAA@XZ 00000001400269d0 f i libucrtd:osfinfo.obj
 0001:000259f0       ??B?$__crt_unique_heap_ptr@U__crt_lowio_handle_data@@U__crt_internal_free_policy@@@@QEBA_NXZ 00000001400269f0 f i libucrtd:osfinfo.obj
 0001:00025a10       ?detach@?$__crt_unique_heap_ptr@U__crt_lowio_handle_data@@U__crt_internal_free_policy@@@@QEAAPEAU__crt_lowio_handle_data@@XZ 0000000140026a10 f i libucrtd:osfinfo.obj
 0001:00025a40       ?get@?$__crt_unique_heap_ptr@U__crt_lowio_handle_data@@U__crt_internal_free_policy@@@@QEBAPEAU__crt_lowio_handle_data@@XZ 0000000140026a40 f i libucrtd:osfinfo.obj
 0001:00025a50       ?is_valid@?$__crt_unique_heap_ptr@U__crt_lowio_handle_data@@U__crt_internal_free_policy@@@@QEBA_NXZ 0000000140026a50 f i libucrtd:osfinfo.obj
 0001:00025a80       ?release@?$__crt_unique_heap_ptr@U__crt_lowio_handle_data@@U__crt_internal_free_policy@@@@QEAAXXZ 0000000140026a80 f i libucrtd:osfinfo.obj
 0001:00025ab0       __acrt_lowio_create_handle_array 0000000140026ab0 f   libucrtd:osfinfo.obj
 0001:00025c70       __acrt_lowio_destroy_handle_array 0000000140026c70 f   libucrtd:osfinfo.obj
 0001:00025cf0       __acrt_lowio_ensure_fh_exists 0000000140026cf0 f   libucrtd:osfinfo.obj
 0001:00025e50       __acrt_lowio_lock_fh       0000000140026e50 f   libucrtd:osfinfo.obj
 0001:00025e90       __acrt_lowio_unlock_fh     0000000140026e90 f   libucrtd:osfinfo.obj
 0001:00025ed0       _free_osfhnd               0000000140026ed0 f   libucrtd:osfinfo.obj
 0001:00026000       _get_osfhandle             0000000140027000 f   libucrtd:osfinfo.obj
 0001:00026200       ?dangerous_get_state_array@?$dual_state_global@H@__crt_state_management@@QEAAPEAHXZ 0000000140027200 f i libucrtd:txtmode.obj
 0001:00026210       __acrt_initialize_fmode    0000000140027210 f   libucrtd:txtmode.obj
 0001:00026610       __acrt_initialize_lowio    0000000140027610 f   libucrtd:ioinit.obj
 0001:00026660       __acrt_uninitialize_lowio  0000000140027660 f   libucrtd:ioinit.obj
 0001:000266e0       __acrt_locale_free_monetary 00000001400276e0 f   libucrtd:initmon.obj
 0001:000268f0       __acrt_locale_free_numeric 00000001400278f0 f   libucrtd:initnum.obj
 0001:00026af0       __acrt_locale_free_time    0000000140027af0 f   libucrtd:inittime.obj
 0001:00026c60       _chvalidator_l             0000000140027c60 f   libucrtd:isctype.obj
 0001:00026d10       _isctype_l                 0000000140027d10 f   libucrtd:isctype.obj
 0001:00026f40       _isleadbyte_fast_internal  0000000140027f40 f i libucrtd:isctype.obj
 0001:00026f70       ??0?$__crt_scoped_stack_ptr@_W@@QEAA@U?$__crt_scoped_stack_ptr_tag@_W@@@Z 0000000140027f70 f i libucrtd:getstringtypea.obj
 0001:00026f90       ??0?$__crt_scoped_stack_ptr_tag@_W@@QEAA@QEA_W@Z 0000000140027f90 f i libucrtd:getstringtypea.obj
 0001:00026fb0       ??1?$__crt_scoped_stack_ptr@_W@@QEAA@XZ 0000000140027fb0 f i libucrtd:getstringtypea.obj
 0001:00026fd0       ?get@?$__crt_scoped_stack_ptr@_W@@QEBAPEA_WXZ 0000000140027fd0 f i libucrtd:getstringtypea.obj
 0001:00026fe0       _MallocaComputeSize        0000000140027fe0 f i libucrtd:getstringtypea.obj
 0001:00027020       _MarkAllocaS               0000000140028020 f i libucrtd:getstringtypea.obj
 0001:00027050       __acrt_GetStringTypeA      0000000140028050 f   libucrtd:getstringtypea.obj
 0001:000272b0       _freea_crt                 00000001400282b0 f i libucrtd:getstringtypea.obj
 0001:00027350       __acrt_add_locale_ref      0000000140028350 f   libucrtd:locale_refcounting.obj
 0001:000274b0       __acrt_free_locale         00000001400284b0 f   libucrtd:locale_refcounting.obj
 0001:00027830       __acrt_locale_add_lc_time_reference 0000000140028830 f   libucrtd:locale_refcounting.obj
 0001:00027870       __acrt_locale_free_lc_time_if_unreferenced 0000000140028870 f   libucrtd:locale_refcounting.obj
 0001:000278d0       __acrt_locale_release_lc_time_reference 00000001400288d0 f   libucrtd:locale_refcounting.obj
 0001:00027910       __acrt_release_locale_ref  0000000140028910 f   libucrtd:locale_refcounting.obj
 0001:00027a80       __acrt_update_thread_locale_data 0000000140028a80 f   libucrtd:locale_refcounting.obj
 0001:00027b20       _updatetlocinfoEx_nolock   0000000140028b20 f   libucrtd:locale_refcounting.obj
 0001:00028280       GetCurrentThreadEffectiveToken 0000000140029280 f i libucrtd:winapi_thunks.obj
 0001:00028290       __acrt_AppPolicyGetProcessTerminationMethodInternal 0000000140029290 f   libucrtd:winapi_thunks.obj
 0001:000282f0       __acrt_AppPolicyGetShowDeveloperDiagnosticInternal 00000001400292f0 f   libucrtd:winapi_thunks.obj
 0001:00028350       __acrt_AppPolicyGetWindowingModelInternal 0000000140029350 f   libucrtd:winapi_thunks.obj
 0001:000283b0       __acrt_AreFileApisANSI     00000001400293b0 f   libucrtd:winapi_thunks.obj
 0001:00028400       __acrt_FlsAlloc            0000000140029400 f   libucrtd:winapi_thunks.obj
 0001:00028420       __acrt_FlsFree             0000000140029420 f   libucrtd:winapi_thunks.obj
 0001:00028440       __acrt_FlsGetValue         0000000140029440 f   libucrtd:winapi_thunks.obj
 0001:00028460       __acrt_FlsSetValue         0000000140029460 f   libucrtd:winapi_thunks.obj
 0001:00028490       __acrt_InitializeCriticalSectionEx 0000000140029490 f   libucrtd:winapi_thunks.obj
 0001:00028510       __acrt_LCMapStringEx       0000000140029510 f   libucrtd:winapi_thunks.obj
 0001:00028620       __acrt_LocaleNameToLCID    0000000140029620 f   libucrtd:winapi_thunks.obj
 0001:00028690       __acrt_MessageBoxW         0000000140029690 f   libucrtd:winapi_thunks.obj
 0001:00028710       __acrt_can_show_message_box 0000000140029710 f   libucrtd:winapi_thunks.obj
 0001:00028750       __acrt_get_parent_window   0000000140029750 f   libucrtd:winapi_thunks.obj
 0001:000287f0       __acrt_initialize_winapi_thunks 00000001400297f0 f   libucrtd:winapi_thunks.obj
 0001:00028870       __acrt_is_interactive      0000000140029870 f   libucrtd:winapi_thunks.obj
 0001:00028980       __acrt_uninitialize_winapi_thunks 0000000140029980 f   libucrtd:winapi_thunks.obj
 0001:00028a20       __acrt_initialize_heap     0000000140029a20 f   libucrtd:heap_handle.obj
 0001:00028a50       __acrt_uninitialize_heap   0000000140029a50 f   libucrtd:heap_handle.obj
 0001:00028a70       __acrt_execute_initializers 0000000140029a70 f   libucrtd:shared_initialization.obj
 0001:00028b70       __acrt_execute_uninitializers 0000000140029b70 f   libucrtd:shared_initialization.obj
 0001:00028c00       ??$__crt_fast_decode_pointer@P6AH_K@Z@@YAP6AH_K@ZQ6AH0@Z@Z 0000000140029c00 f i libucrtd:new_handler.obj
 0001:00028c40       ?initialize@?$dual_state_global@P6AH_K@Z@__crt_state_management@@QEAAXQ6AH_K@Z@Z 0000000140029c40 f i libucrtd:new_handler.obj
 0001:00028c90       ?value@?$dual_state_global@P6AH_K@Z@__crt_state_management@@QEAAAEAP6AH_K@ZXZ 0000000140029c90 f i libucrtd:new_handler.obj
 0001:00028cb0       __acrt_initialize_new_handler 0000000140029cb0 f   libucrtd:new_handler.obj
 0001:00028cd0       _callnewh                  0000000140029cd0 f   libucrtd:new_handler.obj
 0001:00028d30       _query_new_handler         0000000140029d30 f   libucrtd:new_handler.obj
 0001:00028d70       ??$?B$$A6AXH@Z@__crt_fast_encoded_nullptr_t@@QEBAP6AXH@ZXZ 0000000140029d70 f i libucrtd:signal.obj
 0001:00028e40       ??$__crt_fast_decode_pointer@P6AXH@Z@@YAP6AXH@ZQ6AXH@Z@Z 0000000140029e40 f i libucrtd:signal.obj
 0001:00028e80       ??$__crt_fast_encode_pointer@P6AXH@Z@@YAP6AXH@ZQ6AXH@Z@Z 0000000140029e80 f i libucrtd:signal.obj
 0001:00029000       ?initialize@?$dual_state_global@P6AXH@Z@__crt_state_management@@QEAAXQ6AXH@Z@Z 000000014002a000 f i libucrtd:signal.obj
 0001:000290b0       ?value@?$dual_state_global@P6AXH@Z@__crt_state_management@@QEAAAEAP6AXH@ZXZ 000000014002a0b0 f i libucrtd:signal.obj
 0001:000290d0       __acrt_get_sigabrt_handler 000000014002a0d0 f   libucrtd:signal.obj
 0001:00029100       __acrt_initialize_signal_handlers 000000014002a100 f   libucrtd:signal.obj
 0001:00029160       __fpecode                  000000014002a160 f   libucrtd:signal.obj
 0001:00029180       raise                      000000014002a180 f   libucrtd:signal.obj
 0001:00029670       ?has_any_of@__crt_stdio_stream@@QEBA_NJ@Z 000000014002a670 f i libucrtd:_sftbuf.obj
 0001:000296b0       ?set_flags@__crt_stdio_stream@@QEBA_NJ@Z 000000014002a6b0 f i libucrtd:_sftbuf.obj
 0001:00029720       ?unset_flags@__crt_stdio_stream@@QEBA_NJ@Z 000000014002a720 f i libucrtd:_sftbuf.obj
 0001:00029790       _free_base                 000000014002a790 f   libucrtd:free_base.obj
 0001:000297f0       _realloc_base              000000014002a7f0 f   libucrtd:realloc_base.obj
 0001:00029910       _expand_base               000000014002a910 f   libucrtd:expand.obj
 0001:00029aa0       ?value_explicit@?$dual_state_global@PEAU__crt_locale_data@@@__crt_state_management@@QEAAAEAPEAU__crt_locale_data@@_K@Z 000000014002aaa0 f i libucrtd:locale_update.obj
 0001:00029ac0       ?value_explicit@?$dual_state_global@PEAU__crt_multibyte_data@@@__crt_state_management@@QEAAAEAPEAU__crt_multibyte_data@@_K@Z 000000014002aac0 f i libucrtd:locale_update.obj
 0001:00029ae0       __acrt_update_locale_info  000000014002aae0 f   libucrtd:locale_update.obj
 0001:00029b30       __acrt_update_locale_info_explicit 000000014002ab30 f   libucrtd:locale_update.obj
 0001:00029b90       __acrt_update_multibyte_info 000000014002ab90 f   libucrtd:locale_update.obj
 0001:00029be0       __acrt_update_multibyte_info_explicit 000000014002abe0 f   libucrtd:locale_update.obj
 0001:00029c40       _CrtDefaultAllocHook       000000014002ac40 f   libucrtd:debug_heap_hook.obj
 0001:00029c60       _CrtGetDebugFillThreshold  000000014002ac60 f   libucrtd:debug_fill_threshold.obj
 0001:00029c70       _VCrtDbgReportA            000000014002ac70 f   libucrtd:dbgrptt.obj
 0001:0002a6b0       _VCrtDbgReportW            000000014002b6b0 f   libucrtd:dbgrptt.obj
 0001:0002b2c0       _snprintf_s                000000014002c2c0 f i libucrtd:dbgrptt.obj
 0001:0002b330       _vsnprintf_s               000000014002c330 f i libucrtd:dbgrptt.obj
 0001:0002b380       _vsnprintf_s_l             000000014002c380 f i libucrtd:dbgrptt.obj
 0001:0002b400       ?__acrt_fp_classify@@YA?AW4__acrt_fp_class@@AEBN@Z 000000014002c400 f i libucrtd:cvt.obj
 0001:0002b500       ?__acrt_fp_is_negative@@YA_NAEBN@Z 000000014002c500 f i libucrtd:cvt.obj
 0001:0002ce20       ?strrchr@@YAPEADQEADH@Z    000000014002de20 f i libucrtd:cvt.obj
 0001:0002ce40       __acrt_fp_format           000000014002de40 f   libucrtd:cvt.obj
 0001:0002d500       ?value_or@?$cached@H@__crt_cached_ptd_host@@QEBAHH@Z 000000014002e500 f i libucrtd:wctomb.obj
 0001:0002d530       _wctomb_internal           000000014002e530 f   libucrtd:wctomb.obj
 0001:0002da90       _mbtowc_internal           000000014002ea90 f   libucrtd:mbtowc.obj
 0001:0002de20       ?lowio_handle@__crt_stdio_stream@@QEBAHXZ 000000014002ee20 f i libucrtd:fileno.obj
 0001:0002de50       _fileno                    000000014002ee50 f   libucrtd:fileno.obj
 0001:0002df30       ??$?RPEAU__crt_stdio_stream_data@@@__crt_internal_free_policy@@QEBAXQEBQEAU__crt_stdio_stream_data@@@Z 000000014002ef30 f i libucrtd:_file.obj
 0001:0002df60       ??0?$__crt_unique_heap_ptr@PEAU__crt_stdio_stream_data@@U__crt_internal_free_policy@@@@QEAA@QEAPEAU__crt_stdio_stream_data@@@Z 000000014002ef60 f i libucrtd:_file.obj
 0001:0002df80       ??1?$__crt_unique_heap_ptr@PEAU__crt_stdio_stream_data@@U__crt_internal_free_policy@@@@QEAA@XZ 000000014002ef80 f i libucrtd:_file.obj
 0001:0002dfa0       ?detach@?$__crt_unique_heap_ptr@PEAU__crt_stdio_stream_data@@U__crt_internal_free_policy@@@@QEAAPEAPEAU__crt_stdio_stream_data@@XZ 000000014002efa0 f i libucrtd:_file.obj
 0001:0002dfd0       ?release@?$__crt_unique_heap_ptr@PEAU__crt_stdio_stream_data@@U__crt_internal_free_policy@@@@QEAAXXZ 000000014002efd0 f i libucrtd:_file.obj
 0001:0002e000       __acrt_initialize_stdio    000000014002f000 f   libucrtd:_file.obj
 0001:0002e1f0       __acrt_uninitialize_stdio  000000014002f1f0 f   libucrtd:_file.obj
 0001:0002e280       _lock_file                 000000014002f280 f   libucrtd:_file.obj
 0001:0002e2c0       _unlock_file               000000014002f2c0 f   libucrtd:_file.obj
 0001:0002e300       _get_printf_count_output   000000014002f300 f   libucrtd:printf_count_output.obj
 0001:0002e330       __acrt_OutputDebugStringA  000000014002f330 f   libucrtd:outputdebugstringa.obj
 0001:0002e580       qsort                      000000014002f580 f   libucrtd:qsort.obj
 0001:0002f3f0       strncpy_s                  00000001400303f0 f   libucrtd:strncpy_s.obj
 0001:0002f560       strpbrk                    0000000140030560 f   libucrtd:strpbrk.obj
 0001:0002fe50       _mbsdec                    0000000140030e50 f   libucrtd:mbsdec.obj
 0001:0002fe80       _mbsdec_l                  0000000140030e80 f   libucrtd:mbsdec.obj
 0001:00030110       ??B?$__crt_scoped_stack_ptr@_W@@QEBA_NXZ 0000000140031110 f i libucrtd:lcmapstringa.obj
 0001:00030740       __acrt_LCMapStringA        0000000140031740 f   libucrtd:lcmapstringa.obj
 0001:00031410       _itoa_s                    0000000140032410 f   libucrtd:xtoa.obj
 0001:00031470       _itow_s                    0000000140032470 f   libucrtd:xtoa.obj
 0001:000314d0       __ascii_wcsnicmp           00000001400324d0 f   libucrtd:wcsnicmp.obj
 0001:00031650       __acrt_DownlevelLocaleNameToLCID 0000000140032650 f   libucrtd:lcidtoname_downlevel.obj
 0001:000316b0       _isatty                    00000001400326b0 f   libucrtd:isatty.obj
 0001:00031a30       ??0__crt_stdio_stream@@QEAA@QEAU__crt_stdio_stream_data@@@Z 0000000140032a30 f i libucrtd:fflush.obj
 0001:00031c70       ?__acrt_stdio_reset_buffer@@YAXV__crt_stdio_stream@@@Z 0000000140032c70 f i libucrtd:fflush.obj
 0001:00031e40       ?has_all_of@__crt_stdio_stream@@QEBA_NJ@Z 0000000140032e40 f i libucrtd:fflush.obj
 0001:00031f20       __acrt_stdio_flush_nolock  0000000140032f20 f   libucrtd:fflush.obj
 0001:00032040       _fflush_nolock             0000000140033040 f   libucrtd:fflush.obj
 0001:00032080       _flushall                  0000000140033080 f   libucrtd:fflush.obj
 0001:00032090       _malloc_base               0000000140033090 f   libucrtd:malloc_base.obj
 0001:00032c40       mbstowcs_s                 0000000140033c40 f   libucrtd:mbstowcs.obj
 0001:00033ab0       wcstombs_s                 0000000140034ab0 f   libucrtd:wcstombs.obj
 0001:000341a0       strcat_s                   00000001400351a0 f   libucrtd:strcat_s.obj
 0001:00034380       __acrt_fp_strflt_to_string 0000000140035380 f   libucrtd:_fptostr.obj
 0001:00034f40       ??0big_integer@__crt_strtox@@QEAA@AEBU01@@Z 0000000140035f40 f i libucrtd:cfout.obj
 0001:00034fa0       ??0big_integer@__crt_strtox@@QEAA@XZ 0000000140035fa0 f i libucrtd:cfout.obj
 0001:00035060       ??4big_integer@__crt_strtox@@QEAAAEAU01@AEBU01@@Z 0000000140036060 f i libucrtd:cfout.obj
 0001:000350c0       ??8__crt_strtox@@YA_NAEBUbig_integer@0@0@Z 00000001400360c0 f i libucrtd:cfout.obj
 0001:00035130       ??9__crt_strtox@@YA_NAEBUbig_integer@0@0@Z 0000000140036130 f i libucrtd:cfout.obj
 0001:00035170       ?add_carry@__crt_strtox@@YAIAEAIII@Z 0000000140036170 f i libucrtd:cfout.obj
 0001:000351c0       ?add_multiply_carry@__crt_strtox@@YAIAEAIIII@Z 00000001400361c0 f i libucrtd:cfout.obj
 0001:00035220       ?bit_scan_reverse@__crt_strtox@@YAII@Z 0000000140036220 f i libucrtd:cfout.obj
 0001:00035260       ?count_sequential_high_zeroes@__crt_strtox@@YAII@Z 0000000140036260 f i libucrtd:cfout.obj
 0001:000352a0       ?divide@__crt_strtox@@YA_KAEAUbig_integer@1@AEBU21@@Z 00000001400362a0 f i libucrtd:cfout.obj
 0001:00035c70       ?is_zero@__crt_strtox@@YA_NAEBUbig_integer@1@@Z 0000000140036c70 f i libucrtd:cfout.obj
 0001:00035ca0       ?make_big_integer@__crt_strtox@@YA?AUbig_integer@1@_K@Z 0000000140036ca0 f i libucrtd:cfout.obj
 0001:00035d70       ?make_big_integer_power_of_two@__crt_strtox@@YA?AUbig_integer@1@I@Z 0000000140036d70 f i libucrtd:cfout.obj
 0001:00035e40       ?multiply@__crt_strtox@@YA_NAEAUbig_integer@1@AEBU21@@Z 0000000140036e40 f i libucrtd:cfout.obj
 0001:000361c0       ?multiply@__crt_strtox@@YA_NAEAUbig_integer@1@I@Z 00000001400371c0 f i libucrtd:cfout.obj
 0001:000362e0       ?multiply_64_32@__crt_strtox@@YA_K_KI@Z 00000001400372e0 f i libucrtd:cfout.obj
 0001:00036300       ?multiply_by_power_of_ten@__crt_strtox@@YA_NAEAUbig_integer@1@I@Z 0000000140037300 f i libucrtd:cfout.obj
 0001:000364b0       ?multiply_core@__crt_strtox@@YAIQEAIII@Z 00000001400374b0 f i libucrtd:cfout.obj
 0001:00036530       ?shift_left@__crt_strtox@@YA_NAEAUbig_integer@1@I@Z 0000000140037530 f i libucrtd:cfout.obj
 0001:00036810       __acrt_fltout              0000000140037810 f   libucrtd:cfout.obj
 0001:00036d10       fegetround                 0000000140037d10 f   libucrtd:fegetround.obj
 0001:00036d30       ?__c32rtomb_utf8@__crt_mbstring@@YA_KPEAD_UPEAU_Mbstatet@@AEAV__crt_cached_ptd_host@@@Z 0000000140037d30 f   libucrtd:c32rtomb.obj
 0001:00037040       ?__mbrtowc_utf8@__crt_mbstring@@YA_KPEA_WPEBD_KPEAU_Mbstatet@@AEAV__crt_cached_ptd_host@@@Z 0000000140038040 f   libucrtd:mbrtowc.obj
 0001:000370c0       ?__mbsrtowcs_utf8@__crt_mbstring@@YA_KPEA_WPEAPEBD_KPEAU_Mbstatet@@AEAV__crt_cached_ptd_host@@@Z 00000001400380c0 f   libucrtd:mbrtowc.obj
 0001:00037410       ?is_in_use@__crt_stdio_stream@@QEBA_NXZ 0000000140038410 f i libucrtd:closeall.obj
 0001:00037450       _fcloseall                 0000000140038450 f   libucrtd:closeall.obj
 0001:00037560       ?has_crt_buffer@__crt_stdio_stream@@QEBA_NXZ 0000000140038560 f i libucrtd:_freebuf.obj
 0001:00037580       __acrt_stdio_free_buffer_nolock 0000000140038580 f   libucrtd:_freebuf.obj
 0001:00037660       __strncnt                  0000000140038660 f   libucrtd:strncnt.obj
 0001:000378e0       _commit                    00000001400388e0 f   libucrtd:commit.obj
 0001:000392d0       _utf8_no_of_trailbytes     000000014003a2d0 f i libucrtd:write.obj
 0001:000392f0       _write_internal            000000014003a2f0 f   libucrtd:write.obj
 0001:00039690       _write_nolock              000000014003a690 f   libucrtd:write.obj
 0001:00039d70       ?__wcsrtombs_utf8@__crt_mbstring@@YA_KPEADPEAPEB_W_KPEAU_Mbstatet@@AEAV__crt_cached_ptd_host@@@Z 000000014003ad70 f   libucrtd:wcrtomb.obj
 0001:00039ff0       log10                      000000014003aff0 f   libucrtd:log10.obj
 0001:0003a5a0       ceil                       000000014003b5a0 f   libucrtd:ceil.obj
 0001:0003a770       _controlfp_s               000000014003b770 f   libucrtd:contrlfp.obj
 0001:0003a8a0       fegetenv                   000000014003b8a0 f   libucrtd:fegetenv.obj
 0001:0003a8d0       fesetenv                   000000014003b8d0 f   libucrtd:fesetenv.obj
 0001:0003a950       feholdexcept               000000014003b950 f   libucrtd:feholdexcept.obj
 0001:0003a9c0       ??$__acrt_fenv_shift_bits@W4__acrt_fenv_abstract_control@@@@YA?AW4__acrt_fenv_abstract_control@@W40@0I@Z 000000014003b9c0 f i libucrtd:_fenvutils.obj
 0001:0003a9f0       ??$__acrt_fenv_shift_bits@W4__acrt_fenv_abstract_status@@@@YA?AW4__acrt_fenv_abstract_status@@W40@0I@Z 000000014003b9f0 f i libucrtd:_fenvutils.obj
 0001:0003aa20       ??$__acrt_fenv_translate_bit@W4__acrt_fenv_abstract_control@@W4__acrt_fenv_machine_sse_control@@@@YA?AW4__acrt_fenv_abstract_control@@W4__acrt_fenv_machine_sse_control@@0W40@1@Z 000000014003ba20 f i libucrtd:_fenvutils.obj
 0001:0003aa80       ??$__acrt_fenv_translate_bit@W4__acrt_fenv_abstract_status@@W4__acrt_fenv_machine_sse_status@@@@YA?AW4__acrt_fenv_abstract_status@@W4__acrt_fenv_machine_sse_status@@0W40@1@Z 000000014003ba80 f i libucrtd:_fenvutils.obj
 0001:0003aad0       ??$__acrt_fenv_translate_bit@W4__acrt_fenv_machine_sse_control@@W4__acrt_fenv_abstract_control@@@@YA?AW4__acrt_fenv_machine_sse_control@@W4__acrt_fenv_abstract_control@@0W40@1@Z 000000014003bad0 f i libucrtd:_fenvutils.obj
 0001:0003ab30       ??$__acrt_fenv_translate_bit@W4__acrt_fenv_machine_sse_status@@W4__acrt_fenv_abstract_status@@@@YA?AW4__acrt_fenv_machine_sse_status@@W4__acrt_fenv_abstract_status@@0W40@1@Z 000000014003bb30 f i libucrtd:_fenvutils.obj
 0001:0003ab80       ??$__acrt_fenv_unshift_bits@W4__acrt_fenv_abstract_control@@@@YA?AW4__acrt_fenv_abstract_control@@W40@0I@Z 000000014003bb80 f i libucrtd:_fenvutils.obj
 0001:0003abb0       ??$__acrt_fenv_unshift_bits@W4__acrt_fenv_abstract_status@@@@YA?AW4__acrt_fenv_abstract_status@@W40@0I@Z 000000014003bbb0 f i libucrtd:_fenvutils.obj
 0001:0003b0a0       ??I@YA?AW4__acrt_fenv_abstract_control@@W40@0@Z 000000014003c0a0 f i libucrtd:_fenvutils.obj
 0001:0003b0c0       ??I@YA?AW4__acrt_fenv_abstract_status@@W40@0@Z 000000014003c0c0 f i libucrtd:_fenvutils.obj
 0001:0003b0e0       ??I@YA?AW4__acrt_fenv_machine_sse_control@@W40@0@Z 000000014003c0e0 f i libucrtd:_fenvutils.obj
 0001:0003b100       ??I@YA?AW4__acrt_fenv_machine_sse_status@@W40@0@Z 000000014003c100 f i libucrtd:_fenvutils.obj
 0001:0003b120       ??U@YA?AW4__acrt_fenv_abstract_control@@W40@0@Z 000000014003c120 f i libucrtd:_fenvutils.obj
 0001:0003b140       ??U@YA?AW4__acrt_fenv_abstract_status@@W40@0@Z 000000014003c140 f i libucrtd:_fenvutils.obj
 0001:0003b160       ??U@YA?AW4__acrt_fenv_machine_sse_control@@W40@0@Z 000000014003c160 f i libucrtd:_fenvutils.obj
 0001:0003b180       ??_5@YAAEAW4__acrt_fenv_abstract_control@@AEAW40@W40@@Z 000000014003c180 f i libucrtd:_fenvutils.obj
 0001:0003b1b0       ??_5@YAAEAW4__acrt_fenv_abstract_status@@AEAW40@W40@@Z 000000014003c1b0 f i libucrtd:_fenvutils.obj
 0001:0003b1e0       ??_5@YAAEAW4__acrt_fenv_machine_sse_control@@AEAW40@W40@@Z 000000014003c1e0 f i libucrtd:_fenvutils.obj
 0001:0003b210       ??_5@YAAEAW4__acrt_fenv_machine_sse_status@@AEAW40@W40@@Z 000000014003c210 f i libucrtd:_fenvutils.obj
 0001:0003b240       ?__acrt_fenv_shift_abstract_sse_control@@YA?AW4__acrt_fenv_abstract_control@@W41@@Z 000000014003c240 f i libucrtd:_fenvutils.obj
 0001:0003b290       ?__acrt_fenv_shift_abstract_sse_status@@YA?AW4__acrt_fenv_abstract_status@@W41@@Z 000000014003c290 f i libucrtd:_fenvutils.obj
 0001:0003b2c0       ?__acrt_fenv_unshift_abstract_sse_control@@YA?AW4__acrt_fenv_abstract_control@@W41@@Z 000000014003c2c0 f i libucrtd:_fenvutils.obj
 0001:0003b310       ?__acrt_fenv_unshift_abstract_sse_status@@YA?AW4__acrt_fenv_abstract_status@@W41@@Z 000000014003c310 f i libucrtd:_fenvutils.obj
 0001:0003b600       __acrt_fenv_get_common_round_control 000000014003c600 f   libucrtd:_fenvutils.obj
 0001:0003b620       __acrt_fenv_get_control    000000014003c620 f   libucrtd:_fenvutils.obj
 0001:0003b650       __acrt_fenv_get_status     000000014003c650 f   libucrtd:_fenvutils.obj
 0001:0003b680       __acrt_fenv_set_control    000000014003c680 f   libucrtd:_fenvutils.obj
 0001:0003b6a0       __acrt_fenv_set_status     000000014003c6a0 f   libucrtd:_fenvutils.obj
 0001:0003b6c0       ?reset_and_return@__crt_mbstring@@YA_K_KPEAU_Mbstatet@@@Z 000000014003c6c0 f   libucrtd:common_utf8.obj
 0001:0003b700       ?return_illegal_sequence@__crt_mbstring@@YA_KPEAU_Mbstatet@@AEAV__crt_cached_ptd_host@@@Z 000000014003c700 f   libucrtd:common_utf8.obj
 0001:0003b760       ?__mbrtoc32_utf8@__crt_mbstring@@YA_KPEA_UPEBD_KPEAU_Mbstatet@@AEAV__crt_cached_ptd_host@@@Z 000000014003c760 f   libucrtd:mbrtoc32.obj
 0001:0003be70       fclose                     000000014003ce70 f   libucrtd:fclose.obj
 0001:0003c040       _lseeki64_nolock_internal  000000014003d040 f   libucrtd:lseek.obj
 0001:0003c080       _putwch_nolock             000000014003d080 f   libucrtd:putwch.obj
 0001:0003c0d0       ?__c16rtomb_utf8@__crt_mbstring@@YA_KPEAD_SPEAU_Mbstatet@@AEAV__crt_cached_ptd_host@@@Z 000000014003d0d0 f   libucrtd:c16rtomb.obj
 0001:0003c310       __acrt_initialize_fma3     000000014003d310 f   libucrtd:fma3_available.obj
 0001:0003c3c0       _log10_special             000000014003d3c0 f   libucrtd:log_special.obj
 0001:0003c700       _handle_error              000000014003d700 f   libucrtd:libm_error.obj
 0001:0003c890       _handle_nan                000000014003d890 f   libucrtd:libm_error.obj
 0001:0003cad0       _clearfp                   000000014003dad0 f   libucrtd:ieee.obj
 0001:0003caf0       _control87                 000000014003daf0 f   libucrtd:ieee.obj
 0001:0003d090       _close_internal            000000014003e090 f   libucrtd:close.obj
 0001:0003d350       _close_nolock_internal     000000014003e350 f   libucrtd:close.obj
 0001:0003d3c0       ?__acrt_stdio_free_stream@@YAXV__crt_stdio_stream@@@Z 000000014003e3c0 f   libucrtd:stream.obj
 0001:0003d460       ?deallocate@__crt_stdio_stream@@QEAAXXZ 000000014003e460 f i libucrtd:stream.obj
 0001:0003d5c0       __dcrt_lowio_ensure_console_output_initialized 000000014003e5c0 f   libucrtd:initcon.obj
 0001:0003d5f0       __dcrt_terminate_console_output 000000014003e5f0 f   libucrtd:initcon.obj
 0001:0003d620       __dcrt_write_console       000000014003e620 f   libucrtd:initcon.obj
 0001:0003d660       _raise_exc                 000000014003e660 f   libucrtd:fpexcept.obj
 0001:0003d6c0       _raise_exc_ex              000000014003e6c0 f   libucrtd:fpexcept.obj
 0001:0003dd40       _set_errno_from_matherr    000000014003ed40 f   libucrtd:fpexcept.obj
 0001:0003dd90       _clrfp                     000000014003ed90 f   libucrtd:fpctrl.obj
 0001:0003ddc0       _ctrlfp                    000000014003edc0 f   libucrtd:fpctrl.obj
 0001:0003de70       _set_statfp                000000014003ee70 f   libucrtd:fpctrl.obj
 0001:0003deb0       _statfp                    000000014003eeb0 f   libucrtd:fpctrl.obj
 0001:0003def0       _get_fpsr                  000000014003eef0 f   libucrtd:fpsr.obj
 0001:0003df00       _set_fpsr                  000000014003ef00 f   libucrtd:fpsr.obj
 0001:0003df0a       _fclrf                     000000014003ef0a f   libucrtd:fpsr.obj
 0001:0003df1e       _frnd                      000000014003ef1e f   libucrtd:fpsr.obj
 0001:0003df40       _FindPESection             000000014003ef40 f   LIBCMTD:pesect.obj
 0001:0003dff0       _IsNonwritableInCurrentImage 000000014003eff0 f   LIBCMTD:pesect.obj
 0001:0003e080       _ValidateImageBase         000000014003f080 f   LIBCMTD:pesect.obj
 0001:0003e100       ??1type_info@@UEAA@XZ      000000014003f100 f   LIBCMTD:std_type_info_static.obj
 0001:0003e120       ??_Etype_info@@UEAAPEAXI@Z 000000014003f120 f i LIBCMTD:std_type_info_static.obj
 0001:0003e120       ??_Gtype_info@@UEAAPEAXI@Z 000000014003f120 f i LIBCMTD:std_type_info_static.obj
 0001:0003e160       ??3@YAXPEAX_K@Z            000000014003f160 f   LIBCMTD:delete_scalar_size.obj
 0001:0003e180       __GSHandlerCheck_SEH       000000014003f180 f   LIBCMTD:gshandlerseh.obj
 0001:0003e250       __chkstk                   000000014003f250 f   LIBCMTD:chkstk.obj
 0001:0003e250       _alloca_probe              000000014003f250 f   LIBCMTD:chkstk.obj
 0001:0003e2b0       __GSHandlerCheck_EH        000000014003f2b0 f   LIBCMTD:gshandlereh.obj
 0001:0003e360       ??3@YAXPEAX@Z              000000014003f360 f   LIBCMTD:delete_scalar.obj
 0001:0003e390       memcmp                     000000014003f390 f   libvcruntimed:memcmp.obj
 0001:0003e460       __C_specific_handler_noexcept 000000014003f460 f   libvcruntimed:chandler_noexcept.obj
 0001:0003e4d0       strrchr                    000000014003f4d0 f   libvcruntimed:strrchr.obj
 0001:0003e900       _guard_dispatch_icall_nop  000000014003f900 f   LIBCMTD:guard_dispatch.obj
 0001:0003e920       _guard_xfg_dispatch_icall_nop 000000014003f920 f   libucrtd:guard_xfg_dispatch.obj
 0002:00000000       __imp_RtlPcToFileHeader    0000000140041000     kernel32:KERNEL32.dll
 0002:00000008       __imp_CreateFileW          0000000140041008     kernel32:KERNEL32.dll
 0002:00000010       __imp_CloseHandle          0000000140041010     kernel32:KERNEL32.dll
 0002:00000018       __imp_GetConsoleMode       0000000140041018     kernel32:KERNEL32.dll
 0002:00000020       __imp_GetConsoleOutputCP   0000000140041020     kernel32:KERNEL32.dll
 0002:00000028       __imp_FlushFileBuffers     0000000140041028     kernel32:KERNEL32.dll
 0002:00000030       __imp_SetFilePointerEx     0000000140041030     kernel32:KERNEL32.dll
 0002:00000038       __imp_WriteConsoleW        0000000140041038     kernel32:KERNEL32.dll
 0002:00000040       __imp_HeapQueryInformation 0000000140041040     kernel32:KERNEL32.dll
 0002:00000048       __imp_HeapReAlloc          0000000140041048     kernel32:KERNEL32.dll
 0002:00000050       __imp_HeapFree             0000000140041050     kernel32:KERNEL32.dll
 0002:00000058       __imp_CompareFileTime      0000000140041058     kernel32:KERNEL32.dll
 0002:00000060       __imp_GetFileAttributesExA 0000000140041060     kernel32:KERNEL32.dll
 0002:00000068       __imp_QueryPerformanceCounter 0000000140041068     kernel32:KERNEL32.dll
 0002:00000070       __imp_QueryPerformanceFrequency 0000000140041070     kernel32:KERNEL32.dll
 0002:00000078       __imp_Sleep                0000000140041078     kernel32:KERNEL32.dll
 0002:00000080       __imp_VirtualAlloc         0000000140041080     kernel32:KERNEL32.dll
 0002:00000088       __imp_FreeLibrary          0000000140041088     kernel32:KERNEL32.dll
 0002:00000090       __imp_GetProcAddress       0000000140041090     kernel32:KERNEL32.dll
 0002:00000098       __imp_LoadLibraryA         0000000140041098     kernel32:KERNEL32.dll
 0002:000000a0       __imp_CopyFileA            00000001400410a0     kernel32:KERNEL32.dll
 0002:000000a8       __imp_RtlCaptureContext    00000001400410a8     kernel32:KERNEL32.dll
 0002:000000b0       __imp_RtlLookupFunctionEntry 00000001400410b0     kernel32:KERNEL32.dll
 0002:000000b8       __imp_RtlVirtualUnwind     00000001400410b8     kernel32:KERNEL32.dll
 0002:000000c0       __imp_UnhandledExceptionFilter 00000001400410c0     kernel32:KERNEL32.dll
 0002:000000c8       __imp_SetUnhandledExceptionFilter 00000001400410c8     kernel32:KERNEL32.dll
 0002:000000d0       __imp_GetCurrentProcess    00000001400410d0     kernel32:KERNEL32.dll
 0002:000000d8       __imp_TerminateProcess     00000001400410d8     kernel32:KERNEL32.dll
 0002:000000e0       __imp_IsProcessorFeaturePresent 00000001400410e0     kernel32:KERNEL32.dll
 0002:000000e8       __imp_GetCurrentProcessId  00000001400410e8     kernel32:KERNEL32.dll
 0002:000000f0       __imp_GetCurrentThreadId   00000001400410f0     kernel32:KERNEL32.dll
 0002:000000f8       __imp_GetSystemTimeAsFileTime 00000001400410f8     kernel32:KERNEL32.dll
 0002:00000100       __imp_InitializeSListHead  0000000140041100     kernel32:KERNEL32.dll
 0002:00000108       __imp_IsDebuggerPresent    0000000140041108     kernel32:KERNEL32.dll
 0002:00000110       __imp_GetStartupInfoW      0000000140041110     kernel32:KERNEL32.dll
 0002:00000118       __imp_GetModuleHandleW     0000000140041118     kernel32:KERNEL32.dll
 0002:00000120       __imp_RtlUnwindEx          0000000140041120     kernel32:KERNEL32.dll
 0002:00000128       __imp_GetLastError         0000000140041128     kernel32:KERNEL32.dll
 0002:00000130       __imp_SetLastError         0000000140041130     kernel32:KERNEL32.dll
 0002:00000138       __imp_EnterCriticalSection 0000000140041138     kernel32:KERNEL32.dll
 0002:00000140       __imp_LeaveCriticalSection 0000000140041140     kernel32:KERNEL32.dll
 0002:00000148       __imp_DeleteCriticalSection 0000000140041148     kernel32:KERNEL32.dll
 0002:00000150       __imp_InitializeCriticalSectionAndSpinCount 0000000140041150     kernel32:KERNEL32.dll
 0002:00000158       __imp_TlsAlloc             0000000140041158     kernel32:KERNEL32.dll
 0002:00000160       __imp_TlsGetValue          0000000140041160     kernel32:KERNEL32.dll
 0002:00000168       __imp_TlsSetValue          0000000140041168     kernel32:KERNEL32.dll
 0002:00000170       __imp_TlsFree              0000000140041170     kernel32:KERNEL32.dll
 0002:00000178       __imp_LoadLibraryExW       0000000140041178     kernel32:KERNEL32.dll
 0002:00000180       __imp_EncodePointer        0000000140041180     kernel32:KERNEL32.dll
 0002:00000188       __imp_RaiseException       0000000140041188     kernel32:KERNEL32.dll
 0002:00000190       __imp_GetStdHandle         0000000140041190     kernel32:KERNEL32.dll
 0002:00000198       __imp_WriteFile            0000000140041198     kernel32:KERNEL32.dll
 0002:000001a0       __imp_GetModuleFileNameW   00000001400411a0     kernel32:KERNEL32.dll
 0002:000001a8       __imp_ExitProcess          00000001400411a8     kernel32:KERNEL32.dll
 0002:000001b0       __imp_GetModuleHandleExW   00000001400411b0     kernel32:KERNEL32.dll
 0002:000001b8       __imp_HeapAlloc            00000001400411b8     kernel32:KERNEL32.dll
 0002:000001c0       __imp_HeapSize             00000001400411c0     kernel32:KERNEL32.dll
 0002:000001c8       __imp_HeapValidate         00000001400411c8     kernel32:KERNEL32.dll
 0002:000001d0       __imp_GetSystemInfo        00000001400411d0     kernel32:KERNEL32.dll
 0002:000001d8       __imp_OutputDebugStringW   00000001400411d8     kernel32:KERNEL32.dll
 0002:000001e0       __imp_FindClose            00000001400411e0     kernel32:KERNEL32.dll
 0002:000001e8       __imp_FindFirstFileExW     00000001400411e8     kernel32:KERNEL32.dll
 0002:000001f0       __imp_FindNextFileW        00000001400411f0     kernel32:KERNEL32.dll
 0002:000001f8       __imp_IsValidCodePage      00000001400411f8     kernel32:KERNEL32.dll
 0002:00000200       __imp_GetACP               0000000140041200     kernel32:KERNEL32.dll
 0002:00000208       __imp_GetOEMCP             0000000140041208     kernel32:KERNEL32.dll
 0002:00000210       __imp_GetCPInfo            0000000140041210     kernel32:KERNEL32.dll
 0002:00000218       __imp_GetCommandLineA      0000000140041218     kernel32:KERNEL32.dll
 0002:00000220       __imp_GetCommandLineW      0000000140041220     kernel32:KERNEL32.dll
 0002:00000228       __imp_MultiByteToWideChar  0000000140041228     kernel32:KERNEL32.dll
 0002:00000230       __imp_WideCharToMultiByte  0000000140041230     kernel32:KERNEL32.dll
 0002:00000238       __imp_GetEnvironmentStringsW 0000000140041238     kernel32:KERNEL32.dll
 0002:00000240       __imp_FreeEnvironmentStringsW 0000000140041240     kernel32:KERNEL32.dll
 0002:00000248       __imp_SetStdHandle         0000000140041248     kernel32:KERNEL32.dll
 0002:00000250       __imp_GetFileType          0000000140041250     kernel32:KERNEL32.dll
 0002:00000258       __imp_GetStringTypeW       0000000140041258     kernel32:KERNEL32.dll
 0002:00000260       __imp_FlsAlloc             0000000140041260     kernel32:KERNEL32.dll
 0002:00000268       __imp_FlsGetValue          0000000140041268     kernel32:KERNEL32.dll
 0002:00000270       __imp_FlsSetValue          0000000140041270     kernel32:KERNEL32.dll
 0002:00000278       __imp_FlsFree              0000000140041278     kernel32:KERNEL32.dll
 0002:00000280       __imp_LCMapStringW         0000000140041280     kernel32:KERNEL32.dll
 0002:00000288       __imp_GetProcessHeap       0000000140041288     kernel32:KERNEL32.dll
 0002:00000290       \177KERNEL32_NULL_THUNK_DATA 0000000140041290     kernel32:KERNEL32.dll
 0002:00000298       __imp_DispatchMessageA     0000000140041298     user32:USER32.dll
 0002:000002a0       __imp_LoadCursorA          00000001400412a0     user32:USER32.dll
 0002:000002a8       __imp_ScreenToClient       00000001400412a8     user32:USER32.dll
 0002:000002b0       __imp_GetCursorPos         00000001400412b0     user32:USER32.dll
 0002:000002b8       __imp_GetClientRect        00000001400412b8     user32:USER32.dll
 0002:000002c0       __imp_GetDC                00000001400412c0     user32:USER32.dll
 0002:000002c8       __imp_GetKeyState          00000001400412c8     user32:USER32.dll
 0002:000002d0       __imp_GetActiveWindow      00000001400412d0     user32:USER32.dll
 0002:000002d8       __imp_CreateWindowExA      00000001400412d8     user32:USER32.dll
 0002:000002e0       __imp_RegisterClassA       00000001400412e0     user32:USER32.dll
 0002:000002e8       __imp_DefWindowProcA       00000001400412e8     user32:USER32.dll
 0002:000002f0       __imp_PeekMessageA         00000001400412f0     user32:USER32.dll
 0002:000002f8       __imp_TranslateMessage     00000001400412f8     user32:USER32.dll
 0002:00000300       \177USER32_NULL_THUNK_DATA 0000000140041300     user32:USER32.dll
 0002:00000308       __guard_check_icall_fptr   0000000140041308     LIBCMTD:guard_support.obj
 0002:00000310       __guard_dispatch_icall_fptr 0000000140041310     LIBCMTD:guard_support.obj
 0002:00000318       __guard_xfg_dispatch_icall_fptr 0000000140041318     libucrtd:guard_support.obj
 0002:00000320       __xc_a                     0000000140041320     LIBCMTD:initializers.obj
 0002:00000330       __xc_z                     0000000140041330     LIBCMTD:initializers.obj
 0002:00000338       __xi_a                     0000000140041338     LIBCMTD:initializers.obj
 0002:00000350       __acrt_multibyte_initializer 0000000140041350     libucrtd:multibyte_initializer.obj
 0002:00000358       __acrt_fmode_initializer   0000000140041358     libucrtd:fmode_initializer.obj
 0002:00000360       __acrt_stdio_initializer   0000000140041360     libucrtd:stdio_initializer.obj
 0002:00000368       __acrt_tran_fma3_initializer 0000000140041368     libucrtd:fma3_initializer.obj
 0002:00000370       __xi_z                     0000000140041370     LIBCMTD:initializers.obj
 0002:00000378       __xp_a                     0000000140041378     LIBCMTD:initializers.obj
 0002:00000380       __acrt_locale_terminator   0000000140041380     libucrtd:locale_initializer.obj
 0002:00000388       __dcrt_console_output_terminator 0000000140041388     libucrtd:console_output_initializer.obj
 0002:00000390       __acrt_stdio_terminator    0000000140041390     libucrtd:stdio_initializer.obj
 0002:00000398       __xp_z                     0000000140041398     LIBCMTD:initializers.obj
 0002:000003a0       __xt_a                     00000001400413a0     LIBCMTD:initializers.obj
 0002:000003a8       __xt_z                     00000001400413a8     LIBCMTD:initializers.obj
 0002:000004b0       ??_C@_0BC@CEJOOBCO@Invalid?5Code?5Path@ 00000001400414b0     win32_main.obj
 0002:000004c4       ??_C@_04LLJCPOLH@Init@     00000001400414c4     win32_main.obj
 0002:000004d0       ??_C@_07BDCAJABG@Destroy@  00000001400414d0     win32_main.obj
 0002:000004d8       ??_C@_0BA@NJDNIJEN@SwapChainChange@ 00000001400414d8     win32_main.obj
 0002:000004e8       ??_C@_0L@PJMKAEKN@CodeReload@ 00000001400414e8     win32_main.obj
 0002:000004f8       ??_C@_08JEEIGPMO@MainLoop@ 00000001400414f8     win32_main.obj
 0002:00000504       __real@3c888889            0000000140041504     win32_main.obj
 0002:00000518       _pDestructExceptionObject  0000000140041518     libvcruntimed:ehhelpers.obj
 0002:00000520       ??_C@_0EO@EFANHAJD@d?3?2agent?2_work?21?2s?2src?2vctools?2@ 0000000140041520     libvcruntimed:per_thread_data.obj
 0002:00000588       ??_C@_1DM@KHCHBNEB@?$AAa?$AAp?$AAi?$AA?9?$AAm?$AAs?$AA?9?$AAw?$AAi?$AAn?$AA?9?$AAc?$AAo?$AAr?$AAe@ 0000000140041588     libvcruntimed:winapi_downlevel.obj
 0002:000005c8       ??_C@_1DK@LPPGFMPP@?$AAa?$AAp?$AAi?$AA?9?$AAm?$AAs?$AA?9?$AAw?$AAi?$AAn?$AA?9?$AAc?$AAo?$AAr?$AAe@ 00000001400415c8     libvcruntimed:winapi_downlevel.obj
 0002:00000608       ??_C@_1BC@GDMECMAK@?$AAk?$AAe?$AAr?$AAn?$AAe?$AAl?$AA3?$AA2@ 0000000140041608     libvcruntimed:winapi_downlevel.obj
 0002:00000620       ??_C@_17CNPHIMPH@?$AA?$CF?$AAl?$AAs@ 0000000140041620     libvcruntimed:winapi_downlevel.obj
 0002:00000628       ??_C@_1BA@PFFKHIOG@?$AAa?$AAp?$AAi?$AA?9?$AAm?$AAs?$AA?9@ 0000000140041628     libvcruntimed:winapi_downlevel.obj
 0002:00000638       ??_C@_1BA@IAIFMGEF@?$AAe?$AAx?$AAt?$AA?9?$AAm?$AAs?$AA?9@ 0000000140041638     libvcruntimed:winapi_downlevel.obj
 0002:00000650       ??_C@_1EM@LBIFGLGH@?$AAc?$AAa?$AAc?$AAh?$AAe?$AAd?$AA_?$AAh?$AAa?$AAn?$AAd?$AAl?$AAe?$AA?5?$AA?$DN@ 0000000140041650     libvcruntimed:winapi_downlevel.obj
 0002:000006a0       ??_C@_1JO@HGCMALOH@?$AAd?$AA?3?$AA?2?$AAa?$AAg?$AAe?$AAn?$AAt?$AA?2?$AA_?$AAw?$AAo?$AAr?$AAk?$AA?2@ 00000001400416a0     libvcruntimed:winapi_downlevel.obj
 0002:00000740       ??_C@_1DI@MAHEDLDB@?$AAc?$AAa?$AAc?$AAh?$AAe?$AAd?$AA_?$AAh?$AAa?$AAn?$AAd?$AAl?$AAe?$AA?5?$AA?$DN@ 0000000140041740     libvcruntimed:winapi_downlevel.obj
 0002:00000780       ??_C@_1FC@IBNCGNKL@?$AAc?$AAa?$AAc?$AAh?$AAe?$AAd?$AA_?$AAf?$AAp?$AA?5?$AA?$DN?$AA?$DN?$AA?5?$AAi?$AAn@ 0000000140041780     libvcruntimed:winapi_downlevel.obj
 0002:000007d8       ??_C@_1CI@GDJBAGLP@?$AAc?$AAa?$AAc?$AAh?$AAe?$AAd?$AA_?$AAf?$AAp?$AA?5?$AA?$DN?$AA?$DN?$AA?5?$AAn?$AAe@ 00000001400417d8     libvcruntimed:winapi_downlevel.obj
 0002:00000808       ??_C@_08KNHFBNJ@FlsAlloc@  0000000140041808     libvcruntimed:winapi_downlevel.obj
 0002:00000820       ??_C@_07PEJMOBNF@FlsFree@  0000000140041820     libvcruntimed:winapi_downlevel.obj
 0002:00000830       ??_C@_0M@GDNOONDI@FlsGetValue@ 0000000140041830     libvcruntimed:winapi_downlevel.obj
 0002:00000848       ??_C@_0M@JCPCPOEF@FlsSetValue@ 0000000140041848     libvcruntimed:winapi_downlevel.obj
 0002:00000860       ??_C@_0BM@HCFOFFN@InitializeCriticalSectionEx@ 0000000140041860     libvcruntimed:winapi_downlevel.obj
 0002:00000bb8       ??_C@_08EHJDFFNH@__based?$CI@ 0000000140041bb8     libvcruntimed:undname.obj
 0002:00000bc8       ??_C@_07KOLFKCDI@__cdecl@  0000000140041bc8     libvcruntimed:undname.obj
 0002:00000bd0       ??_C@_08GHMPAG@__pascal@   0000000140041bd0     libvcruntimed:undname.obj
 0002:00000be0       ??_C@_09IFJBGAPI@__stdcall@ 0000000140041be0     libvcruntimed:undname.obj
 0002:00000bf0       ??_C@_0L@NPHFGOKO@__thiscall@ 0000000140041bf0     libvcruntimed:undname.obj
 0002:00000c00       ??_C@_0L@JMKHOMEK@__fastcall@ 0000000140041c00     libvcruntimed:undname.obj
 0002:00000c10       ??_C@_0N@BCKKPABJ@__vectorcall@ 0000000140041c10     libvcruntimed:undname.obj
 0002:00000c20       ??_C@_09HIJEGCPM@__clrcall@ 0000000140041c20     libvcruntimed:undname.obj
 0002:00000c2c       ??_C@_06GHPCKEAG@__eabi@   0000000140041c2c     libvcruntimed:undname.obj
 0002:00000c38       ??_C@_09IOPIDJLG@__swift_1@ 0000000140041c38     libvcruntimed:undname.obj
 0002:00000c48       ??_C@_09KFNFGKHF@__swift_2@ 0000000140041c48     libvcruntimed:undname.obj
 0002:00000c58       ??_C@_07JOMMBBKO@__ptr64@  0000000140041c58     libvcruntimed:undname.obj
 0002:00000c60       ??_C@_0L@PILCLIHE@__restrict@ 0000000140041c60     libvcruntimed:undname.obj
 0002:00000c70       ??_C@_0M@GFIIJFMG@__unaligned@ 0000000140041c70     libvcruntimed:undname.obj
 0002:00000c80       ??_C@_09DHDLOLLB@restrict?$CI@ 0000000140041c80     libvcruntimed:undname.obj
 0002:00000c8a       ??_C@_00CNPNBAHC@@         0000000140041c8a     libvcruntimed:undname.obj
 0002:00000c8c       ??_C@_04NIHEBCM@?5new@     0000000140041c8c     libvcruntimed:undname.obj
 0002:00000c98       ??_C@_07FPCDHGMM@?5delete@ 0000000140041c98     libvcruntimed:undname.obj
 0002:00000ca0       ??_C@_01NEMOKFLO@?$DN@     0000000140041ca0     libvcruntimed:undname.obj
 0002:00000ca4       ??_C@_02GPIOPFAK@?$DO?$DO@ 0000000140041ca4     libvcruntimed:undname.obj
 0002:00000ca8       ??_C@_02FODMEDOG@?$DM?$DM@ 0000000140041ca8     libvcruntimed:undname.obj
 0002:00000cac       ??_C@_01DCLJPIOD@?$CB@     0000000140041cac     libvcruntimed:undname.obj
 0002:00000cb0       ??_C@_02EGOFBIJA@?$DN?$DN@ 0000000140041cb0     libvcruntimed:undname.obj
 0002:00000cb4       ??_C@_02FDNJECIE@?$CB?$DN@ 0000000140041cb4     libvcruntimed:undname.obj
 0002:00000cb8       ??_C@_02GPECMEKF@?$FL?$FN@ 0000000140041cb8     libvcruntimed:undname.obj
 0002:00000cc0       ??_C@_08LHJFAFGD@operator@ 0000000140041cc0     libvcruntimed:undname.obj
 0002:00000ccc       ??_C@_02HBOOOICD@?9?$DO@   0000000140041ccc     libvcruntimed:undname.obj
 0002:00000cd0       ??_C@_01NBENCBCI@?$CK@     0000000140041cd0     libvcruntimed:undname.obj
 0002:00000cd4       ??_C@_02ECNGHCIF@?$CL?$CL@ 0000000140041cd4     libvcruntimed:undname.obj
 0002:00000cd8       ??_C@_02BAABKJLB@?9?9@     0000000140041cd8     libvcruntimed:undname.obj
 0002:00000cdc       ??_C@_01JOAMLHOP@?9@       0000000140041cdc     libvcruntimed:undname.obj
 0002:00000ce0       ??_C@_01MIFGBAGJ@?$CL@     0000000140041ce0     libvcruntimed:undname.obj
 0002:00000ce4       ??_C@_01HNPIGOCE@?$CG@     0000000140041ce4     libvcruntimed:undname.obj
 0002:00000ce8       ??_C@_03MNHNFDLC@?9?$DO?$CK@ 0000000140041ce8     libvcruntimed:undname.obj
 0002:00000cec       ??_C@_01KMDKNFGN@?1@       0000000140041cec     libvcruntimed:undname.obj
 0002:00000cf0       ??_C@_01FGNFDNOH@?$CF@     0000000140041cf0     libvcruntimed:undname.obj
 0002:00000cf4       ??_C@_01MNNFJEPP@?$DM@     0000000140041cf4     libvcruntimed:undname.obj
 0002:00000cf8       ??_C@_02EHCHHCKH@?$DM?$DN@ 0000000140041cf8     libvcruntimed:undname.obj
 0002:00000cfc       ??_C@_01PPODPGHN@?$DO@     0000000140041cfc     libvcruntimed:undname.obj
 0002:00000d00       ??_C@_02EEKDKGMJ@?$DO?$DN@ 0000000140041d00     libvcruntimed:undname.obj
 0002:00000d04       ??_C@_01IHBHIGKO@?0@       0000000140041d04     libvcruntimed:undname.obj
 0002:00000d08       ??_C@_02HCKGKOFO@?$CI?$CJ@ 0000000140041d08     libvcruntimed:undname.obj
 0002:00000d0c       ??_C@_01PJKLJHI@?$HO@      0000000140041d0c     libvcruntimed:undname.obj
 0002:00000d10       ??_C@_01JKBOJNNK@?$FO@     0000000140041d10     libvcruntimed:undname.obj
 0002:00000d14       ??_C@_01DNKMNLPK@?$HM@     0000000140041d14     libvcruntimed:undname.obj
 0002:00000d18       ??_C@_02PPKAJPJL@?$CG?$CG@ 0000000140041d18     libvcruntimed:undname.obj
 0002:00000d1c       ??_C@_02NONPIBCD@?$HM?$HM@ 0000000140041d1c     libvcruntimed:undname.obj
 0002:00000d20       ??_C@_02FPIMKNGF@?$CK?$DN@ 0000000140041d20     libvcruntimed:undname.obj
 0002:00000d24       ??_C@_02FOEOMHFC@?$CL?$DN@ 0000000140041d24     libvcruntimed:undname.obj
 0002:00000d28       ??_C@_02FKMDLLOA@?9?$DN@   0000000140041d28     libvcruntimed:undname.obj
 0002:00000d2c       ??_C@_02FJEHGPIO@?1?$DN@   0000000140041d2c     libvcruntimed:undname.obj
 0002:00000d30       ??_C@_02FENAOKFI@?$CF?$DN@ 0000000140041d30     libvcruntimed:undname.obj
 0002:00000d34       ??_C@_03IKFCCPFF@?$DO?$DO?$DN@ 0000000140041d34     libvcruntimed:undname.obj
 0002:00000d38       ??_C@_03CDNPDDLA@?$DM?$DM?$DN@ 0000000140041d38     libvcruntimed:undname.obj
 0002:00000d3c       ??_C@_02FGJGFEAB@?$CG?$DN@ 0000000140041d3c     libvcruntimed:undname.obj
 0002:00000d40       ??_C@_02DHLNPPGH@?$HM?$DN@ 0000000140041d40     libvcruntimed:undname.obj
 0002:00000d44       ??_C@_02MHEGNOJ@?$FO?$DN@  0000000140041d44     libvcruntimed:undname.obj
 0002:00000d48       ??_C@_09IFPLHPGF@?$GAvftable?8@ 0000000140041d48     libvcruntimed:undname.obj
 0002:00000d58       ??_C@_09BLBHBJP@?$GAvbtable?8@ 0000000140041d58     libvcruntimed:undname.obj
 0002:00000d68       ??_C@_07FEEIOKP@?$GAvcall?8@ 0000000140041d68     libvcruntimed:undname.obj
 0002:00000d70       ??_C@_08LLFFHHDJ@?$GAtypeof?8@ 0000000140041d70     libvcruntimed:undname.obj
 0002:00000d80       ??_C@_0BF@KDPPACIK@?$GAlocal?5static?5guard?8@ 0000000140041d80     libvcruntimed:undname.obj
 0002:00000d98       ??_C@_08OBABFOLI@?$GAstring?8@ 0000000140041d98     libvcruntimed:undname.obj
 0002:00000da8       ??_C@_0BD@JDLKDPAB@?$GAvbase?5destructor?8@ 0000000140041da8     libvcruntimed:undname.obj
 0002:00000dc0       ??_C@_0BN@DEGPLNFK@?$GAvector?5deleting?5destructor?8@ 0000000140041dc0     libvcruntimed:undname.obj
 0002:00000de0       ??_C@_0BO@OBMKPJIG@?$GAdefault?5constructor?5closure?8@ 0000000140041de0     libvcruntimed:undname.obj
 0002:00000e00       ??_C@_0BN@IMDCHIKM@?$GAscalar?5deleting?5destructor?8@ 0000000140041e00     libvcruntimed:undname.obj
 0002:00000e20       ??_C@_0BO@PFGOCPJJ@?$GAvector?5constructor?5iterator?8@ 0000000140041e20     libvcruntimed:undname.obj
 0002:00000e40       ??_C@_0BN@LFPFMEDL@?$GAvector?5destructor?5iterator?8@ 0000000140041e40     libvcruntimed:undname.obj
 0002:00000e60       ??_C@_0CE@IKBNEHA@?$GAvector?5vbase?5constructor?5itera@ 0000000140041e60     libvcruntimed:undname.obj
 0002:00000e88       ??_C@_0BL@NILFHHPC@?$GAvirtual?5displacement?5map?8@ 0000000140041e88     libvcruntimed:undname.obj
 0002:00000ea8       ??_C@_0CB@JONCMFFK@?$GAeh?5vector?5constructor?5iterator@ 0000000140041ea8     libvcruntimed:undname.obj
 0002:00000ed0       ??_C@_0CA@GCEOPDGL@?$GAeh?5vector?5destructor?5iterator?8@ 0000000140041ed0     libvcruntimed:undname.obj
 0002:00000ef0       ??_C@_0CH@OOJPLCPH@?$GAeh?5vector?5vbase?5constructor?5it@ 0000000140041ef0     libvcruntimed:undname.obj
 0002:00000f18       ??_C@_0BL@LLKPOHJI@?$GAcopy?5constructor?5closure?8@ 0000000140041f18     libvcruntimed:undname.obj
 0002:00000f38       ??_C@_0BA@KBCDOMBN@?$GAudt?5returning?8@ 0000000140041f38     libvcruntimed:undname.obj
 0002:00000f48       ??_C@_03KLGMFNMG@?$GAEH@   0000000140041f48     libvcruntimed:undname.obj
 0002:00000f4c       ??_C@_05KHLCHHI@?$GARTTI@  0000000140041f4c     libvcruntimed:undname.obj
 0002:00000f58       ??_C@_0BA@KKLDJDLB@?$GAlocal?5vftable?8@ 0000000140041f58     libvcruntimed:undname.obj
 0002:00000f68       ??_C@_0CE@IIHCMGGL@?$GAlocal?5vftable?5constructor?5clos@ 0000000140041f68     libvcruntimed:undname.obj
 0002:00000f8c       ??_C@_06FHBGPFGH@?5new?$FL?$FN@ 0000000140041f8c     libvcruntimed:undname.obj
 0002:00000f98       ??_C@_09LBNFPBCA@?5delete?$FL?$FN@ 0000000140041f98     libvcruntimed:undname.obj
 0002:00000fa8       ??_C@_0P@HJKNJFNN@?$GAomni?5callsig?8@ 0000000140041fa8     libvcruntimed:undname.obj
 0002:00000fb8       ??_C@_0BL@CNOONJFP@?$GAplacement?5delete?5closure?8@ 0000000140041fb8     libvcruntimed:undname.obj
 0002:00000fd8       ??_C@_0BN@CKNJLHMB@?$GAplacement?5delete?$FL?$FN?5closure?8@ 0000000140041fd8     libvcruntimed:undname.obj
 0002:00000ff8       ??_C@_0CG@CFDHKGGD@?$GAmanaged?5vector?5constructor?5ite@ 0000000140041ff8     libvcruntimed:undname.obj
 0002:00001020       ??_C@_0CF@IMGKMJNO@?$GAmanaged?5vector?5destructor?5iter@ 0000000140042020     libvcruntimed:undname.obj
 0002:00001048       ??_C@_0CG@HLDDJMAG@?$GAeh?5vector?5copy?5constructor?5ite@ 0000000140042048     libvcruntimed:undname.obj
 0002:00001070       ??_C@_0CM@FCBBDIGB@?$GAeh?5vector?5vbase?5copy?5construct@ 0000000140042070     libvcruntimed:undname.obj
 0002:000010a0       ??_C@_0BL@CLIPGLGB@?$GAdynamic?5initializer?5for?5?8@ 00000001400420a0     libvcruntimed:undname.obj
 0002:000010c0       ??_C@_0CB@PDBIFEP@?$GAdynamic?5atexit?5destructor?5for?5@ 00000001400420c0     libvcruntimed:undname.obj
 0002:000010e8       ??_C@_0CD@CGAJBKEJ@?$GAvector?5copy?5constructor?5iterat@ 00000001400420e8     libvcruntimed:undname.obj
 0002:00001110       ??_C@_0CJ@GJELGAMM@?$GAvector?5vbase?5copy?5constructor?5@ 0000000140042110     libvcruntimed:undname.obj
 0002:00001140       ??_C@_0CL@FGIJHLCE@?$GAmanaged?5vector?5copy?5constructo@ 0000000140042140     libvcruntimed:undname.obj
 0002:00001170       ??_C@_0BM@PMGGMLDN@?$GAlocal?5static?5thread?5guard?8@ 0000000140042170     libvcruntimed:undname.obj
 0002:00001190       ??_C@_0N@BDNMDMOL@operator?5?$CC?$CC?5@ 0000000140042190     libvcruntimed:undname.obj
 0002:000011a0       ??_C@_0BC@GGEBGALA@operator?5co_await@ 00000001400421a0     libvcruntimed:undname.obj
 0002:000011b8       ??_C@_0BC@DAFEJGAK@?5Type?5Descriptor?8@ 00000001400421b8     libvcruntimed:undname.obj
 0002:000011d0       ??_C@_0BM@LDKODKLH@?5Base?5Class?5Descriptor?5at?5?$CI@ 00000001400421d0     libvcruntimed:undname.obj
 0002:000011f0       ??_C@_0BD@LGICGFMM@?5Base?5Class?5Array?8@ 00000001400421f0     libvcruntimed:undname.obj
 0002:00001208       ??_C@_0BN@MECKDCOJ@?5Class?5Hierarchy?5Descriptor?8@ 0000000140042208     libvcruntimed:undname.obj
 0002:00001228       ??_C@_0BK@CFCOFLF@?5Complete?5Object?5Locator?8@ 0000000140042228     libvcruntimed:undname.obj
 0002:000012f0       ??_7exception@std@@6B@     00000001400422f0     libvcruntimed:frame.obj
 0002:00001300       ??_C@_0BC@EOODALEL@Unknown?5exception@ 0000000140042300     libvcruntimed:frame.obj
 0002:00001320       ??_7bad_exception@std@@6B@ 0000000140042320     libvcruntimed:frame.obj
 0002:00001330       ??_C@_0O@DPKOEFFH@bad?5exception@ 0000000140042330     libvcruntimed:frame.obj
 0002:00001340       ??_C@_1FK@OACNEHHA@?$AAt?$AAo?$AA?9?$AA?$DO?$AA_?$AAW?$AAh?$AAa?$AAt?$AA?5?$AA?$DN?$AA?$DN?$AA?5?$AAn?$AAu@ 0000000140042340     libvcruntimed:std_exception.obj
 0002:000013a0       ??_C@_1IM@CGBJDMAM@?$AAd?$AA?3?$AA?2?$AAa?$AAg?$AAe?$AAn?$AAt?$AA?2?$AA_?$AAw?$AAo?$AAr?$AAk?$AA?2@ 00000001400423a0     libvcruntimed:std_exception.obj
 0002:00001470       __acrt_exception_action_table 0000000140042470     libucrtd:exception_filter.obj
 0002:00001530       __acrt_signal_action_table_count 0000000140042530     libucrtd:exception_filter.obj
 0002:00001538       __acrt_signal_action_first_fpe_index 0000000140042538     libucrtd:exception_filter.obj
 0002:00001540       __acrt_signal_action_fpe_count 0000000140042540     libucrtd:exception_filter.obj
 0002:00001550       ??_C@_1IC@DCNEKBE@?$AAm?$AAi?$AAn?$AAk?$AAe?$AAr?$AAn?$AAe?$AAl?$AA?2?$AAc?$AAr?$AAt?$AAs?$AA?2@ 0000000140042550     libucrtd:report_runtime_error.obj
 0002:000015d8       ??_C@_1DI@BLFJHKKP@?$AA_?$AA_?$AAa?$AAc?$AAr?$AAt?$AA_?$AAr?$AAe?$AAp?$AAo?$AAr?$AAt?$AA_?$AAr@ 00000001400425d8     libucrtd:report_runtime_error.obj
 0002:00001610       ??_C@_1LE@MHPGJGKE@?$AAw?$AAc?$AAs?$AAc?$AAp?$AAy?$AA_?$AAs?$AA?$CI?$AAo?$AAu?$AAt?$AAm?$AAs?$AAg@ 0000000140042610     libucrtd:report_runtime_error.obj
 0002:000016c8       ??_C@_1DE@JNGNBFGO@?$AAR?$AAu?$AAn?$AAt?$AAi?$AAm?$AAe?$AA?5?$AAE?$AAr?$AAr?$AAo?$AAr?$AA?$CB?$AA?6@ 00000001400426c8     libucrtd:report_runtime_error.obj
 0002:00001700       ??_C@_1HK@FJJNAABO@?$AAw?$AAc?$AAs?$AAc?$AAp?$AAy?$AA_?$AAs?$AA?$CI?$AAp?$AAr?$AAo?$AAg?$AAn?$AAa@ 0000000140042700     libucrtd:report_runtime_error.obj
 0002:00001780       ??_C@_1CO@EAEJAADC@?$AA?$DM?$AAp?$AAr?$AAo?$AAg?$AAr?$AAa?$AAm?$AA?5?$AAn?$AAa?$AAm?$AAe?$AA?5?$AAu@ 0000000140042780     libucrtd:report_runtime_error.obj
 0002:000017b0       ??_C@_1HI@FLHKGEBE@?$AAw?$AAc?$AAs?$AAn?$AAc?$AAp?$AAy?$AA_?$AAs?$AA?$CI?$AAp?$AAc?$AAh?$AA?0?$AA?5@ 00000001400427b0     libucrtd:report_runtime_error.obj
 0002:00001828       ??_C@_17LGKOMLJ@?$AA?4?$AA?4?$AA?4@ 0000000140042828     libucrtd:report_runtime_error.obj
 0002:00001830       ??_C@_1IG@MNNKBLBI@?$AAw?$AAc?$AAs?$AAc?$AAa?$AAt?$AA_?$AAs?$AA?$CI?$AAo?$AAu?$AAt?$AAm?$AAs?$AAg@ 0000000140042830     libucrtd:report_runtime_error.obj
 0002:000018b8       ??_C@_15IABLJNFO@?$AA?6?$AA?6@ 00000001400428b8     libucrtd:report_runtime_error.obj
 0002:000018c0       ??_C@_1IG@DFBBBDAN@?$AAw?$AAc?$AAs?$AAc?$AAa?$AAt?$AA_?$AAs?$AA?$CI?$AAo?$AAu?$AAt?$AAm?$AAs?$AAg@ 00000001400428c0     libucrtd:report_runtime_error.obj
 0002:00001950       ??_C@_1EK@MBDPDCGA@?$AAM?$AAi?$AAc?$AAr?$AAo?$AAs?$AAo?$AAf?$AAt?$AA?5?$AAV?$AAi?$AAs?$AAu?$AAa@ 0000000140042950     libucrtd:report_runtime_error.obj
 0002:000019c8       ??_C@_0DI@KNDIGDEP@minkernel?2crts?2ucrt?2src?2appcrt?2@ 00000001400429c8     libucrtd:argv_parsing.obj
 0002:00001a00       ??_C@_1JO@PGBIJBAM@?$AAm?$AAo?$AAd?$AAe?$AA?5?$AA?$DN?$AA?$DN?$AA?5?$AA_?$AAc?$AAr?$AAt?$AA_?$AAa?$AAr@ 0000000140042a00     libucrtd:argv_parsing.obj
 0002:00001aa0       ??_C@_1HA@JMLCANEE@?$AAm?$AAi?$AAn?$AAk?$AAe?$AAr?$AAn?$AAe?$AAl?$AA?2?$AAc?$AAr?$AAt?$AAs?$AA?2@ 0000000140042aa0     libucrtd:argv_parsing.obj
 0002:00001b10       ??_C@_1CM@LHOJELIC@?$AAc?$AAo?$AAm?$AAm?$AAo?$AAn?$AA_?$AAc?$AAo?$AAn?$AAf?$AAi?$AAg?$AAu?$AAr@ 0000000140042b10     libucrtd:argv_parsing.obj
 0002:00001b90       ??_C@_0EG@LEHKHOEH@minkernel?2crts?2ucrt?2src?2desktop@ 0000000140042b90     libucrtd:environment_initialization.obj
 0002:00001be0       ??_C@_1IM@IMOFFPLG@?$AAm?$AAi?$AAn?$AAk?$AAe?$AAr?$AAn?$AAe?$AAl?$AA?2?$AAc?$AAr?$AAt?$AAs?$AA?2@ 0000000140042be0     libucrtd:environment_initialization.obj
 0002:00001c70       ??_C@_1CG@MNNNBNAK@?$AAc?$AAr?$AAe?$AAa?$AAt?$AAe?$AA_?$AAe?$AAn?$AAv?$AAi?$AAr?$AAo?$AAn?$AAm@ 0000000140042c70     libucrtd:environment_initialization.obj
 0002:00001ca0       ??_C@_1HI@OOPIFFGA@?$AAt?$AAr?$AAa?$AAi?$AAt?$AAs?$AA?3?$AA?3?$AAt?$AAc?$AAs?$AAc?$AAp?$AAy?$AA_@ 0000000140042ca0     libucrtd:environment_initialization.obj
 0002:00001d90       ??_C@_1BI@BGOHAHKC@?$AAm?$AAs?$AAc?$AAo?$AAr?$AAe?$AAe?$AA?4?$AAd?$AAl?$AAl@ 0000000140042d90     libucrtd:exit.obj
 0002:00001da8       ??_C@_0P@MIGLKIOC@CorExitProcess@ 0000000140042da8     libucrtd:exit.obj
 0002:00001dc0       ??_C@_1GC@CIJNGKLD@?$AAm?$AAi?$AAn?$AAk?$AAe?$AAr?$AAn?$AAe?$AAl?$AA?2?$AAc?$AAr?$AAt?$AAs?$AA?2@ 0000000140042dc0     libucrtd:setmode.obj
 0002:00001e30       ??_C@_1FO@LPCLHKGE@?$AA?$CI?$AAf?$AAh?$AA?5?$AA?$DO?$AA?$DN?$AA?5?$AA0?$AA?5?$AA?$CG?$AA?$CG?$AA?5?$AA?$CI?$AAu?$AAn@ 0000000140042e30     libucrtd:setmode.obj
 0002:00001e90       ??_C@_1CM@OKGMMMDH@?$AA?$CI?$AA_?$AAo?$AAs?$AAf?$AAi?$AAl?$AAe?$AA?$CI?$AAf?$AAh?$AA?$CJ?$AA?5?$AA?$CG?$AA?5@ 0000000140042e90     libucrtd:setmode.obj
 0002:00001ec0       ??_C@_1JE@ECKHFIFP@?$AA?$CI?$AA?$CC?$AAI?$AAn?$AAv?$AAa?$AAl?$AAi?$AAd?$AA?5?$AAf?$AAi?$AAl?$AAe?$AA?5@ 0000000140042ec0     libucrtd:setmode.obj
 0002:00001f60       ??_C@_1HC@GNDCDMJL@?$AAm?$AAo?$AAd?$AAe?$AA?5?$AA?$DN?$AA?$DN?$AA?5?$AA_?$AAO?$AA_?$AAT?$AAE?$AAX?$AAT@ 0000000140042f60     libucrtd:setmode.obj
 0002:00001fd8       ??_C@_1BG@IEEHLOCL@?$AA_?$AAs?$AAe?$AAt?$AA_?$AAf?$AAm?$AAo?$AAd?$AAe@ 0000000140042fd8     libucrtd:setmode.obj
 0002:00002040       ??_C@_1GA@LDEGDKD@?$AA?$CI?$AA?$CC?$AAI?$AAn?$AAv?$AAa?$AAl?$AAi?$AAd?$AA?5?$AAp?$AAa?$AAr?$AAa?$AAm@ 0000000140043040     libucrtd:wsetlocale.obj
 0002:000020a0       ??_C@_1GK@DPKNLBIE@?$AAm?$AAi?$AAn?$AAk?$AAe?$AAr?$AAn?$AAe?$AAl?$AA?2?$AAc?$AAr?$AAt?$AAs?$AA?2@ 00000001400430a0     libucrtd:wsetlocale.obj
 0002:00002110       ??_C@_1CI@FGIONOJM@?$AA_?$AAc?$AAo?$AAn?$AAf?$AAi?$AAg?$AAt?$AAh?$AAr?$AAe?$AAa?$AAd?$AAl?$AAo@ 0000000140043110     libucrtd:wsetlocale.obj
 0002:00002138       ??_C@_1CO@JKFLNGDK@?$AAm?$AAo?$AAd?$AAe?$AA?5?$AA?$DN?$AA?$DN?$AA?5?$AA0?$AA?5?$AA?$HM?$AA?$HM?$AA?5?$AAm?$AAo@ 0000000140043138     libucrtd:new_mode.obj
 0002:00002170       ??_C@_1GC@PJMKBHEK@?$AAm?$AAi?$AAn?$AAk?$AAe?$AAr?$AAn?$AAe?$AAl?$AA?2?$AAc?$AAr?$AAt?$AAs?$AA?2@ 0000000140043170     libucrtd:new_mode.obj
 0002:000021d8       ??_C@_1BM@PDPAKJNF@?$AA_?$AAs?$AAe?$AAt?$AA_?$AAn?$AAe?$AAw?$AA_?$AAm?$AAo?$AAd?$AAe@ 00000001400431d8     libucrtd:new_mode.obj
 0002:00002270       ??_C@_0DC@NBHMIIKL@minkernel?2crts?2ucrt?2src?2appcrt?2@ 0000000140043270     libucrtd:onexit.obj
 0002:00002400       ??_C@_04HJMOFLDF@Free@     0000000140043400     libucrtd:debug_heap.obj
 0002:00002408       ??_C@_06EFAGIKOH@Normal@   0000000140043408     libucrtd:debug_heap.obj
 0002:00002410       ??_C@_03OGPFLFLO@CRT@      0000000140043410     libucrtd:debug_heap.obj
 0002:00002414       ??_C@_06KMEJCCGM@Ignore@   0000000140043414     libucrtd:debug_heap.obj
 0002:0000241c       ??_C@_06PJIGMIJB@Client@   000000014004341c     libucrtd:debug_heap.obj
 0002:000024a0       ??_C@_1CE@LJFEPPMP@?$AA_?$AAC?$AAr?$AAt?$AAC?$AAh?$AAe?$AAc?$AAk?$AAM?$AAe?$AAm?$AAo?$AAr?$AAy@ 00000001400434a0     libucrtd:debug_heap.obj
 0002:000024d0       ??_C@_1GG@OCLHPJPK@?$AAm?$AAi?$AAn?$AAk?$AAe?$AAr?$AAn?$AAe?$AAl?$AA?2?$AAc?$AAr?$AAt?$AAs?$AA?2@ 00000001400434d0     libucrtd:debug_heap.obj
 0002:00002538       ??_C@_0DF@BBEGIFEK@Client?5hook?5allocation?5failure?5@ 0000000140043538     libucrtd:debug_heap.obj
 0002:00002570       ??_C@_0CB@CCLOLAHO@Client?5hook?5allocation?5failure?4@ 0000000140043570     libucrtd:debug_heap.obj
 0002:00002594       ??_C@_02DKCKIIND@?$CFs@    0000000140043594     libucrtd:debug_heap.obj
 0002:00002598       ??_C@_0DC@JEMAGEKG@Error?3?5memory?5allocation?3?5bad?5m@ 0000000140043598     libucrtd:debug_heap.obj
 0002:000025d0       ??_C@_0DI@KKJPDPGM@Client?5hook?5re?9allocation?5failu@ 00000001400435d0     libucrtd:debug_heap.obj
 0002:00002608       ??_C@_0CE@DOFMDOL@Client?5hook?5re?9allocation?5failu@ 0000000140043608     libucrtd:debug_heap.obj
 0002:00002630       ??_C@_0FA@EFEIGJKG@Error?3?5memory?5allocation?3?5bad?5m@ 0000000140043630     libucrtd:debug_heap.obj
 0002:00002680       ??_C@_0EM@LGFLMAGJ@The?5Block?5at?50x?$CFp?5was?5allocated@ 0000000140043680     libucrtd:debug_heap.obj
 0002:000026d0       ??_C@_1DM@DEDLGNML@?$AA_?$AAC?$AAr?$AAt?$AAI?$AAs?$AAV?$AAa?$AAl?$AAi?$AAd?$AAH?$AAe?$AAa?$AAp@ 00000001400436d0     libucrtd:debug_heap.obj
 0002:00002710       ??_C@_1PC@MCGKJLN@?$AAo?$AAl?$AAd?$AA_?$AAh?$AAe?$AAa?$AAd?$AA?9?$AA?$DO?$AA_?$AAl?$AAi?$AAn?$AAe@ 0000000140043710     libucrtd:debug_heap.obj
 0002:00002808       ??_C@_0DA@HFBKENN@Error?3?5possible?5heap?5corruption@ 0000000140043808     libucrtd:debug_heap.obj
 0002:00002840       ??_C@_1JM@MCMEPJEP@?$AAr?$AAe?$AAa?$AAl?$AAl?$AAo?$AAc?$AAa?$AAt?$AAi?$AAo?$AAn?$AA_?$AAi?$AAs@ 0000000140043840     libucrtd:debug_heap.obj
 0002:000028e0       ??_C@_1DM@LNOPKAIJ@?$AA_?$AA_?$AAa?$AAc?$AAr?$AAt?$AA_?$AAl?$AAa?$AAs?$AAt?$AA_?$AAb?$AAl?$AAo@ 00000001400438e0     libucrtd:debug_heap.obj
 0002:00002920       ??_C@_1DO@HABCJBHO@?$AA_?$AA_?$AAa?$AAc?$AAr?$AAt?$AA_?$AAf?$AAi?$AAr?$AAs?$AAt?$AA_?$AAb?$AAl@ 0000000140043920     libucrtd:debug_heap.obj
 0002:00002960       ??_C@_1CC@CKEAHJPH@?$AAb?$AAl?$AAo?$AAc?$AAk?$AA?5?$AA?$CB?$AA?$DN?$AA?5?$AAn?$AAu?$AAl?$AAl?$AAp?$AAt@ 0000000140043960     libucrtd:debug_heap.obj
 0002:00002990       ??_C@_0EJ@HEIBCIMJ@The?5Block?5at?50x?$CFp?5was?5allocated@ 0000000140043990     libucrtd:debug_heap.obj
 0002:000029e0       ??_C@_0BL@KEIPLFAC@Client?5hook?5free?5failure?4?6@ 00000001400439e0     libucrtd:debug_heap.obj
 0002:00002a00       ??_C@_1FA@KDNEBILF@?$AAi?$AAs?$AA_?$AAb?$AAl?$AAo?$AAc?$AAk?$AA_?$AAt?$AAy?$AAp?$AAe?$AA_?$AAv@ 0000000140043a00     libucrtd:debug_heap.obj
 0002:00002a50       ??_C@_0KI@JGFOHMEB@HEAP?5CORRUPTION?5DETECTED?3?5befor@ 0000000140043a50     libucrtd:debug_heap.obj
 0002:00002b00       ??_C@_0IK@PJCGLBOB@HEAP?5CORRUPTION?5DETECTED?3?5befor@ 0000000140043b00     libucrtd:debug_heap.obj
 0002:00002b90       ??_C@_0KE@MBMNHHHN@HEAP?5CORRUPTION?5DETECTED?3?5after@ 0000000140043b90     libucrtd:debug_heap.obj
 0002:00002c40       ??_C@_0IG@LEMBDCJK@HEAP?5CORRUPTION?5DETECTED?3?5after@ 0000000140043c40     libucrtd:debug_heap.obj
 0002:00002cd0       ??_C@_1OK@GFEOEJAF@?$AAh?$AAe?$AAa?$AAd?$AAe?$AAr?$AA?9?$AA?$DO?$AA_?$AAl?$AAi?$AAn?$AAe?$AA_?$AAn@ 0000000140043cd0     libucrtd:debug_heap.obj
 0002:00002dc0       ??_C@_1ME@GFALMLNA@?$AAh?$AAe?$AAa?$AAd?$AAe?$AAr?$AA?9?$AA?$DO?$AA_?$AAb?$AAl?$AAo?$AAc?$AAk?$AA_@ 0000000140043dc0     libucrtd:debug_heap.obj
 0002:00002e88       ??_C@_1DI@ILNOPEPI@?$AA_?$AA_?$AAa?$AAc?$AAr?$AAt?$AA_?$AAl?$AAa?$AAs?$AAt?$AA_?$AAb?$AAl?$AAo@ 0000000140043e88     libucrtd:debug_heap.obj
 0002:00002ec0       ??_C@_1DK@KEHFGDIJ@?$AA_?$AA_?$AAa?$AAc?$AAr?$AAt?$AA_?$AAf?$AAi?$AAr?$AAs?$AAt?$AA_?$AAb?$AAl@ 0000000140043ec0     libucrtd:debug_heap.obj
 0002:00002f00       ??_C@_1BG@MBKOGDLD@?$AA_?$AAm?$AAs?$AAi?$AAz?$AAe?$AA_?$AAd?$AAb?$AAg@ 0000000140043f00     libucrtd:debug_heap.obj
 0002:00002f18       ??_C@_07OHKEFPKJ@DAMAGED@  0000000140043f18     libucrtd:debug_heap.obj
 0002:00002f20       ??_C@_0KA@IHNJJKPL@HEAP?5CORRUPTION?5DETECTED?3?5on?5to@ 0000000140043f20     libucrtd:debug_heap.obj
 0002:00002fc0       ??_C@_0IC@BBJIOOJH@HEAP?5CORRUPTION?5DETECTED?3?5on?5to@ 0000000140043fc0     libucrtd:debug_heap.obj
 0002:00003050       ??_C@_0EG@DGJMPDBH@?$CFhs?5located?5at?50x?$CFp?5is?5?$CFIu?5byte@ 0000000140044050     libucrtd:debug_heap.obj
 0002:00003098       ??_C@_0CI@JMLBEDHJ@?$CFhs?5located?5at?50x?$CFp?5is?5?$CFIu?5byte@ 0000000140044098     libucrtd:debug_heap.obj
 0002:000030c0       ??_C@_0EG@GPFHANHO@Cycle?5in?5block?5list?5detected?5wh@ 00000001400440c0     libucrtd:debug_heap.obj
 0002:00003108       ??_C@_0BJ@ELMAOCAJ@Heap?5validation?5failed?4?6@ 0000000140044108     libucrtd:debug_heap.obj
 0002:00003130       ??_C@_1IE@BBIFDGEB@?$AAn?$AAe?$AAw?$AA_?$AAb?$AAi?$AAt?$AAs?$AA?5?$AA?$DN?$AA?$DN?$AA?5?$AA_?$AAC?$AAR@ 0000000140044130     libucrtd:debug_heap.obj
 0002:000031b8       ??_C@_1BO@GJFDNMNF@?$AA_?$AAC?$AAr?$AAt?$AAS?$AAe?$AAt?$AAD?$AAb?$AAg?$AAF?$AAl?$AAa?$AAg@ 00000001400441b8     libucrtd:debug_heap.obj
 0002:000031d8       ??_C@_1CC@BBKMONGA@?$AAs?$AAt?$AAa?$AAt?$AAe?$AA?5?$AA?$CB?$AA?$DN?$AA?5?$AAn?$AAu?$AAl?$AAl?$AAp?$AAt@ 00000001400441d8     libucrtd:debug_heap.obj
 0002:00003200       ??_C@_1CE@NJJKELF@?$AA_?$AAC?$AAr?$AAt?$AAM?$AAe?$AAm?$AAC?$AAh?$AAe?$AAc?$AAk?$AAp?$AAo?$AAi@ 0000000140044200     libucrtd:debug_heap.obj
 0002:00003228       ??_C@_0DP@LEFMFBOD@Bad?5memory?5block?5found?5at?50x?$CFp?4@ 0000000140044228     libucrtd:debug_heap.obj
 0002:00003268       ??_C@_0CB@EAAIGELO@Bad?5memory?5block?5found?5at?50x?$CFp?4@ 0000000140044268     libucrtd:debug_heap.obj
 0002:0000328c       ??_C@_05MKKEDADM@?$CF?42X?5@ 000000014004428c     libucrtd:debug_heap.obj
 0002:00003298       ??_C@_1CC@DIJAHFFJ@?$AAp?$AAr?$AAi?$AAn?$AAt?$AA_?$AAb?$AAl?$AAo?$AAc?$AAk?$AA_?$AAd?$AAa?$AAt@ 0000000140044298     libucrtd:debug_heap.obj
 0002:000032c0       ??_C@_1BI@KALLJECN@?$AA?$CI?$AA?$CK?$AA_?$AAe?$AAr?$AAr?$AAn?$AAo?$AA?$CI?$AA?$CJ?$AA?$CJ@ 00000001400442c0     libucrtd:debug_heap.obj
 0002:000032d8       ??_C@_0BA@HJBKCELP@?5Data?3?5?$DM?$CFs?$DO?5?$CFs?6@ 00000001400442d8     libucrtd:debug_heap.obj
 0002:000032e8       ??_C@_0BE@KCIPKCIA@Dumping?5objects?5?9?$DO?6@ 00000001400442e8     libucrtd:debug_heap.obj
 0002:00003300       ??_C@_0BE@OIEFNFL@?$CDFile?5Error?$CD?$CI?$CFd?$CJ?5?3?5@ 0000000140044300     libucrtd:debug_heap.obj
 0002:00003318       ??_C@_0L@JMEFFCCJ@?$CFhs?$CI?$CFd?$CJ?5?3?5@ 0000000140044318     libucrtd:debug_heap.obj
 0002:00003324       ??_C@_06PKLGBFGM@?$HL?$CFld?$HN?5@ 0000000140044324     libucrtd:debug_heap.obj
 0002:00003330       ??_C@_0DD@GHNAAKBB@client?5block?5at?50x?$CFp?0?5subtype?5?$CF@ 0000000140044330     libucrtd:debug_heap.obj
 0002:00003368       ??_C@_0CH@FAGDDGPN@normal?5block?5at?50x?$CFp?0?5?$CFIu?5bytes@ 0000000140044368     libucrtd:debug_heap.obj
 0002:00003390       ??_C@_0DA@MDLBNIBM@crt?5block?5at?50x?$CFp?0?5subtype?5?$CFx?0?5@ 0000000140044390     libucrtd:debug_heap.obj
 0002:000033c0       ??_C@_0BH@GFGKJDCO@Object?5dump?5complete?4?6@ 00000001400443c0     libucrtd:debug_heap.obj
 0002:000033d8       ??_C@_0BI@JBFPOEJA@Detected?5memory?5leaks?$CB?6@ 00000001400443d8     libucrtd:debug_heap.obj
 0002:000033f0       ??_C@_1GI@BBAEIKL@?$AA?$CI?$AA?$CI?$AAd?$AAe?$AAs?$AAt?$AAi?$AAn?$AAa?$AAt?$AAi?$AAo?$AAn?$AA?$CJ?$AA?$CJ@ 00000001400443f0     libucrtd:strcpy_s.obj
 0002:00003460       ??_C@_1HI@PBJPCEBC@?$AAm?$AAi?$AAn?$AAk?$AAe?$AAr?$AAn?$AAe?$AAl?$AA?2?$AAc?$AAr?$AAt?$AAs?$AA?2@ 0000000140044460     libucrtd:strcpy_s.obj
 0002:000034d8       ??_C@_1CA@FHIAGDFH@?$AAc?$AAo?$AAm?$AAm?$AAo?$AAn?$AA_?$AAt?$AAc?$AAs?$AAc?$AAp?$AAy?$AA_?$AAs@ 00000001400444d8     libucrtd:strcpy_s.obj
 0002:000034f8       ??_C@_1CK@EIOKGPJL@?$AA?$CI?$AA?$CI?$AA?$CI?$AAs?$AAo?$AAu?$AAr?$AAc?$AAe?$AA?$CJ?$AA?$CJ?$AA?$CJ?$AA?5?$AA?$CB?$AA?$DN@ 00000001400444f8     libucrtd:strcpy_s.obj
 0002:00003528       ??_C@_1CI@HCPHDDLE@?$AAB?$AAu?$AAf?$AAf?$AAe?$AAr?$AA?5?$AAi?$AAs?$AA?5?$AAt?$AAo?$AAo?$AA?5?$AAs@ 0000000140044528     libucrtd:strcpy_s.obj
 0002:00003550       ??_C@_1DM@MADKGDLO@?$AA?$CI?$AAL?$AA?$CC?$AAB?$AAu?$AAf?$AAf?$AAe?$AAr?$AA?5?$AAi?$AAs?$AA?5?$AAt?$AAo@ 0000000140044550     libucrtd:strcpy_s.obj
 0002:00003590       ??_C@_1DA@LLLMNMKI@?$AAa?$AAb?$AAo?$AAr?$AAt?$AA?$CI?$AA?$CJ?$AA?5?$AAh?$AAa?$AAs?$AA?5?$AAb?$AAe?$AAe@ 0000000140044590     libucrtd:abort.obj
 0002:000035d8       ??_C@_1BA@GLMCNLEM@?$AAW?$AAa?$AAr?$AAn?$AAi?$AAn?$AAg@ 00000001400445d8     libucrtd:dbgrpt.obj
 0002:000035e8       ??_C@_1M@ILHOPKA@?$AAE?$AAr?$AAr?$AAo?$AAr@ 00000001400445e8     libucrtd:dbgrpt.obj
 0002:000035f8       ??_C@_1CC@CGHMNGDG@?$AAA?$AAs?$AAs?$AAe?$AAr?$AAt?$AAi?$AAo?$AAn?$AA?5?$AAF?$AAa?$AAi?$AAl?$AAe@ 00000001400445f8     libucrtd:dbgrpt.obj
 0002:00003630       ??_C@_1OG@PMPPFHAF@?$AA?6?$AA?6?$AAF?$AAo?$AAr?$AA?5?$AAi?$AAn?$AAf?$AAo?$AAr?$AAm?$AAa?$AAt?$AAi@ 0000000140044630     libucrtd:dbgrpt.obj
 0002:00003720       ??_C@_1MG@LJLILFFD@?$AAD?$AAe?$AAb?$AAu?$AAg?$AA?5?$AA?$CF?$AAl?$AAs?$AA?$CB?$AA?6?$AA?6?$AAP?$AAr?$AAo@ 0000000140044720     libucrtd:dbgrpt.obj
 0002:000037f0       ??_C@_1MG@OODCADGL@?$AAD?$AAe?$AAb?$AAu?$AAg?$AA?5?$AA?$CF?$AAl?$AAs?$AA?$CB?$AA?6?$AA?6?$AAP?$AAr?$AAo@ 00000001400447f0     libucrtd:dbgrpt.obj
 0002:000038b8       ??_C@_0BH@DNAGHKFM@?$DMprogram?5name?5unknown?$DO@ 00000001400448b8     libucrtd:dbgrpt.obj
 0002:000038d0       ??_C@_1FO@GMJDLAJD@?$AAm?$AAi?$AAn?$AAk?$AAe?$AAr?$AAn?$AAe?$AAl?$AA?2?$AAc?$AAr?$AAt?$AAs?$AA?2@ 00000001400448d0     libucrtd:dbgrpt.obj
 0002:00003930       ??_C@_1CM@EHMOGBJJ@?$AAc?$AAo?$AAm?$AAm?$AAo?$AAn?$AA_?$AAm?$AAe?$AAs?$AAs?$AAa?$AAg?$AAe?$AA_@ 0000000140044930     libucrtd:dbgrpt.obj
 0002:00003960       ??_C@_1PE@ECNALGCA@?$AAt?$AAr?$AAa?$AAi?$AAt?$AAs?$AA?3?$AA?3?$AAt?$AAc?$AAs?$AAc?$AAp?$AAy?$AA_@ 0000000140044960     libucrtd:dbgrpt.obj
 0002:00003a54       ??_C@_11LOCGONAA@@         0000000140044a54     libucrtd:dbgrpt.obj
 0002:00003a58       ??_C@_1BK@PEDCIPMA@?$AAE?$AAx?$AAp?$AAr?$AAe?$AAs?$AAs?$AAi?$AAo?$AAn?$AA?3?$AA?5@ 0000000140044a58     libucrtd:dbgrpt.obj
 0002:00003a78       ??_C@_1BA@GLLGCPCK@?$AA?6?$AAL?$AAi?$AAn?$AAe?$AA?3?$AA?5@ 0000000140044a78     libucrtd:dbgrpt.obj
 0002:00003a88       ??_C@_1BA@LNHECFIM@?$AA?6?$AAF?$AAi?$AAl?$AAe?$AA?3?$AA?5@ 0000000140044a88     libucrtd:dbgrpt.obj
 0002:00003a98       ??_C@_1BE@CGCJKGHI@?$AA?6?$AAM?$AAo?$AAd?$AAu?$AAl?$AAe?$AA?3?$AA?5@ 0000000140044a98     libucrtd:dbgrpt.obj
 0002:00003ab0       ??_C@_1JM@IBOIJEOO@?$AAw?$AAc?$AAs?$AAc?$AAp?$AAy?$AA_?$AAs?$AA?$CI?$AAm?$AAe?$AAs?$AAs?$AAa?$AAg@ 0000000140044ab0     libucrtd:dbgrpt.obj
 0002:00003b50       ??_C@_1FG@BBOLDHGF@?$AA_?$AAC?$AAr?$AAt?$AAD?$AAb?$AAg?$AAR?$AAe?$AAp?$AAo?$AAr?$AAt?$AA?3?$AA?5@ 0000000140044b50     libucrtd:dbgrpt.obj
 0002:00003bb0       ?format_validation_lookup_table_spectre@__crt_stdio_output@@3V?$spectre_mitigated_lookup_table@Ustate_transition_pair@__crt_stdio_output@@$0IA@@1@B 0000000140044bb0     libucrtd:output.obj
 0002:00003d50       ??_C@_1GE@DPGDJKLM@?$AAm?$AAi?$AAn?$AAk?$AAe?$AAr?$AAn?$AAe?$AAl?$AA?2?$AAc?$AAr?$AAt?$AAs?$AA?2@ 0000000140044d50     libucrtd:output.obj
 0002:00003dc0       ??_C@_1GA@MOBAPGIO@?$AAm?$AAi?$AAn?$AAk?$AAe?$AAr?$AAn?$AAe?$AAl?$AA?2?$AAc?$AAr?$AAt?$AAs?$AA?2@ 0000000140044dc0     libucrtd:output.obj
 0002:00003e20       ??_C@_1CE@EAKLPBKK@?$AAf?$AAo?$AAr?$AAm?$AAa?$AAt?$AA?5?$AA?$CB?$AA?$DN?$AA?5?$AAn?$AAu?$AAl?$AAl?$AAp@ 0000000140044e20     libucrtd:output.obj
 0002:00003e48       ??_C@_1CA@PIMGHCEK@?$AAc?$AAo?$AAm?$AAm?$AAo?$AAn?$AA_?$AAv?$AAs?$AAp?$AAr?$AAi?$AAn?$AAt?$AAf@ 0000000140044e48     libucrtd:output.obj
 0002:00003e70       ??_C@_1EO@EGEEFEFM@?$AAb?$AAu?$AAf?$AAf?$AAe?$AAr?$AA_?$AAc?$AAo?$AAu?$AAn?$AAt?$AA?5?$AA?$DN?$AA?$DN@ 0000000140044e70     libucrtd:output.obj
 0002:00003ec0       ??_C@_1CE@JEILLNB@?$AAc?$AAo?$AAm?$AAm?$AAo?$AAn?$AA_?$AAv?$AAs?$AAp?$AAr?$AAi?$AAn?$AAt?$AAf@ 0000000140044ec0     libucrtd:output.obj
 0002:00003ef0       ??_C@_1EM@OAFHAOLH@?$AAb?$AAu?$AAf?$AAf?$AAe?$AAr?$AA?5?$AA?$CB?$AA?$DN?$AA?5?$AAn?$AAu?$AAl?$AAl?$AAp@ 0000000140044ef0     libucrtd:output.obj
 0002:00003f40       ??_C@_1DA@HPBFKMEB@?$AA?$CI?$AA?$CC?$AAB?$AAu?$AAf?$AAf?$AAe?$AAr?$AA?5?$AAt?$AAo?$AAo?$AA?5?$AAs?$AAm@ 0000000140044f40     libucrtd:output.obj
 0002:00003f70       ??_C@_1CG@LHFJHFBB@?$AAc?$AAo?$AAm?$AAm?$AAo?$AAn?$AA_?$AAv?$AAs?$AAn?$AAp?$AAr?$AAi?$AAn?$AAt@ 0000000140044f70     libucrtd:output.obj
 0002:00003f98       ??_C@_1CM@JOIJBMEM@?$AA_?$AAf?$AAo?$AAr?$AAm?$AAa?$AAt?$AA_?$AAi?$AAt?$AA?5?$AA?$CB?$AA?$DN?$AA?5?$AAn@ 0000000140044f98     libucrtd:output.obj
 0002:00003fd0       ??_C@_1HA@DMAAKIJP@?$AAm?$AAi?$AAn?$AAk?$AAe?$AAr?$AAn?$AAe?$AAl?$AA?2?$AAc?$AAr?$AAt?$AAs?$AA?2@ 0000000140044fd0     libucrtd:output.obj
 0002:00004040       ??_C@_1EE@DMAIGNBG@?$AA?$CI?$AA?$CC?$AAI?$AAn?$AAc?$AAo?$AAr?$AAr?$AAe?$AAc?$AAt?$AA?5?$AAf?$AAo?$AAr@ 0000000140045040     libucrtd:output.obj
 0002:00004090       ??_C@_1FG@OBJBDPAC@?$AA?$CI?$AA?$CC?$AAN?$AA?5?$AAl?$AAe?$AAn?$AAg?$AAt?$AAh?$AA?5?$AAm?$AAo?$AAd?$AAi@ 0000000140045090     libucrtd:output.obj
 0002:000040f0       ??_C@_1EC@GJPNJDCN@?$AA_?$AAl?$AAe?$AAn?$AAg?$AAt?$AAh?$AA?5?$AA?$DN?$AA?$DN?$AA?5?$AAl?$AAe?$AAn?$AAg@ 00000001400450f0     libucrtd:output.obj
 0002:00004138       ??_C@_1DG@CEJKFDMO@?$AAs?$AAt?$AAa?$AAt?$AAe?$AA_?$AAc?$AAa?$AAs?$AAe?$AA_?$AAn?$AAo?$AAr?$AAm@ 0000000140045138     libucrtd:output.obj
 0002:00004170       ??_C@_1CI@DDKMNCPP@?$AA_?$AAc?$AAo?$AAn?$AAt?$AAe?$AAx?$AAt?$AA?5?$AA?$CB?$AA?$DN?$AA?5?$AAn?$AAu?$AAl@ 0000000140045170     libucrtd:output.obj
 0002:000041a0       ??_C@_1HK@IIPGOADH@?$AA_?$AA_?$AAc?$AAr?$AAt?$AA_?$AAs?$AAt?$AAd?$AAi?$AAo?$AA_?$AAo?$AAu?$AAt@ 00000001400451a0     libucrtd:output.obj
 0002:00004220       ??_C@_1HE@IACOMEJF@?$AA_?$AA_?$AAc?$AAr?$AAt?$AA_?$AAs?$AAt?$AAd?$AAi?$AAo?$AA_?$AAo?$AAu?$AAt@ 0000000140045220     libucrtd:output.obj
 0002:000042a0       ??_C@_1GC@BNMHNGKM@?$AA_?$AAs?$AAt?$AAa?$AAt?$AAe?$AA?5?$AA?$DN?$AA?$DN?$AA?5?$AAs?$AAt?$AAa?$AAt?$AAe@ 00000001400452a0     libucrtd:output.obj
 0002:00004310       ??_C@_1EK@PNGFDECN@?$AA?$CI?$AA?$CC?$AA?8?$AAn?$AA?8?$AA?5?$AAf?$AAo?$AAr?$AAm?$AAa?$AAt?$AA?5?$AAs?$AAp@ 0000000140045310     libucrtd:output.obj
 0002:00004360       ??_C@_1EO@GHKFGFKL@?$AA?$CI?$AA?$CC?$AAI?$AAn?$AAv?$AAa?$AAl?$AAi?$AAd?$AA?5?$AAi?$AAn?$AAt?$AAe?$AAg@ 0000000140045360     libucrtd:output.obj
 0002:000043b0       ??_C@_1BEC@NDOOKIMC@?$AA_?$AA_?$AAc?$AAr?$AAt?$AA_?$AAs?$AAt?$AAd?$AAi?$AAo?$AA_?$AAo?$AAu?$AAt@ 00000001400453b0     libucrtd:output.obj
 0002:00004500       ??_C@_1BDG@KOLEFKPF@?$AA_?$AA_?$AAc?$AAr?$AAt?$AA_?$AAs?$AAt?$AAd?$AAi?$AAo?$AA_?$AAo?$AAu?$AAt@ 0000000140045500     libucrtd:output.obj
 0002:00004638       ??_C@_1O@CEDCILHN@?$AA?$CI?$AAn?$AAu?$AAl?$AAl?$AA?$CJ@ 0000000140045638     libucrtd:output.obj
 0002:00004648       ??_C@_06OJHGLDPL@?$CInull?$CJ@ 0000000140045648     libucrtd:output.obj
 0002:00004650       ??_C@_1CK@LGDCECDH@?$AA_?$AAf?$AAo?$AAr?$AAm?$AAa?$AAt?$AA_?$AAc?$AAh?$AAa?$AAr?$AA?5?$AA?$CB?$AA?$DN@ 0000000140045650     libucrtd:output.obj
 0002:00004680       ??_C@_0DI@KIFBHMNO@minkernel?2crts?2ucrt?2inc?2corecrt@ 0000000140045680     libucrtd:output.obj
 0002:000046c0       ??_C@_1BMK@JGIBNIA@?$AA_?$AA_?$AAc?$AAr?$AAt?$AA_?$AAs?$AAt?$AAd?$AAi?$AAo?$AA_?$AAo?$AAu?$AAt@ 00000001400456c0     libucrtd:output.obj
 0002:00004890       ??_C@_1BLC@INKIGOCN@?$AA_?$AA_?$AAc?$AAr?$AAt?$AA_?$AAs?$AAt?$AAd?$AAi?$AAo?$AA_?$AAo?$AAu?$AAt@ 0000000140045890     libucrtd:output.obj
 0002:00004a50       ??_C@_1BNK@KHNJGCCP@?$AA_?$AA_?$AAc?$AAr?$AAt?$AA_?$AAs?$AAt?$AAd?$AAi?$AAo?$AA_?$AAo?$AAu?$AAt@ 0000000140045a50     libucrtd:output.obj
 0002:00004c30       ??_C@_1BNO@OHFFMOOJ@?$AA_?$AA_?$AAc?$AAr?$AAt?$AA_?$AAs?$AAt?$AAd?$AAi?$AAo?$AA_?$AAo?$AAu?$AAt@ 0000000140045c30     libucrtd:output.obj
 0002:00004e10       ??_C@_1BMC@FAGJFBLI@?$AA_?$AA_?$AAc?$AAr?$AAt?$AA_?$AAs?$AAt?$AAd?$AAi?$AAo?$AA_?$AAo?$AAu?$AAt@ 0000000140045e10     libucrtd:output.obj
 0002:00004fe0       ??_C@_1BMG@CGPDIFDK@?$AA_?$AA_?$AAc?$AAr?$AAt?$AA_?$AAs?$AAt?$AAd?$AAi?$AAo?$AA_?$AAo?$AAu?$AAt@ 0000000140045fe0     libucrtd:output.obj
 0002:000051b0       ??_C@_1BNC@OHPDPPJK@?$AA_?$AA_?$AAc?$AAr?$AAt?$AA_?$AAs?$AAt?$AAd?$AAi?$AAo?$AA_?$AAo?$AAu?$AAt@ 00000001400461b0     libucrtd:output.obj
 0002:00005390       ??_C@_1BLK@FOLFMPJH@?$AA_?$AA_?$AAc?$AAr?$AAt?$AA_?$AAs?$AAt?$AAd?$AAi?$AAo?$AA_?$AAo?$AAu?$AAt@ 0000000140046390     libucrtd:output.obj
 0002:00005550       ??_C@_1BNC@JPKLPOHO@?$AA_?$AA_?$AAc?$AAr?$AAt?$AA_?$AAs?$AAt?$AAd?$AAi?$AAo?$AA_?$AAo?$AAu?$AAt@ 0000000140046550     libucrtd:output.obj
 0002:00005730       ??_C@_1EO@MLJCKPIB@?$AAb?$AAa?$AAs?$AAe?$AA?5?$AA?$DN?$AA?$DN?$AA?5?$AA0?$AA?5?$AA?$HM?$AA?$HM?$AA?5?$AA?$CI?$AA2@ 0000000140046730     libucrtd:output.obj
 0002:00005780       ??_C@_1DI@BANODKFL@?$AA_?$AA_?$AAc?$AAr?$AAt?$AA_?$AAs?$AAt?$AAr?$AAt?$AAo?$AAx?$AA?3?$AA?3?$AAp@ 0000000140046780     libucrtd:output.obj
 0002:000057c0       ??_C@_1BNO@NAODCKFA@?$AA_?$AA_?$AAc?$AAr?$AAt?$AA_?$AAs?$AAt?$AAd?$AAi?$AAo?$AA_?$AAo?$AAu?$AAt@ 00000001400467c0     libucrtd:output.obj
 0002:000059a0       ??_C@_1BMG@BBEFGBID@?$AA_?$AA_?$AAc?$AAr?$AAt?$AA_?$AAs?$AAt?$AAd?$AAi?$AAo?$AA_?$AAo?$AAu?$AAt@ 00000001400469a0     libucrtd:output.obj
 0002:00005b68       ??_C@_1CM@GJENOOEJ@?$AAc?$AA?5?$AA?$DN?$AA?$DN?$AA?5?$AA?8?$AA?2?$AA0?$AA?8?$AA?5?$AA?$HM?$AA?$HM?$AA?5?$AA?$CK?$AA_@ 0000000140046b68     libucrtd:output.obj
 0002:00005ba0       ??_C@_1GK@MNHIDABG@?$AA_?$AA_?$AAc?$AAr?$AAt?$AA_?$AAs?$AAt?$AAr?$AAt?$AAo?$AAx?$AA?3?$AA?3?$AAc@ 0000000140046ba0     libucrtd:output.obj
 0002:00005c10       ??_C@_1BM@PNEBBBDO@?$AA_?$AAp?$AA?5?$AA?$CB?$AA?$DN?$AA?5?$AAn?$AAu?$AAl?$AAl?$AAp?$AAt?$AAr@ 0000000140046c10     libucrtd:output.obj
 0002:00005c30       ??_C@_1HA@MKKIHBHP@?$AA_?$AA_?$AAc?$AAr?$AAt?$AA_?$AAs?$AAt?$AAr?$AAt?$AAo?$AAx?$AA?3?$AA?3?$AAc@ 0000000140046c30     libucrtd:output.obj
 0002:00005ca0       ??_C@_1HA@CONLANFI@?$AA_?$AA_?$AAc?$AAr?$AAt?$AA_?$AAs?$AAt?$AAr?$AAt?$AAo?$AAx?$AA?3?$AA?3?$AAc@ 0000000140046ca0     libucrtd:output.obj
 0002:00005d10       ??_C@_1HG@FCDBLOEG@?$AA_?$AA_?$AAc?$AAr?$AAt?$AA_?$AAs?$AAt?$AAr?$AAt?$AAo?$AAx?$AA?3?$AA?3?$AAc@ 0000000140046d10     libucrtd:output.obj
 0002:00005e78       ??_C@_0DM@DKIFNNOL@minkernel?2crts?2ucrt?2src?2appcrt?2@ 0000000140046e78     libucrtd:per_thread_data.obj
 0002:00005eb8       ??_C@_1DE@BCNCAIK@?$AA?$CI?$AA?$CC?$AAI?$AAn?$AAv?$AAa?$AAl?$AAi?$AAd?$AA?5?$AAe?$AAr?$AAr?$AAo?$AAr@ 0000000140046eb8     libucrtd:set_error_mode.obj
 0002:00005ef0       ??_C@_1GO@EBFPMMIJ@?$AAm?$AAi?$AAn?$AAk?$AAe?$AAr?$AAn?$AAe?$AAl?$AA?2?$AAc?$AAr?$AAt?$AAs?$AA?2@ 0000000140046ef0     libucrtd:set_error_mode.obj
 0002:00005f60       ??_C@_1CA@LFDHAMEM@?$AA_?$AAs?$AAe?$AAt?$AA_?$AAe?$AAr?$AAr?$AAo?$AAr?$AA_?$AAm?$AAo?$AAd?$AAe@ 0000000140046f60     libucrtd:set_error_mode.obj
 0002:00005f80       ??_C@_1CA@EOJJMFA@?$AAc?$AAo?$AAm?$AAm?$AAo?$AAn?$AA_?$AAt?$AAc?$AAs?$AAc?$AAa?$AAt?$AA_?$AAs@ 0000000140046f80     libucrtd:wcscat_s.obj
 0002:00005fa0       ??_C@_1DM@FHLMIEG@?$AAS?$AAt?$AAr?$AAi?$AAn?$AAg?$AA?5?$AAi?$AAs?$AA?5?$AAn?$AAo?$AAt?$AA?5?$AAn@ 0000000140046fa0     libucrtd:wcscat_s.obj
 0002:00005fe0       ??_C@_1FA@MJKDNFFB@?$AA?$CI?$AAL?$AA?$CC?$AAS?$AAt?$AAr?$AAi?$AAn?$AAg?$AA?5?$AAi?$AAs?$AA?5?$AAn?$AAo@ 0000000140046fe0     libucrtd:wcscat_s.obj
 0002:00006030       ??_C@_1CC@CHNFGJIC@?$AAc?$AAo?$AAm?$AAm?$AAo?$AAn?$AA_?$AAt?$AAc?$AAs?$AAn?$AAc?$AAp?$AAy?$AA_@ 0000000140047030     libucrtd:wcsncpy_s.obj
 0002:000061c8       ??_C@_1CE@JMFACANE@?$AAr?$AAe?$AAs?$AAu?$AAl?$AAt?$AA?5?$AA?$CB?$AA?$DN?$AA?5?$AAn?$AAu?$AAl?$AAl?$AAp@ 00000001400471c8     libucrtd:errno.obj
 0002:00006290       ??_C@_0DI@DNFGFCIK@minkernel?2crts?2ucrt?2inc?2corecrt@ 0000000140047290     libucrtd:argv_wildcards.obj
 0002:000062d0       ??_C@_1HE@CEMHPOHH@?$AAm?$AAi?$AAn?$AAk?$AAe?$AAr?$AAn?$AAe?$AAl?$AA?2?$AAc?$AAr?$AAt?$AAs?$AA?2@ 00000001400472d0     libucrtd:argv_wildcards.obj
 0002:00006348       ??_C@_1DK@IBFFOJGB@?$AAc?$AAo?$AAm?$AAm?$AAo?$AAn?$AA_?$AAe?$AAx?$AAp?$AAa?$AAn?$AAd?$AA_?$AAa@ 0000000140047348     libucrtd:argv_wildcards.obj
 0002:00006390       ??_C@_1MC@FLPKOFON@?$AAt?$AAr?$AAa?$AAi?$AAt?$AAs?$AA?3?$AA?3?$AAt?$AAc?$AAs?$AAn?$AAc?$AAp?$AAy@ 0000000140047390     libucrtd:argv_wildcards.obj
 0002:00006458       ??_C@_0DK@FPFMIIJB@minkernel?2crts?2ucrt?2src?2appcrt?2@ 0000000140047458     libucrtd:argv_wildcards.obj
 0002:000064a0       ??_C@_1EA@KOCCBLAD@?$AAc?$AAo?$AAp?$AAy?$AA_?$AAa?$AAn?$AAd?$AA_?$AAa?$AAd?$AAd?$AA_?$AAa?$AAr@ 00000001400474a0     libucrtd:argv_wildcards.obj
 0002:000064e0       ??_C@_1KM@GDJIGAGL@?$AAt?$AAr?$AAa?$AAi?$AAt?$AAs?$AA?3?$AA?3?$AAt?$AAc?$AAs?$AAn?$AAc?$AAp?$AAy@ 00000001400474e0     libucrtd:argv_wildcards.obj
 0002:00006590       ??_C@_1PI@FGFLAGCC@?$AAt?$AAr?$AAa?$AAi?$AAt?$AAs?$AA?3?$AA?3?$AAt?$AAc?$AAs?$AAn?$AAc?$AAp?$AAy@ 0000000140047590     libucrtd:argv_wildcards.obj
 0002:000066d0       ??_C@_1M@HPNHIDJI@?$AAj?$AAa?$AA?9?$AAJ?$AAP@ 00000001400476d0     libucrtd:mbctype.obj
 0002:000066e0       ??_C@_1M@BIBDDEMK@?$AAz?$AAh?$AA?9?$AAC?$AAN@ 00000001400476e0     libucrtd:mbctype.obj
 0002:000066f0       ??_C@_1M@JLOOOEGK@?$AAk?$AAo?$AA?9?$AAK?$AAR@ 00000001400476f0     libucrtd:mbctype.obj
 0002:00006700       ??_C@_1M@CLNBBOPM@?$AAz?$AAh?$AA?9?$AAT?$AAW@ 0000000140047700     libucrtd:mbctype.obj
 0002:00006760       ??_C@_0DE@HGDKNBFD@minkernel?2crts?2ucrt?2src?2appcrt?2@ 0000000140047760     libucrtd:mbctype.obj
 0002:000067a0       ??_C@_0ED@BLPEHJAI@minkernel?2crts?2ucrt?2src?2desktop@ 00000001400477a0     libucrtd:get_environment_from_os.obj
 0002:000067f0       ??_C@_1FO@NMANMHOD@?$AAc?$AAa?$AAc?$AAh?$AAe?$AAd?$AA_?$AAs?$AAt?$AAa?$AAt?$AAe?$AA?5?$AA?$DN?$AA?$DN@ 00000001400477f0     libucrtd:win_policies.obj
 0002:00006850       ??_C@_1HC@GHLNKBJK@?$AAm?$AAi?$AAn?$AAk?$AAe?$AAr?$AAn?$AAe?$AAl?$AA?2?$AAc?$AAr?$AAt?$AAs?$AA?2@ 0000000140047850     libucrtd:win_policies.obj
 0002:000068c8       ??_C@_0DB@JFFPGLDM@minkernel?2crts?2ucrt?2src?2appcrt?2@ 00000001400478c8     libucrtd:osfinfo.obj
 0002:00006900       ??_C@_1EM@BPODPNEJ@?$AAs?$AAt?$AAa?$AAt?$AAi?$AAc?$AA_?$AAc?$AAa?$AAs?$AAt?$AA?$DM?$AAu?$AAn?$AAs@ 0000000140047900     libucrtd:osfinfo.obj
 0002:00006950       ??_C@_1GC@LDGKBAFM@?$AAm?$AAi?$AAn?$AAk?$AAe?$AAr?$AAn?$AAe?$AAl?$AA?2?$AAc?$AAr?$AAt?$AAs?$AA?2@ 0000000140047950     libucrtd:osfinfo.obj
 0002:000069b8       ??_C@_1DM@JELNOMLN@?$AA_?$AA_?$AAa?$AAc?$AAr?$AAt?$AA_?$AAl?$AAo?$AAw?$AAi?$AAo?$AA_?$AAe?$AAn@ 00000001400479b8     libucrtd:osfinfo.obj
 0002:00006a00       ??_C@_1FK@MGHFJLAL@?$AAf?$AAh?$AA?5?$AA?$DO?$AA?$DN?$AA?5?$AA0?$AA?5?$AA?$CG?$AA?$CG?$AA?5?$AA?$CI?$AAu?$AAn?$AAs@ 0000000140047a00     libucrtd:osfinfo.obj
 0002:00006a60       ??_C@_1BO@EMBOBGKE@?$AA_?$AAg?$AAe?$AAt?$AA_?$AAo?$AAs?$AAf?$AAh?$AAa?$AAn?$AAd?$AAl?$AAe@ 0000000140047a60     libucrtd:osfinfo.obj
 0002:00006a80       ??_C@_1CI@ILOIOBLM@?$AA_?$AAo?$AAs?$AAf?$AAi?$AAl?$AAe?$AA?$CI?$AAf?$AAh?$AA?$CJ?$AA?5?$AA?$CG?$AA?5?$AAF@ 0000000140047a80     libucrtd:osfinfo.obj
 0002:00006ab0       __lc_time_c                0000000140047ab0     libucrtd:nlsdata.obj
 0002:00006d70       ??_C@_03KOEHGMDN@Sun@      0000000140047d70     libucrtd:nlsdata.obj
 0002:00006d74       ??_C@_03PDAGKDH@Mon@       0000000140047d74     libucrtd:nlsdata.obj
 0002:00006d78       ??_C@_03NAGEINEP@Tue@      0000000140047d78     libucrtd:nlsdata.obj
 0002:00006d7c       ??_C@_03MHOMLAJA@Wed@      0000000140047d7c     libucrtd:nlsdata.obj
 0002:00006d80       ??_C@_03IOFIKPDN@Thu@      0000000140047d80     libucrtd:nlsdata.obj
 0002:00006d84       ??_C@_03IDIOELNC@Fri@      0000000140047d84     libucrtd:nlsdata.obj
 0002:00006d88       ??_C@_03FEFJNEK@Sat@       0000000140047d88     libucrtd:nlsdata.obj
 0002:00006d8c       ??_C@_06OOPIFAJ@Sunday@    0000000140047d8c     libucrtd:nlsdata.obj
 0002:00006d94       ??_C@_06JLEDEDGH@Monday@   0000000140047d94     libucrtd:nlsdata.obj
 0002:00006da0       ??_C@_07BAAGCFCM@Tuesday@  0000000140047da0     libucrtd:nlsdata.obj
 0002:00006da8       ??_C@_09DLIGFAKA@Wednesday@ 0000000140047da8     libucrtd:nlsdata.obj
 0002:00006db8       ??_C@_08HACCIKIA@Thursday@ 0000000140047db8     libucrtd:nlsdata.obj
 0002:00006dc4       ??_C@_06JECMNKMI@Friday@   0000000140047dc4     libucrtd:nlsdata.obj
 0002:00006dd0       ??_C@_08INBOOONO@Saturday@ 0000000140047dd0     libucrtd:nlsdata.obj
 0002:00006ddc       ??_C@_03JIHJHPIE@Jan@      0000000140047ddc     libucrtd:nlsdata.obj
 0002:00006de0       ??_C@_03HJBDCHOM@Feb@      0000000140047de0     libucrtd:nlsdata.obj
 0002:00006de4       ??_C@_03ODNJBKGA@Mar@      0000000140047de4     libucrtd:nlsdata.obj
 0002:00006de8       ??_C@_03LEOLGMJP@Apr@      0000000140047de8     libucrtd:nlsdata.obj
 0002:00006dec       ??_C@_03CNMDKL@May@        0000000140047dec     libucrtd:nlsdata.obj
 0002:00006df0       ??_C@_03IDFGHECI@Jun@      0000000140047df0     libucrtd:nlsdata.obj
 0002:00006df4       ??_C@_03LBGABGKK@Jul@      0000000140047df4     libucrtd:nlsdata.obj
 0002:00006df8       ??_C@_03IFJFEIGA@Aug@      0000000140047df8     libucrtd:nlsdata.obj
 0002:00006dfc       ??_C@_03GGCAPAJC@Sep@      0000000140047dfc     libucrtd:nlsdata.obj
 0002:00006e00       ??_C@_03BMAOKBAD@Oct@      0000000140047e00     libucrtd:nlsdata.obj
 0002:00006e04       ??_C@_03JPJOFNIA@Nov@      0000000140047e04     libucrtd:nlsdata.obj
 0002:00006e08       ??_C@_03MKABNOCG@Dec@      0000000140047e08     libucrtd:nlsdata.obj
 0002:00006e10       ??_C@_07CGJPFGJA@January@  0000000140047e10     libucrtd:nlsdata.obj
 0002:00006e18       ??_C@_08GNJGEPFN@February@ 0000000140047e18     libucrtd:nlsdata.obj
 0002:00006e24       ??_C@_05HPCKOFNC@March@    0000000140047e24     libucrtd:nlsdata.obj
 0002:00006e2c       ??_C@_05DMJDNLEJ@April@    0000000140047e2c     libucrtd:nlsdata.obj
 0002:00006e34       ??_C@_04CNLMGBGM@June@     0000000140047e34     libucrtd:nlsdata.obj
 0002:00006e3c       ??_C@_04MIEPOIFP@July@     0000000140047e3c     libucrtd:nlsdata.obj
 0002:00006e44       ??_C@_06LBBHFDDG@August@   0000000140047e44     libucrtd:nlsdata.obj
 0002:00006e50       ??_C@_09BHHEALKD@September@ 0000000140047e50     libucrtd:nlsdata.obj
 0002:00006e60       ??_C@_07JJNFCEND@October@  0000000140047e60     libucrtd:nlsdata.obj
 0002:00006e68       ??_C@_08HCHEGEOA@November@ 0000000140047e68     libucrtd:nlsdata.obj
 0002:00006e78       ??_C@_08EDHMEBNP@December@ 0000000140047e78     libucrtd:nlsdata.obj
 0002:00006e84       ??_C@_02DEDBPAFC@AM@       0000000140047e84     libucrtd:nlsdata.obj
 0002:00006e88       ??_C@_02CJNFDJBF@PM@       0000000140047e88     libucrtd:nlsdata.obj
 0002:00006e90       ??_C@_08BPBNCDIB@MM?1dd?1yy@ 0000000140047e90     libucrtd:nlsdata.obj
 0002:00006ea0       ??_C@_0BE@CKGJFCPC@dddd?0?5MMMM?5dd?0?5yyyy@ 0000000140047ea0     libucrtd:nlsdata.obj
 0002:00006eb8       ??_C@_08JCCMCCIL@HH?3mm?3ss@ 0000000140047eb8     libucrtd:nlsdata.obj
 0002:00006ec8       ??_C@_17MBGCMIPB@?$AAS?$AAu?$AAn@ 0000000140047ec8     libucrtd:nlsdata.obj
 0002:00006ed0       ??_C@_17KBOMKBF@?$AAM?$AAo?$AAn@ 0000000140047ed0     libucrtd:nlsdata.obj
 0002:00006ed8       ??_C@_17BMKGEGOJ@?$AAT?$AAu?$AAe@ 0000000140047ed8     libucrtd:nlsdata.obj
 0002:00006ee0       ??_C@_17CJEDCEPE@?$AAW?$AAe?$AAd@ 0000000140047ee0     libucrtd:nlsdata.obj
 0002:00006ee8       ??_C@_17PDPHAADD@?$AAT?$AAh?$AAu@ 0000000140047ee8     libucrtd:nlsdata.obj
 0002:00006ef0       ??_C@_17HFOLPPLP@?$AAF?$AAr?$AAi@ 0000000140047ef0     libucrtd:nlsdata.obj
 0002:00006ef8       ??_C@_17GGIBDPIH@?$AAS?$AAa?$AAt@ 0000000140047ef8     libucrtd:nlsdata.obj
 0002:00006f00       ??_C@_1O@IHNHDHPB@?$AAS?$AAu?$AAn?$AAd?$AAa?$AAy@ 0000000140047f00     libucrtd:nlsdata.obj
 0002:00006f10       ??_C@_1O@MMNBFLIA@?$AAM?$AAo?$AAn?$AAd?$AAa?$AAy@ 0000000140047f10     libucrtd:nlsdata.obj
 0002:00006f20       ??_C@_1BA@ENFBFFEK@?$AAT?$AAu?$AAe?$AAs?$AAd?$AAa?$AAy@ 0000000140047f20     libucrtd:nlsdata.obj
 0002:00006f30       ??_C@_1BE@EBOGMDOH@?$AAW?$AAe?$AAd?$AAn?$AAe?$AAs?$AAd?$AAa?$AAy@ 0000000140047f30     libucrtd:nlsdata.obj
 0002:00006f48       ??_C@_1BC@HHMNLIHE@?$AAT?$AAh?$AAu?$AAr?$AAs?$AAd?$AAa?$AAy@ 0000000140047f48     libucrtd:nlsdata.obj
 0002:00006f60       ??_C@_1O@PDICJHAG@?$AAF?$AAr?$AAi?$AAd?$AAa?$AAy@ 0000000140047f60     libucrtd:nlsdata.obj
 0002:00006f70       ??_C@_1BC@ENMNNPAJ@?$AAS?$AAa?$AAt?$AAu?$AAr?$AAd?$AAa?$AAy@ 0000000140047f70     libucrtd:nlsdata.obj
 0002:00006f88       ??_C@_17DKNBKCHM@?$AAJ?$AAa?$AAn@ 0000000140047f88     libucrtd:nlsdata.obj
 0002:00006f90       ??_C@_17LMDJEKJN@?$AAF?$AAe?$AAb@ 0000000140047f90     libucrtd:nlsdata.obj
 0002:00006f98       ??_C@_17CKNLEDEC@?$AAM?$AAa?$AAr@ 0000000140047f98     libucrtd:nlsdata.obj
 0002:00006fa0       ??_C@_17LFPOIHDD@?$AAA?$AAp?$AAr@ 0000000140047fa0     libucrtd:nlsdata.obj
 0002:00006fa8       ??_C@_17PNNKMEED@?$AAM?$AAa?$AAy@ 0000000140047fa8     libucrtd:nlsdata.obj
 0002:00006fb0       ??_C@_17KCJGOCPB@?$AAJ?$AAu?$AAn@ 0000000140047fb0     libucrtd:nlsdata.obj
 0002:00006fb8       ??_C@_17IJPCKHK@?$AAJ?$AAu?$AAl@ 0000000140047fb8     libucrtd:nlsdata.obj
 0002:00006fc0       ??_C@_17ICPELBCN@?$AAA?$AAu?$AAg@ 0000000140047fc0     libucrtd:nlsdata.obj
 0002:00006fc8       ??_C@_17HCHCOKMG@?$AAS?$AAe?$AAp@ 0000000140047fc8     libucrtd:nlsdata.obj
 0002:00006fd0       ??_C@_17FNLKOI@?$AAO?$AAc?$AAt@ 0000000140047fd0     libucrtd:nlsdata.obj
 0002:00006fd8       ??_C@_17BBDMLCIG@?$AAN?$AAo?$AAv@ 0000000140047fd8     libucrtd:nlsdata.obj
 0002:00006fe0       ??_C@_17EGKACKIF@?$AAD?$AAe?$AAc@ 0000000140047fe0     libucrtd:nlsdata.obj
 0002:00006fe8       ??_C@_1BA@EFMEIEBA@?$AAJ?$AAa?$AAn?$AAu?$AAa?$AAr?$AAy@ 0000000140047fe8     libucrtd:nlsdata.obj
 0002:00006ff8       ??_C@_1BC@JGDDFFAM@?$AAF?$AAe?$AAb?$AAr?$AAu?$AAa?$AAr?$AAy@ 0000000140047ff8     libucrtd:nlsdata.obj
 0002:00007010       ??_C@_1M@IKEENEDF@?$AAM?$AAa?$AAr?$AAc?$AAh@ 0000000140048010     libucrtd:nlsdata.obj
 0002:00007020       ??_C@_1M@GJNLMHFD@?$AAA?$AAp?$AAr?$AAi?$AAl@ 0000000140048020     libucrtd:nlsdata.obj
 0002:00007030       ??_C@_19EPFLPGAP@?$AAJ?$AAu?$AAn?$AAe@ 0000000140048030     libucrtd:nlsdata.obj
 0002:00007040       ??_C@_19BIFMLPCD@?$AAJ?$AAu?$AAl?$AAy@ 0000000140048040     libucrtd:nlsdata.obj
 0002:00007050       ??_C@_1O@PAHLKOAC@?$AAA?$AAu?$AAg?$AAu?$AAs?$AAt@ 0000000140048050     libucrtd:nlsdata.obj
 0002:00007060       ??_C@_1BE@DKAAMBJL@?$AAS?$AAe?$AAp?$AAt?$AAe?$AAm?$AAb?$AAe?$AAr@ 0000000140048060     libucrtd:nlsdata.obj
 0002:00007078       ??_C@_1BA@EPANDLNG@?$AAO?$AAc?$AAt?$AAo?$AAb?$AAe?$AAr@ 0000000140048078     libucrtd:nlsdata.obj
 0002:00007088       ??_C@_1BC@BGLIFPF@?$AAN?$AAo?$AAv?$AAe?$AAm?$AAb?$AAe?$AAr@ 0000000140048088     libucrtd:nlsdata.obj
 0002:000070a0       ??_C@_1BC@FEMKIFH@?$AAD?$AAe?$AAc?$AAe?$AAm?$AAb?$AAe?$AAr@ 00000001400480a0     libucrtd:nlsdata.obj
 0002:000070b4       ??_C@_15ODEHAHHF@?$AAA?$AAM@ 00000001400480b4     libucrtd:nlsdata.obj
 0002:000070bc       ??_C@_15CLMNNGEL@?$AAP?$AAM@ 00000001400480bc     libucrtd:nlsdata.obj
 0002:000070c8       ??_C@_1BC@IEBCMHCM@?$AAM?$AAM?$AA?1?$AAd?$AAd?$AA?1?$AAy?$AAy@ 00000001400480c8     libucrtd:nlsdata.obj
 0002:000070e0       ??_C@_1CI@KNAKOEBC@?$AAd?$AAd?$AAd?$AAd?$AA?0?$AA?5?$AAM?$AAM?$AAM?$AAM?$AA?5?$AAd?$AAd?$AA?0?$AA?5@ 00000001400480e0     libucrtd:nlsdata.obj
 0002:00007108       ??_C@_1BC@GDGBMEMK@?$AAH?$AAH?$AA?3?$AAm?$AAm?$AA?3?$AAs?$AAs@ 0000000140048108     libucrtd:nlsdata.obj
 0002:00007120       ??_C@_1M@BMHNFIME@?$AAe?$AAn?$AA?9?$AAU?$AAS@ 0000000140048120     libucrtd:nlsdata.obj
 0002:00007130       __newctype                 0000000140048130     libucrtd:ctype.obj
 0002:00007430       __newclmap                 0000000140048430     libucrtd:ctype.obj
 0002:000075b0       __newcumap                 00000001400485b0     libucrtd:ctype.obj
 0002:00007730       ??_C@_1CI@JELMFMDH@?$AAc?$AA?5?$AA?$DO?$AA?$DN?$AA?5?$AA?9?$AA1?$AA?5?$AA?$CG?$AA?$CG?$AA?5?$AAc?$AA?5?$AA?$DM?$AA?$DN@ 0000000140048730     libucrtd:isctype.obj
 0002:00007760       ??_C@_1GG@KPBGDFHJ@?$AAm?$AAi?$AAn?$AAk?$AAe?$AAr?$AAn?$AAe?$AAl?$AA?2?$AAc?$AAr?$AAt?$AAs?$AA?2@ 0000000140048760     libucrtd:isctype.obj
 0002:000077d0       ??_C@_1FE@KNPCCODH@?$AA?$CI?$AA?$CC?$AAC?$AAo?$AAr?$AAr?$AAu?$AAp?$AAt?$AAe?$AAd?$AA?5?$AAp?$AAo?$AAi@ 00000001400487d0     libucrtd:getstringtypea.obj
 0002:00007830       ??_C@_1EM@GPJLADAA@?$AAV?$AAC?$AAC?$AAR?$AAT?$AA?2?$AAv?$AAc?$AAr?$AAu?$AAn?$AAt?$AAi?$AAm?$AAe@ 0000000140048830     libucrtd:getstringtypea.obj
 0002:00007880       ??_C@_0DJ@HCPJODDK@minkernel?2crts?2ucrt?2src?2appcrt?2@ 0000000140048880     libucrtd:getstringtypea.obj
 0002:000078c0       ??_C@_1BKC@NBNHJIDM@?$AA?$CI?$AAp?$AAt?$AAl?$AAo?$AAc?$AAi?$AA?9?$AA?$DO?$AAl?$AAc?$AA_?$AAc?$AAa?$AAt@ 00000001400488c0     libucrtd:locale_refcounting.obj
 0002:00007a70       ??_C@_1HK@HCNMEOLA@?$AAm?$AAi?$AAn?$AAk?$AAe?$AAr?$AAn?$AAe?$AAl?$AA?2?$AAc?$AAr?$AAt?$AAs?$AA?2@ 0000000140048a70     libucrtd:locale_refcounting.obj
 0002:00007aec       ??_C@_15PJPFLCCM@?$AAu?$AAk@ 0000000140048aec     libucrtd:get_qualified_locale.obj
 0002:00007ba0       ??_C@_1EA@JGEFHKEI@?$AAa?$AAp?$AAi?$AA?9?$AAm?$AAs?$AA?9?$AAw?$AAi?$AAn?$AA?9?$AAc?$AAo?$AAr?$AAe@ 0000000140048ba0     libucrtd:winapi_thunks.obj
 0002:00007be0       ??_C@_1DI@IJCEHOCB@?$AAa?$AAp?$AAi?$AA?9?$AAm?$AAs?$AA?9?$AAw?$AAi?$AAn?$AA?9?$AAc?$AAo?$AAr?$AAe@ 0000000140048be0     libucrtd:winapi_thunks.obj
 0002:00007c20       ??_C@_1EI@MPIAOHOC@?$AAa?$AAp?$AAi?$AA?9?$AAm?$AAs?$AA?9?$AAw?$AAi?$AAn?$AA?9?$AAc?$AAo?$AAr?$AAe@ 0000000140048c20     libucrtd:winapi_thunks.obj
 0002:00007c70       ??_C@_1FK@FPHCKFIE@?$AAa?$AAp?$AAi?$AA?9?$AAm?$AAs?$AA?9?$AAw?$AAi?$AAn?$AA?9?$AAc?$AAo?$AAr?$AAe@ 0000000140048c70     libucrtd:winapi_thunks.obj
 0002:00007cd0       ??_C@_1EM@DILCGIIO@?$AAa?$AAp?$AAi?$AA?9?$AAm?$AAs?$AA?9?$AAw?$AAi?$AAn?$AA?9?$AAc?$AAo?$AAr?$AAe@ 0000000140048cd0     libucrtd:winapi_thunks.obj
 0002:00007d20       ??_C@_1DM@LNCGDDPN@?$AAa?$AAp?$AAi?$AA?9?$AAm?$AAs?$AA?9?$AAw?$AAi?$AAn?$AA?9?$AAc?$AAo?$AAr?$AAe@ 0000000140048d20     libucrtd:winapi_thunks.obj
 0002:00007d60       ??_C@_1DO@FPAPJEMD@?$AAa?$AAp?$AAi?$AA?9?$AAm?$AAs?$AA?9?$AAw?$AAi?$AAn?$AA?9?$AAc?$AAo?$AAr?$AAe@ 0000000140048d60     libucrtd:winapi_thunks.obj
 0002:00007da0       ??_C@_1DK@NDHNAHIO@?$AAa?$AAp?$AAi?$AA?9?$AAm?$AAs?$AA?9?$AAw?$AAi?$AAn?$AA?9?$AAc?$AAo?$AAr?$AAe@ 0000000140048da0     libucrtd:winapi_thunks.obj
 0002:00007de0       ??_C@_1DM@KGHDGBCM@?$AAa?$AAp?$AAi?$AA?9?$AAm?$AAs?$AA?9?$AAw?$AAi?$AAn?$AA?9?$AAc?$AAo?$AAr?$AAe@ 0000000140048de0     libucrtd:winapi_thunks.obj
 0002:00007e20       ??_C@_1EO@IJIOEFOH@?$AAa?$AAp?$AAi?$AA?9?$AAm?$AAs?$AA?9?$AAw?$AAi?$AAn?$AA?9?$AAr?$AAt?$AAc?$AAo@ 0000000140048e20     libucrtd:winapi_thunks.obj
 0002:00007e70       ??_C@_1FG@HHGEKANL@?$AAa?$AAp?$AAi?$AA?9?$AAm?$AAs?$AA?9?$AAw?$AAi?$AAn?$AA?9?$AAs?$AAe?$AAc?$AAu@ 0000000140048e70     libucrtd:winapi_thunks.obj
 0002:00007ed0       ??_C@_1EG@DBIOJECG@?$AAe?$AAx?$AAt?$AA?9?$AAm?$AAs?$AA?9?$AAw?$AAi?$AAn?$AA?9?$AAn?$AAt?$AAu?$AAs@ 0000000140048ed0     libucrtd:winapi_thunks.obj
 0002:00007f20       ??_C@_1EO@FIHMJCLF@?$AAe?$AAx?$AAt?$AA?9?$AAm?$AAs?$AA?9?$AAw?$AAi?$AAn?$AA?9?$AAn?$AAt?$AAu?$AAs@ 0000000140048f20     libucrtd:winapi_thunks.obj
 0002:00007f70       ??_C@_1BC@DNHGCMLG@?$AAa?$AAd?$AAv?$AAa?$AAp?$AAi?$AA3?$AA2@ 0000000140048f70     libucrtd:winapi_thunks.obj
 0002:00007f88       ??_C@_1M@OAIMIKLP@?$AAn?$AAt?$AAd?$AAl?$AAl@ 0000000140048f88     libucrtd:winapi_thunks.obj
 0002:00007fa0       ??_C@_1EG@DPGNFKGC@?$AAa?$AAp?$AAi?$AA?9?$AAm?$AAs?$AA?9?$AAw?$AAi?$AAn?$AA?9?$AAa?$AAp?$AAp?$AAm@ 0000000140048fa0     libucrtd:winapi_thunks.obj
 0002:00007fe8       ??_C@_1O@BCCLBEOE@?$AAu?$AAs?$AAe?$AAr?$AA3?$AA2@ 0000000140048fe8     libucrtd:winapi_thunks.obj
 0002:00008000       ??_C@_1HE@OILMBOBA@?$AAm?$AAi?$AAn?$AAk?$AAe?$AAr?$AAn?$AAe?$AAl?$AA?2?$AAc?$AAr?$AAt?$AAs?$AA?2@ 0000000140049000     libucrtd:winapi_thunks.obj
 0002:00008078       ??_C@_0BA@FHFNEAED@AreFileApisANSI@ 0000000140049078     libucrtd:winapi_thunks.obj
 0002:00008090       ??_C@_0BA@HNOPNCHB@GetActiveWindow@ 0000000140049090     libucrtd:winapi_thunks.obj
 0002:000080a8       ??_C@_0BD@HHGDFDBJ@GetLastActivePopup@ 00000001400490a8     libucrtd:winapi_thunks.obj
 0002:000080c8       ??_C@_0BI@DFKBFLJE@GetProcessWindowStation@ 00000001400490c8     libucrtd:winapi_thunks.obj
 0002:000080e8       ??_C@_0BK@DEKFELLI@GetUserObjectInformationW@ 00000001400490e8     libucrtd:winapi_thunks.obj
 0002:00008118       ??_C@_0O@KKBNKAPF@LCMapStringEx@ 0000000140049118     libucrtd:winapi_thunks.obj
 0002:00008130       ??_C@_0BB@HBDEELFH@LocaleNameToLCID@ 0000000140049130     libucrtd:winapi_thunks.obj
 0002:00008150       ??_C@_0M@CHKKJDAI@MessageBoxA@ 0000000140049150     libucrtd:winapi_thunks.obj
 0002:00008168       ??_C@_0M@DLDCCGNP@MessageBoxW@ 0000000140049168     libucrtd:winapi_thunks.obj
 0002:00008178       ??_C@_0CF@OJOFEIGO@AppPolicyGetProcessTerminationM@ 0000000140049178     libucrtd:winapi_thunks.obj
 0002:000081a8       ??_C@_0CE@OICFMIKE@AppPolicyGetShowDeveloperDiagno@ 00000001400491a8     libucrtd:winapi_thunks.obj
 0002:000081d0       ??_C@_0BL@ODDJNEDA@AppPolicyGetWindowingModel@ 00000001400491d0     libucrtd:winapi_thunks.obj
 0002:00008218       ??_C@_1DA@NBILLKNO@?$AAl?$AAo?$AAc?$AAa?$AAl?$AA_?$AAa?$AAc?$AAt?$AAi?$AAo?$AAn?$AA?5?$AA?$CB?$AA?$DN@ 0000000140049218     libucrtd:signal.obj
 0002:00008250       ??_C@_1FO@CCGDPEKE@?$AAm?$AAi?$AAn?$AAk?$AAe?$AAr?$AAn?$AAe?$AAl?$AA?2?$AAc?$AAr?$AAt?$AAs?$AA?2@ 0000000140049250     libucrtd:signal.obj
 0002:000082b0       ??_C@_1M@DMJEIKHL@?$AAr?$AAa?$AAi?$AAs?$AAe@ 00000001400492b0     libucrtd:signal.obj
 0002:000082c0       ??_C@_1DO@MLNEDKGB@?$AA?$CI?$AA?$CC?$AAI?$AAn?$AAv?$AAa?$AAl?$AAi?$AAd?$AA?5?$AAs?$AAi?$AAg?$AAn?$AAa@ 00000001400492c0     libucrtd:signal.obj
 0002:00008300       ??_C@_1DC@OGOLMDEL@?$AAp?$AAu?$AAb?$AAl?$AAi?$AAc?$AA_?$AAs?$AAt?$AAr?$AAe?$AAa?$AAm?$AA?5?$AA?$CB@ 0000000140049300     libucrtd:_sftbuf.obj
 0002:00008340       ??_C@_1FO@GEKPJHID@?$AAm?$AAi?$AAn?$AAk?$AAe?$AAr?$AAn?$AAe?$AAl?$AA?2?$AAc?$AAr?$AAt?$AAs?$AA?2@ 0000000140049340     libucrtd:expand.obj
 0002:000083a0       ??_C@_1BK@JMCGJOCC@?$AA_?$AAe?$AAx?$AAp?$AAa?$AAn?$AAd?$AA_?$AAb?$AAa?$AAs?$AAe@ 00000001400493a0     libucrtd:expand.obj
 0002:000083c0       ??_C@_1GA@LFAOKOOP@?$AAm?$AAi?$AAn?$AAk?$AAe?$AAr?$AAn?$AAe?$AAl?$AA?2?$AAc?$AAr?$AAt?$AAs?$AA?2@ 00000001400493c0     libucrtd:dbgrptt.obj
 0002:00008420       ??_C@_1CA@KHJHLKA@?$AA_?$AAV?$AAC?$AAr?$AAt?$AAD?$AAb?$AAg?$AAR?$AAe?$AAp?$AAo?$AAr?$AAt?$AAA@ 0000000140049420     libucrtd:dbgrptt.obj
 0002:00008440       ??_C@_1FA@JPHJBHEM@?$AA_?$AAi?$AAt?$AAo?$AAa?$AA_?$AAs?$AA?$CI?$AAn?$AAL?$AAi?$AAn?$AAe?$AA?0?$AA?5@ 0000000140049440     libucrtd:dbgrptt.obj
 0002:00008490       ??_C@_0CG@BNGLOCEO@Second?5Chance?5Assertion?5Failed?3@ 0000000140049490     libucrtd:dbgrptt.obj
 0002:000084b8       ??_C@_0P@DFJNDPOP@?$DMfile?5unknown?$DO@ 00000001400494b8     libucrtd:dbgrptt.obj
 0002:000084c8       ??_C@_07BHGABMGB@?0?5Line?5@ 00000001400494c8     libucrtd:dbgrptt.obj
 0002:000084d0       ??_C@_01EEMJAFIK@?6@       00000001400494d0     libucrtd:dbgrptt.obj
 0002:000084e0       ??_C@_1JI@GAALPGBM@?$AAs?$AAt?$AAr?$AAc?$AAp?$AAy?$AA_?$AAs?$AA?$CI?$AAs?$AAz?$AAU?$AAs?$AAe?$AAr@ 00000001400494e0     libucrtd:dbgrptt.obj
 0002:00008578       ??_C@_0CL@EACFGMNB@_CrtDbgReport?3?5String?5too?5long?5@ 0000000140049578     libucrtd:dbgrptt.obj
 0002:000085b0       ??_C@_1KK@GIGAEDMO@?$AAs?$AAt?$AAr?$AAc?$AAp?$AAy?$AA_?$AAs?$AA?$CI?$AAs?$AAz?$AAL?$AAi?$AAn?$AAe@ 00000001400495b0     libucrtd:dbgrptt.obj
 0002:00008660       ??_C@_0BD@CAENFOHP@Assertion?5failed?3?5@ 0000000140049660     libucrtd:dbgrptt.obj
 0002:00008678       ??_C@_0BC@LAIDCHCH@Assertion?5failed?$CB@ 0000000140049678     libucrtd:dbgrptt.obj
 0002:00008690       ??_C@_1FK@NPGBPOFO@?$AAs?$AAt?$AAr?$AAc?$AAa?$AAt?$AA_?$AAs?$AA?$CI?$AAs?$AAz?$AAL?$AAi?$AAn?$AAe@ 0000000140049690     libucrtd:dbgrptt.obj
 0002:000086f0       ??_C@_1EI@CACDLAFK@?$AAs?$AAt?$AAr?$AAc?$AAa?$AAt?$AA_?$AAs?$AA?$CI?$AAs?$AAz?$AAL?$AAi?$AAn?$AAe@ 00000001400496f0     libucrtd:dbgrptt.obj
 0002:00008738       ??_C@_01LIIJDEN@?$AN@      0000000140049738     libucrtd:dbgrptt.obj
 0002:00008740       ??_C@_1EI@LDHJEDO@?$AAs?$AAt?$AAr?$AAc?$AAa?$AAt?$AA_?$AAs?$AA?$CI?$AAs?$AAz?$AAL?$AAi?$AAn?$AAe@ 0000000140049740     libucrtd:dbgrptt.obj
 0002:00008788       ??_C@_0M@IPILFDFN@?$CFs?$CI?$CFd?$CJ?5?3?5?$CFs@ 0000000140049788     libucrtd:dbgrptt.obj
 0002:000087a0       ??_C@_1JG@CPKCIOEE@?$AAs?$AAt?$AAr?$AAc?$AAp?$AAy?$AA_?$AAs?$AA?$CI?$AAs?$AAz?$AAO?$AAu?$AAt?$AAM@ 00000001400497a0     libucrtd:dbgrptt.obj
 0002:00008840       ??_C@_1FI@IBIOIHEG@?$AAs?$AAt?$AAr?$AAc?$AAp?$AAy?$AA_?$AAs?$AA?$CI?$AAs?$AAz?$AAO?$AAu?$AAt?$AAM@ 0000000140049840     libucrtd:dbgrptt.obj
 0002:000088a0       ??_C@_1IM@OOKIFKOH@?$AAe?$AA?5?$AA?$DN?$AA?5?$AAm?$AAb?$AAs?$AAt?$AAo?$AAw?$AAc?$AAs?$AA_?$AAs?$AA?$CI@ 00000001400498a0     libucrtd:dbgrptt.obj
 0002:00008930       ??_C@_1MC@IGEECMDB@?$AAw?$AAc?$AAs?$AAc?$AAp?$AAy?$AA_?$AAs?$AA?$CI?$AAs?$AAz?$AAO?$AAu?$AAt?$AAM@ 0000000140049930     libucrtd:dbgrptt.obj
 0002:00008a00       ??_C@_1HO@PJOFIKFE@?$AA_?$AAC?$AAr?$AAt?$AAD?$AAb?$AAg?$AAR?$AAe?$AAp?$AAo?$AAr?$AAt?$AA?3?$AA?5@ 0000000140049a00     libucrtd:dbgrptt.obj
 0002:00008a80       ??_C@_1CA@HPALHDOD@?$AA_?$AAV?$AAC?$AAr?$AAt?$AAD?$AAb?$AAg?$AAR?$AAe?$AAp?$AAo?$AAr?$AAt?$AAW@ 0000000140049a80     libucrtd:dbgrptt.obj
 0002:00008aa0       ??_C@_1FA@CNLLOMHI@?$AA_?$AAi?$AAt?$AAo?$AAw?$AA_?$AAs?$AA?$CI?$AAn?$AAL?$AAi?$AAn?$AAe?$AA?0?$AA?5@ 0000000140049aa0     libucrtd:dbgrptt.obj
 0002:00008af0       ??_C@_1EM@MJFLEDMB@?$AAS?$AAe?$AAc?$AAo?$AAn?$AAd?$AA?5?$AAC?$AAh?$AAa?$AAn?$AAc?$AAe?$AA?5?$AAA@ 0000000140049af0     libucrtd:dbgrptt.obj
 0002:00008b40       ??_C@_1BO@OCHMLCAG@?$AA?$DM?$AAf?$AAi?$AAl?$AAe?$AA?5?$AAu?$AAn?$AAk?$AAn?$AAo?$AAw?$AAn?$AA?$DO@ 0000000140049b40     libucrtd:dbgrptt.obj
 0002:00008b60       ??_C@_1BA@ELMMDCFC@?$AA?0?$AA?5?$AAL?$AAi?$AAn?$AAe?$AA?5@ 0000000140049b60     libucrtd:dbgrptt.obj
 0002:00008b70       ??_C@_13LBAGMAIH@?$AA?6@   0000000140049b70     libucrtd:dbgrptt.obj
 0002:00008b80       ??_C@_1JK@KHFABAEO@?$AAw?$AAc?$AAs?$AAc?$AAp?$AAy?$AA_?$AAs?$AA?$CI?$AAs?$AAz?$AAU?$AAs?$AAe?$AAr@ 0000000140049b80     libucrtd:dbgrptt.obj
 0002:00008c20       ??_C@_1KO@DGAHENCH@?$AAw?$AAc?$AAs?$AAc?$AAp?$AAy?$AA_?$AAs?$AA?$CI?$AAs?$AAz?$AAL?$AAi?$AAn?$AAe@ 0000000140049c20     libucrtd:dbgrptt.obj
 0002:00008cd0       ??_C@_1CG@FFFGGODN@?$AAA?$AAs?$AAs?$AAe?$AAr?$AAt?$AAi?$AAo?$AAn?$AA?5?$AAf?$AAa?$AAi?$AAl?$AAe@ 0000000140049cd0     libucrtd:dbgrptt.obj
 0002:00008cf8       ??_C@_1CE@OJBNHDMO@?$AAA?$AAs?$AAs?$AAe?$AAr?$AAt?$AAi?$AAo?$AAn?$AA?5?$AAf?$AAa?$AAi?$AAl?$AAe@ 0000000140049cf8     libucrtd:dbgrptt.obj
 0002:00008d20       ??_C@_1FK@HPADHBBD@?$AAw?$AAc?$AAs?$AAc?$AAa?$AAt?$AA_?$AAs?$AA?$CI?$AAs?$AAz?$AAL?$AAi?$AAn?$AAe@ 0000000140049d20     libucrtd:dbgrptt.obj
 0002:00008d80       ??_C@_1EK@NMDFGHMF@?$AAw?$AAc?$AAs?$AAc?$AAa?$AAt?$AA_?$AAs?$AA?$CI?$AAs?$AAz?$AAL?$AAi?$AAn?$AAe@ 0000000140049d80     libucrtd:dbgrptt.obj
 0002:00008dcc       ??_C@_13CMNBPIDO@?$AA?$AN@ 0000000140049dcc     libucrtd:dbgrptt.obj
 0002:00008dd0       ??_C@_1EK@PHCBEDKB@?$AAw?$AAc?$AAs?$AAc?$AAa?$AAt?$AA_?$AAs?$AA?$CI?$AAs?$AAz?$AAL?$AAi?$AAn?$AAe@ 0000000140049dd0     libucrtd:dbgrptt.obj
 0002:00008e20       ??_C@_1BM@GIBPMLNL@?$AA?$CF?$AAl?$AAs?$AA?$CI?$AA?$CF?$AAd?$AA?$CJ?$AA?5?$AA?3?$AA?5?$AA?$CF?$AAl?$AAs@ 0000000140049e20     libucrtd:dbgrptt.obj
 0002:00008e40       ??_C@_1JI@EACPGHID@?$AAw?$AAc?$AAs?$AAc?$AAp?$AAy?$AA_?$AAs?$AA?$CI?$AAs?$AAz?$AAO?$AAu?$AAt?$AAM@ 0000000140049e40     libucrtd:dbgrptt.obj
 0002:00008ee0       ??_C@_1FI@DBAIJPJE@?$AAw?$AAc?$AAs?$AAc?$AAp?$AAy?$AA_?$AAs?$AA?$CI?$AAs?$AAz?$AAO?$AAu?$AAt?$AAM@ 0000000140049ee0     libucrtd:dbgrptt.obj
 0002:00008f40       ??_C@_1IK@LEBMBAP@?$AAw?$AAc?$AAs?$AAt?$AAo?$AAm?$AAb?$AAs?$AA_?$AAs?$AA?$CI?$AAn?$AAu?$AAl?$AAl@ 0000000140049f40     libucrtd:dbgrptt.obj
 0002:00008fd0       ??_C@_1MA@LBAMNNOB@?$AAs?$AAt?$AAr?$AAc?$AAp?$AAy?$AA_?$AAs?$AA?$CI?$AAs?$AAz?$AAO?$AAu?$AAt?$AAM@ 0000000140049fd0     libucrtd:dbgrptt.obj
 0002:00009090       ??_C@_0DP@GNPEPHJD@_CrtDbgReport?3?5String?5too?5long?5@ 000000014004a090     libucrtd:dbgrptt.obj
 0002:000090d0       ??_C@_1IE@CPGKIAGP@?$AAw?$AAc?$AAs?$AAt?$AAo?$AAm?$AAb?$AAs?$AA_?$AAs?$AA?$CI?$AA?$CG?$AAr?$AAe?$AAt@ 000000014004a0d0     libucrtd:dbgrptt.obj
 0002:000091e0       ??_C@_03OEIAHPBN@INF@      000000014004a1e0     libucrtd:cvt.obj
 0002:000091e4       ??_C@_03OJHLLCGB@inf@      000000014004a1e4     libucrtd:cvt.obj
 0002:000091e8       ??_C@_03LKNCIKJB@NAN@      000000014004a1e8     libucrtd:cvt.obj
 0002:000091ec       ??_C@_03LHCJEHON@nan@      000000014004a1ec     libucrtd:cvt.obj
 0002:000091f0       ??_C@_09OFJJIMPC@NAN?$CISNAN?$CJ@ 000000014004a1f0     libucrtd:cvt.obj
 0002:00009200       ??_C@_09IPFBKMDL@nan?$CIsnan?$CJ@ 000000014004a200     libucrtd:cvt.obj
 0002:00009210       ??_C@_08IKHNHAJ@NAN?$CIIND?$CJ@ 000000014004a210     libucrtd:cvt.obj
 0002:00009220       ??_C@_08OFCDMILK@nan?$CIind?$CJ@ 000000014004a220     libucrtd:cvt.obj
 0002:00009230       ??_C@_1FO@GKAKAPLI@?$AAm?$AAi?$AAn?$AAk?$AAe?$AAr?$AAn?$AAe?$AAl?$AA?2?$AAc?$AAr?$AAt?$AAs?$AA?2@ 000000014004a230     libucrtd:cvt.obj
 0002:00009290       ??_C@_1DE@EHGIGIDK@?$AAf?$AAp?$AA_?$AAf?$AAo?$AAr?$AAm?$AAa?$AAt?$AA_?$AAn?$AAa?$AAn?$AA_?$AAo@ 000000014004a290     libucrtd:cvt.obj
 0002:000092d0       ??_C@_1LI@PCMLJPCO@?$AAs?$AAt?$AAr?$AAc?$AAp?$AAy?$AA_?$AAs?$AA?$CI?$AA?5?$AAr?$AAe?$AAs?$AAu?$AAl@ 000000014004a2d0     libucrtd:cvt.obj
 0002:00009390       ??_C@_1KO@LJHOFBCD@?$AAr?$AAe?$AAs?$AAu?$AAl?$AAt?$AA_?$AAb?$AAu?$AAf?$AAf?$AAe?$AAr?$AA_?$AAc@ 000000014004a390     libucrtd:cvt.obj
 0002:00009440       ??_C@_1CK@BOLHOMFO@?$AAf?$AAp?$AA_?$AAf?$AAo?$AAr?$AAm?$AAa?$AAt?$AA_?$AAe?$AA_?$AAi?$AAn?$AAt@ 000000014004a440     libucrtd:cvt.obj
 0002:00009470       ??_C@_1BBE@LHDOMEDC@?$AAs?$AAt?$AAr?$AAc?$AAp?$AAy?$AA_?$AAs?$AA?$CI?$AA?5?$AAp?$AA?0?$AA?5?$AAr?$AAe@ 000000014004a470     libucrtd:cvt.obj
 0002:00009584       ??_C@_05KLBDPFGC@e?$CL000@ 000000014004a584     libucrtd:cvt.obj
 0002:00009590       ??_C@_1IC@FILKPBAB@?$AAr?$AAe?$AAs?$AAu?$AAl?$AAt?$AA_?$AAb?$AAu?$AAf?$AAf?$AAe?$AAr?$AA_?$AAc@ 000000014004a590     libucrtd:cvt.obj
 0002:00009618       ??_C@_1BI@PNBDLNBB@?$AAf?$AAp?$AA_?$AAf?$AAo?$AAr?$AAm?$AAa?$AAt?$AA_?$AAa@ 000000014004a618     libucrtd:cvt.obj
 0002:00009630       ??_C@_1DC@MGKAFPFD@?$AAr?$AAe?$AAs?$AAu?$AAl?$AAt?$AA_?$AAb?$AAu?$AAf?$AAf?$AAe?$AAr?$AA?5?$AA?$CB@ 000000014004a630     libucrtd:cvt.obj
 0002:00009668       ??_C@_1CC@LDAHJAKK@?$AA_?$AA_?$AAa?$AAc?$AAr?$AAt?$AA_?$AAf?$AAp?$AA_?$AAf?$AAo?$AAr?$AAm?$AAa@ 000000014004a668     libucrtd:cvt.obj
 0002:00009690       ??_C@_1DA@NMLJJOCO@?$AAr?$AAe?$AAs?$AAu?$AAl?$AAt?$AA_?$AAb?$AAu?$AAf?$AAf?$AAe?$AAr?$AA_?$AAc@ 000000014004a690     libucrtd:cvt.obj
 0002:000096c0       ??_C@_1DE@MNOPBCOK@?$AAs?$AAc?$AAr?$AAa?$AAt?$AAc?$AAh?$AA_?$AAb?$AAu?$AAf?$AAf?$AAe?$AAr?$AA?5@ 000000014004a6c0     libucrtd:cvt.obj
 0002:000096f8       ??_C@_1DC@CKBKNFKH@?$AAs?$AAc?$AAr?$AAa?$AAt?$AAc?$AAh?$AA_?$AAb?$AAu?$AAf?$AAf?$AAe?$AAr?$AA_@ 000000014004a6f8     libucrtd:cvt.obj
 0002:00009730       ??_C@_1EI@JAHBOGIM@?$AA?$CI?$AA?$CC?$AAU?$AAn?$AAs?$AAu?$AAp?$AAp?$AAo?$AAr?$AAt?$AAe?$AAd?$AA?5?$AAf@ 000000014004a730     libucrtd:cvt.obj
 0002:00009778       ??_C@_1DK@NBNOAGKB@?$AAd?$AAe?$AAs?$AAt?$AAi?$AAn?$AAa?$AAt?$AAi?$AAo?$AAn?$AA_?$AAc?$AAo?$AAu@ 000000014004a778     libucrtd:wctomb.obj
 0002:000097c0       ??_C@_1GE@FCCEPHFG@?$AAm?$AAi?$AAn?$AAk?$AAe?$AAr?$AAn?$AAe?$AAl?$AA?2?$AAc?$AAr?$AAt?$AAs?$AA?2@ 000000014004a7c0     libucrtd:wctomb.obj
 0002:00009828       ??_C@_1CC@DNLKBKLK@?$AA_?$AAw?$AAc?$AAt?$AAo?$AAm?$AAb?$AA_?$AAi?$AAn?$AAt?$AAe?$AAr?$AAn?$AAa@ 000000014004a828     libucrtd:wctomb.obj
 0002:00009850       ??_C@_1CM@ENFEGCNE@?$AAd?$AAe?$AAs?$AAt?$AAi?$AAn?$AAa?$AAt?$AAi?$AAo?$AAn?$AA_?$AAc?$AAo?$AAu@ 000000014004a850     libucrtd:wctomb.obj
 0002:00009880       ??_C@_1MK@HFAFPEDL@?$AAl?$AAo?$AAc?$AAa?$AAl?$AAe?$AA?9?$AA?$DO?$AAl?$AAo?$AAc?$AAi?$AAn?$AAf?$AAo@ 000000014004a880     libucrtd:mbtowc.obj
 0002:00009950       ??_C@_1GE@CGIHMDEJ@?$AAm?$AAi?$AAn?$AAk?$AAe?$AAr?$AAn?$AAe?$AAl?$AA?2?$AAc?$AAr?$AAt?$AAs?$AA?2@ 000000014004a950     libucrtd:mbtowc.obj
 0002:000099c0       ??_C@_1HA@KNBGJAIN@?$AAU?$AAT?$AAF?$AA?9?$AA8?$AA?5?$AAi?$AAs?$AAn?$AA?8?$AAt?$AA?5?$AAs?$AAu?$AAp@ 000000014004a9c0     libucrtd:mbtowc.obj
 0002:00009a30       ??_C@_1OM@FCINAOPP@?$AAl?$AAo?$AAc?$AAa?$AAl?$AAe?$AA?9?$AA?$DO?$AAl?$AAo?$AAc?$AAi?$AAn?$AAf?$AAo@ 000000014004aa30     libucrtd:mbtowc.obj
 0002:00009b20       ??_C@_1GA@CPNOFAH@?$AAl?$AAo?$AAc?$AAa?$AAl?$AAe?$AA?9?$AA?$DO?$AAl?$AAo?$AAc?$AAi?$AAn?$AAf?$AAo@ 000000014004ab20     libucrtd:mbtowc.obj
 0002:00009b80       ??_C@_1BO@MHPFFFJJ@?$AAs?$AAt?$AAr?$AAe?$AAa?$AAm?$AA?4?$AAv?$AAa?$AAl?$AAi?$AAd?$AA?$CI?$AA?$CJ@ 000000014004ab80     libucrtd:fileno.obj
 0002:00009ba0       ??_C@_1GA@KCAHHNGP@?$AAm?$AAi?$AAn?$AAk?$AAe?$AAr?$AAn?$AAe?$AAl?$AA?2?$AAc?$AAr?$AAt?$AAs?$AA?2@ 000000014004aba0     libucrtd:fileno.obj
 0002:00009c00       ??_C@_1BA@JGHIEKKM@?$AA_?$AAf?$AAi?$AAl?$AAe?$AAn?$AAo@ 000000014004ac00     libucrtd:fileno.obj
 0002:00009c10       ??_C@_0CP@GDJHIDC@minkernel?2crts?2ucrt?2src?2appcrt?2@ 000000014004ac10     libucrtd:_file.obj
 0002:00009c68       ??_C@_1DI@OOEEHOBJ@?$AAb?$AAa?$AAs?$AAe?$AA?5?$AA?$CB?$AA?$DN?$AA?5?$AAn?$AAu?$AAl?$AAl?$AAp?$AAt?$AAr@ 000000014004ac68     libucrtd:qsort.obj
 0002:00009ca0       ??_C@_1GA@KPPCKKGE@?$AAm?$AAi?$AAn?$AAk?$AAe?$AAr?$AAn?$AAe?$AAl?$AA?2?$AAc?$AAr?$AAt?$AAs?$AA?2@ 000000014004aca0     libucrtd:qsort.obj
 0002:00009d00       ??_C@_1M@INMHODIG@?$AAq?$AAs?$AAo?$AAr?$AAt@ 000000014004ad00     libucrtd:qsort.obj
 0002:00009d10       ??_C@_1BE@NJBEBBME@?$AAw?$AAi?$AAd?$AAt?$AAh?$AA?5?$AA?$DO?$AA?5?$AA0@ 000000014004ad10     libucrtd:qsort.obj
 0002:00009d28       ??_C@_1CA@LIDFOMIN@?$AAc?$AAo?$AAm?$AAp?$AA?5?$AA?$CB?$AA?$DN?$AA?5?$AAn?$AAu?$AAl?$AAl?$AAp?$AAt?$AAr@ 000000014004ad28     libucrtd:qsort.obj
 0002:00009d48       ??_C@_1CE@BLLJFLOH@?$AAs?$AAt?$AAr?$AAi?$AAn?$AAg?$AA?5?$AA?$CB?$AA?$DN?$AA?5?$AAn?$AAu?$AAl?$AAl?$AAp@ 000000014004ad48     libucrtd:mbsdec.obj
 0002:00009d70       ??_C@_1GO@DDOMFNGF@?$AAm?$AAi?$AAn?$AAk?$AAe?$AAr?$AAn?$AAe?$AAl?$AA?2?$AAc?$AAr?$AAt?$AAs?$AA?2@ 000000014004ad70     libucrtd:mbsdec.obj
 0002:00009de0       ??_C@_1BE@KLNCOLCD@?$AA_?$AAm?$AAb?$AAs?$AAd?$AAe?$AAc?$AA_?$AAl@ 000000014004ade0     libucrtd:mbsdec.obj
 0002:00009df8       ??_C@_1CG@CMGPGAOD@?$AAc?$AAu?$AAr?$AAr?$AAe?$AAn?$AAt?$AA?5?$AA?$CB?$AA?$DN?$AA?5?$AAn?$AAu?$AAl?$AAl@ 000000014004adf8     libucrtd:mbsdec.obj
 0002:00009e20       ??_C@_0DH@IKPCBLP@minkernel?2crts?2ucrt?2src?2appcrt?2@ 000000014004ae20     libucrtd:lcmapstringa.obj
 0002:00009e58       ??_C@_1CE@MCCHPLBM@?$AAb?$AAu?$AAf?$AAf?$AAe?$AAr?$AA?5?$AA?$CB?$AA?$DN?$AA?5?$AAn?$AAu?$AAl?$AAl?$AAp@ 000000014004ae58     libucrtd:xtoa.obj
 0002:00009e80       ??_C@_1GA@HBEFGMHK@?$AAm?$AAi?$AAn?$AAk?$AAe?$AAr?$AAn?$AAe?$AAl?$AA?2?$AAc?$AAr?$AAt?$AAs?$AA?2@ 000000014004ae80     libucrtd:xtoa.obj
 0002:00009ee0       ??_C@_1BM@HMPEMLNP@?$AAc?$AAo?$AAm?$AAm?$AAo?$AAn?$AA_?$AAx?$AAt?$AAo?$AAx?$AA_?$AAs@ 000000014004aee0     libucrtd:xtoa.obj
 0002:00009f00       ??_C@_1CC@ONIJBMJF@?$AAb?$AAu?$AAf?$AAf?$AAe?$AAr?$AA_?$AAc?$AAo?$AAu?$AAn?$AAt?$AA?5?$AA?$DO?$AA?5@ 000000014004af00     libucrtd:xtoa.obj
 0002:00009f30       ??_C@_1HA@JFIOFNKD@?$AAb?$AAu?$AAf?$AAf?$AAe?$AAr?$AA_?$AAc?$AAo?$AAu?$AAn?$AAt?$AA?5?$AA?$DO?$AA?5@ 000000014004af30     libucrtd:xtoa.obj
 0002:00009fa0       ??_C@_1DE@PCJGDBBD@?$AA2?$AA?5?$AA?$DM?$AA?$DN?$AA?5?$AAr?$AAa?$AAd?$AAi?$AAx?$AA?5?$AA?$CG?$AA?$CG?$AA?5?$AAr@ 000000014004afa0     libucrtd:xtoa.obj
 0002:00009fd8       ??_C@_1CM@LONILNIJ@?$AAl?$AAe?$AAn?$AAg?$AAt?$AAh?$AA?5?$AA?$DM?$AA?5?$AAb?$AAu?$AAf?$AAf?$AAe?$AAr@ 000000014004afd8     libucrtd:xtoa.obj
 0002:0000a008       ??_C@_1BI@OLPLFKOE@?$AAc?$AAo?$AAm?$AAm?$AAo?$AAn?$AA_?$AAx?$AAt?$AAo?$AAx@ 000000014004b008     libucrtd:xtoa.obj
 0002:0000ae60       ??_C@_15EMKDOKLE@?$AAa?$AAr@ 000000014004be60     libucrtd:lcidtoname_downlevel.obj
 0002:0000ae68       ??_C@_15KNPADPLH@?$AAb?$AAg@ 000000014004be68     libucrtd:lcidtoname_downlevel.obj
 0002:0000ae70       ??_C@_15EDMHLDMO@?$AAc?$AAa@ 000000014004be70     libucrtd:lcidtoname_downlevel.obj
 0002:0000ae78       ??_C@_1O@BPEAJADD@?$AAz?$AAh?$AA?9?$AAC?$AAH?$AAS@ 000000014004be78     libucrtd:lcidtoname_downlevel.obj
 0002:0000ae88       ??_C@_15LJNHCMNK@?$AAc?$AAs@ 000000014004be88     libucrtd:lcidtoname_downlevel.obj
 0002:0000ae90       ??_C@_15FOMCIDHG@?$AAd?$AAa@ 000000014004be90     libucrtd:lcidtoname_downlevel.obj
 0002:0000ae98       ??_C@_15NBKABECB@?$AAd?$AAe@ 000000014004be98     libucrtd:lcidtoname_downlevel.obj
 0002:0000aea0       ??_C@_15GHPEIIAO@?$AAe?$AAl@ 000000014004bea0     libucrtd:lcidtoname_downlevel.obj
 0002:0000aea8       ??_C@_15MNPNEAIF@?$AAe?$AAn@ 000000014004bea8     libucrtd:lcidtoname_downlevel.obj
 0002:0000aeb0       ??_C@_15GPIOMPMH@?$AAe?$AAs@ 000000014004beb0     libucrtd:lcidtoname_downlevel.obj
 0002:0000aeb8       ??_C@_15NGLOAKJC@?$AAf?$AAi@ 000000014004beb8     libucrtd:lcidtoname_downlevel.obj
 0002:0000aec0       ??_C@_15FBKGNKAM@?$AAf?$AAr@ 000000014004bec0     libucrtd:lcidtoname_downlevel.obj
 0002:0000aec8       ??_C@_15KGGCNEFK@?$AAh?$AAe@ 000000014004bec8     libucrtd:lcidtoname_downlevel.obj
 0002:0000aed0       ??_C@_15PGHLIDMF@?$AAh?$AAu@ 000000014004bed0     libucrtd:lcidtoname_downlevel.obj
 0002:0000aed8       ??_C@_15BIEMAPLM@?$AAi?$AAs@ 000000014004bed8     libucrtd:lcidtoname_downlevel.obj
 0002:0000aee0       ??_C@_15IFJLDHAF@?$AAi?$AAt@ 000000014004bee0     libucrtd:lcidtoname_downlevel.obj
 0002:0000aee8       ??_C@_15GEMIOCAG@?$AAj?$AAa@ 000000014004bee8     libucrtd:lcidtoname_downlevel.obj
 0002:0000aef0       ??_C@_15EPELEGJA@?$AAk?$AAo@ 000000014004bef0     libucrtd:lcidtoname_downlevel.obj
 0002:0000aef8       ??_C@_15NDDHIMN@?$AAn?$AAl@ 000000014004bef8     libucrtd:lcidtoname_downlevel.obj
 0002:0000af00       ??_C@_15BPIGNHCD@?$AAn?$AAo@ 000000014004bf00     libucrtd:lcidtoname_downlevel.obj
 0002:0000af08       ??_C@_15DEOPBLCG@?$AAp?$AAl@ 000000014004bf08     libucrtd:lcidtoname_downlevel.obj
 0002:0000af10       ??_C@_15KBECGEFG@?$AAp?$AAt@ 000000014004bf10     libucrtd:lcidtoname_downlevel.obj
 0002:0000af18       ??_C@_15GLJCBFMD@?$AAr?$AAo@ 000000014004bf18     libucrtd:lcidtoname_downlevel.obj
 0002:0000af20       ??_C@_15FEDGKCDI@?$AAr?$AAu@ 000000014004bf20     libucrtd:lcidtoname_downlevel.obj
 0002:0000af28       ??_C@_15GLKMLLHM@?$AAh?$AAr@ 000000014004bf28     libucrtd:lcidtoname_downlevel.obj
 0002:0000af30       ??_C@_15CPKMFBDB@?$AAs?$AAk@ 000000014004bf30     libucrtd:lcidtoname_downlevel.obj
 0002:0000af38       ??_C@_15BAAIOGMK@?$AAs?$AAq@ 000000014004bf38     libucrtd:lcidtoname_downlevel.obj
 0002:0000af40       ??_C@_15INNPNOHD@?$AAs?$AAv@ 000000014004bf40     libucrtd:lcidtoname_downlevel.obj
 0002:0000af48       ??_C@_15CABMMOGH@?$AAt?$AAh@ 000000014004bf48     libucrtd:lcidtoname_downlevel.obj
 0002:0000af50       ??_C@_15BPLIHJJM@?$AAt?$AAr@ 000000014004bf50     libucrtd:lcidtoname_downlevel.obj
 0002:0000af58       ??_C@_15NEOEKKDJ@?$AAu?$AAr@ 000000014004bf58     libucrtd:lcidtoname_downlevel.obj
 0002:0000af60       ??_C@_15NFICGAJK@?$AAi?$AAd@ 000000014004bf60     libucrtd:lcidtoname_downlevel.obj
 0002:0000af68       ??_C@_15HPJPHDM@?$AAb?$AAe@ 000000014004bf68     libucrtd:lcidtoname_downlevel.obj
 0002:0000af70       ??_C@_15LCHLGJII@?$AAs?$AAl@ 000000014004bf70     libucrtd:lcidtoname_downlevel.obj
 0002:0000af78       ??_C@_15PCFJPHHO@?$AAe?$AAt@ 000000014004bf78     libucrtd:lcidtoname_downlevel.obj
 0002:0000af80       ??_C@_15HPFPGODN@?$AAl?$AAv@ 000000014004bf80     libucrtd:lcidtoname_downlevel.obj
 0002:0000af88       ??_C@_15NFFGKGLG@?$AAl?$AAt@ 000000014004bf88     libucrtd:lcidtoname_downlevel.obj
 0002:0000af90       ??_C@_15BDAKCCHN@?$AAf?$AAa@ 000000014004bf90     libucrtd:lcidtoname_downlevel.obj
 0002:0000af98       ??_C@_15NFGIAIAJ@?$AAv?$AAi@ 000000014004bf98     libucrtd:lcidtoname_downlevel.obj
 0002:0000afa0       ??_C@_15LMKNDMHN@?$AAh?$AAy@ 000000014004bfa0     libucrtd:lcidtoname_downlevel.obj
 0002:0000afa8       ??_C@_15IJBHMCFL@?$AAa?$AAz@ 000000014004bfa8     libucrtd:lcidtoname_downlevel.obj
 0002:0000afb0       ??_C@_15EKOFJABL@?$AAe?$AAu@ 000000014004bfb0     libucrtd:lcidtoname_downlevel.obj
 0002:0000afb8       ??_C@_15BGHADCNK@?$AAm?$AAk@ 000000014004bfb8     libucrtd:lcidtoname_downlevel.obj
 0002:0000afc0       ??_C@_15JDNICKHM@?$AAa?$AAf@ 000000014004bfc0     libucrtd:lcidtoname_downlevel.obj
 0002:0000afc8       ??_C@_15KPJEDBKD@?$AAk?$AAa@ 000000014004bfc8     libucrtd:lcidtoname_downlevel.obj
 0002:0000afd0       ??_C@_15PDNFFFEO@?$AAf?$AAo@ 000000014004bfd0     libucrtd:lcidtoname_downlevel.obj
 0002:0000afd8       ??_C@_15OMLEGLOC@?$AAh?$AAi@ 000000014004bfd8     libucrtd:lcidtoname_downlevel.obj
 0002:0000afe0       ??_C@_15IDNNENKK@?$AAm?$AAs@ 000000014004bfe0     libucrtd:lcidtoname_downlevel.obj
 0002:0000afe8       ??_C@_15MACJNBMH@?$AAk?$AAk@ 000000014004bfe8     libucrtd:lcidtoname_downlevel.obj
 0002:0000aff0       ??_C@_15DKDJEOND@?$AAk?$AAy@ 000000014004bff0     libucrtd:lcidtoname_downlevel.obj
 0002:0000aff8       ??_C@_15DFGDLJBG@?$AAs?$AAw@ 000000014004bff8     libucrtd:lcidtoname_downlevel.obj
 0002:0000b000       ??_C@_15BBFAICNG@?$AAu?$AAz@ 000000014004c000     libucrtd:lcidtoname_downlevel.obj
 0002:0000b008       ??_C@_15DKNDCGEA@?$AAt?$AAt@ 000000014004c008     libucrtd:lcidtoname_downlevel.obj
 0002:0000b010       ??_C@_15MGIFMDPL@?$AAp?$AAa@ 000000014004c010     libucrtd:lcidtoname_downlevel.obj
 0002:0000b018       ??_C@_15HCNDBBA@?$AAg?$AAu@ 000000014004c018     libucrtd:lcidtoname_downlevel.obj
 0002:0000b020       ??_C@_15FNBEIBON@?$AAt?$AAa@ 000000014004c020     libucrtd:lcidtoname_downlevel.obj
 0002:0000b028       ??_C@_15NCHGBGLK@?$AAt?$AAe@ 000000014004c028     libucrtd:lcidtoname_downlevel.obj
 0002:0000b030       ??_C@_15PHPHCBPF@?$AAk?$AAn@ 000000014004c030     libucrtd:lcidtoname_downlevel.obj
 0002:0000b038       ??_C@_15DLGBCKMP@?$AAm?$AAr@ 000000014004c038     libucrtd:lcidtoname_downlevel.obj
 0002:0000b040       ??_C@_15EABBLBFF@?$AAs?$AAa@ 000000014004c040     libucrtd:lcidtoname_downlevel.obj
 0002:0000b048       ??_C@_15CBKOMCOI@?$AAm?$AAn@ 000000014004c048     libucrtd:lcidtoname_downlevel.obj
 0002:0000b050       ??_C@_15CKDMCJAF@?$AAg?$AAl@ 000000014004c050     libucrtd:lcidtoname_downlevel.obj
 0002:0000b058       ??_C@_17CNJFBPG@?$AAk?$AAo?$AAk@ 000000014004c058     libucrtd:lcidtoname_downlevel.obj
 0002:0000b060       ??_C@_17FFBJICPL@?$AAs?$AAy?$AAr@ 000000014004c060     libucrtd:lcidtoname_downlevel.obj
 0002:0000b068       ??_C@_17KPNDCPAF@?$AAd?$AAi?$AAv@ 000000014004c068     libucrtd:lcidtoname_downlevel.obj
 0002:0000b070       ??_C@_1M@OKAHONE@?$AAa?$AAr?$AA?9?$AAS?$AAA@ 000000014004c070     libucrtd:lcidtoname_downlevel.obj
 0002:0000b080       ??_C@_1M@FFFIGIGK@?$AAb?$AAg?$AA?9?$AAB?$AAG@ 000000014004c080     libucrtd:lcidtoname_downlevel.obj
 0002:0000b090       ??_C@_1M@BJNKEDC@?$AAc?$AAa?$AA?9?$AAE?$AAS@ 000000014004c090     libucrtd:lcidtoname_downlevel.obj
 0002:0000b0a0       ??_C@_1M@IJJHFJHA@?$AAc?$AAs?$AA?9?$AAC?$AAZ@ 000000014004c0a0     libucrtd:lcidtoname_downlevel.obj
 0002:0000b0b0       ??_C@_1M@CLPEOBGI@?$AAd?$AAa?$AA?9?$AAD?$AAK@ 000000014004c0b0     libucrtd:lcidtoname_downlevel.obj
 0002:0000b0c0       ??_C@_1M@MCMADGCB@?$AAd?$AAe?$AA?9?$AAD?$AAE@ 000000014004c0c0     libucrtd:lcidtoname_downlevel.obj
 0002:0000b0d0       ??_C@_1M@OOCKEMAM@?$AAe?$AAl?$AA?9?$AAG?$AAR@ 000000014004c0d0     libucrtd:lcidtoname_downlevel.obj
 0002:0000b0e0       ??_C@_1M@DDNJFGID@?$AAf?$AAi?$AA?9?$AAF?$AAI@ 000000014004c0e0     libucrtd:lcidtoname_downlevel.obj
 0002:0000b0f0       ??_C@_1M@GLIPPMAC@?$AAf?$AAr?$AA?9?$AAF?$AAR@ 000000014004c0f0     libucrtd:lcidtoname_downlevel.obj
 0002:0000b100       ??_C@_1M@GFMCHPE@?$AAh?$AAe?$AA?9?$AAI?$AAL@ 000000014004c100     libucrtd:lcidtoname_downlevel.obj
 0002:0000b110       ??_C@_1M@MHLPGNKM@?$AAh?$AAu?$AA?9?$AAH?$AAU@ 000000014004c110     libucrtd:lcidtoname_downlevel.obj
 0002:0000b120       ??_C@_1M@LPDDNNPN@?$AAi?$AAs?$AA?9?$AAI?$AAS@ 000000014004c120     libucrtd:lcidtoname_downlevel.obj
 0002:0000b130       ??_C@_1M@MADIPODN@?$AAi?$AAt?$AA?9?$AAI?$AAT@ 000000014004c130     libucrtd:lcidtoname_downlevel.obj
 0002:0000b140       ??_C@_1M@IHBJJGG@?$AAn?$AAl?$AA?9?$AAN?$AAL@ 000000014004c140     libucrtd:lcidtoname_downlevel.obj
 0002:0000b150       ??_C@_1M@EANAGDL@?$AAn?$AAb?$AA?9?$AAN?$AAO@ 000000014004c150     libucrtd:lcidtoname_downlevel.obj
 0002:0000b160       ??_C@_1M@NEIEMEGP@?$AAp?$AAl?$AA?9?$AAP?$AAL@ 000000014004c160     libucrtd:lcidtoname_downlevel.obj
 0002:0000b170       ??_C@_1M@BOCFIGEP@?$AAp?$AAt?$AA?9?$AAB?$AAR@ 000000014004c170     libucrtd:lcidtoname_downlevel.obj
 0002:0000b180       ??_C@_1M@IMPFOPBG@?$AAr?$AAo?$AA?9?$AAR?$AAO@ 000000014004c180     libucrtd:lcidtoname_downlevel.obj
 0002:0000b190       ??_C@_1M@IDNNEJMM@?$AAr?$AAu?$AA?9?$AAR?$AAU@ 000000014004c190     libucrtd:lcidtoname_downlevel.obj
 0002:0000b1a0       ??_C@_1M@LILEEOGM@?$AAh?$AAr?$AA?9?$AAH?$AAR@ 000000014004c1a0     libucrtd:lcidtoname_downlevel.obj
 0002:0000b1b0       ??_C@_1M@FKIFEHPB@?$AAs?$AAk?$AA?9?$AAS?$AAK@ 000000014004c1b0     libucrtd:lcidtoname_downlevel.obj
 0002:0000b1c0       ??_C@_1M@LJMAMNPJ@?$AAs?$AAq?$AA?9?$AAA?$AAL@ 000000014004c1c0     libucrtd:lcidtoname_downlevel.obj
 0002:0000b1d0       ??_C@_1M@GIAKDKJK@?$AAs?$AAv?$AA?9?$AAS?$AAE@ 000000014004c1d0     libucrtd:lcidtoname_downlevel.obj
 0002:0000b1e0       ??_C@_1M@MKJKIKCL@?$AAt?$AAh?$AA?9?$AAT?$AAH@ 000000014004c1e0     libucrtd:lcidtoname_downlevel.obj
 0002:0000b1f0       ??_C@_1M@MFLCCMPB@?$AAt?$AAr?$AA?9?$AAT?$AAR@ 000000014004c1f0     libucrtd:lcidtoname_downlevel.obj
 0002:0000b200       ??_C@_1M@OIJHDKJN@?$AAu?$AAr?$AA?9?$AAP?$AAK@ 000000014004c200     libucrtd:lcidtoname_downlevel.obj
 0002:0000b210       ??_C@_1M@LHIPCIEK@?$AAi?$AAd?$AA?9?$AAI?$AAD@ 000000014004c210     libucrtd:lcidtoname_downlevel.obj
 0002:0000b220       ??_C@_1M@MFMOBGI@?$AAu?$AAk?$AA?9?$AAU?$AAA@ 000000014004c220     libucrtd:lcidtoname_downlevel.obj
 0002:0000b230       ??_C@_1M@OBGLJIPL@?$AAb?$AAe?$AA?9?$AAB?$AAY@ 000000014004c230     libucrtd:lcidtoname_downlevel.obj
 0002:0000b240       ??_C@_1M@BCFAJEAD@?$AAs?$AAl?$AA?9?$AAS?$AAI@ 000000014004c240     libucrtd:lcidtoname_downlevel.obj
 0002:0000b250       ??_C@_1M@FKFFEDDN@?$AAe?$AAt?$AA?9?$AAE?$AAE@ 000000014004c250     libucrtd:lcidtoname_downlevel.obj
 0002:0000b260       ??_C@_1M@KGKKAACI@?$AAl?$AAv?$AA?9?$AAL?$AAV@ 000000014004c260     libucrtd:lcidtoname_downlevel.obj
 0002:0000b270       ??_C@_1M@IFGBIJO@?$AAl?$AAt?$AA?9?$AAL?$AAT@ 000000014004c270     libucrtd:lcidtoname_downlevel.obj
 0002:0000b280       ??_C@_1M@FGEAHEDM@?$AAf?$AAa?$AA?9?$AAI?$AAR@ 000000014004c280     libucrtd:lcidtoname_downlevel.obj
 0002:0000b290       ??_C@_1M@KBMAIBFN@?$AAv?$AAi?$AA?9?$AAV?$AAN@ 000000014004c290     libucrtd:lcidtoname_downlevel.obj
 0002:0000b2a0       ??_C@_1M@GPCBKDJK@?$AAh?$AAy?$AA?9?$AAA?$AAM@ 000000014004c2a0     libucrtd:lcidtoname_downlevel.obj
 0002:0000b2b0       ??_C@_1BG@BECMDDJB@?$AAa?$AAz?$AA?9?$AAA?$AAZ?$AA?9?$AAL?$AAa?$AAt?$AAn@ 000000014004c2b0     libucrtd:lcidtoname_downlevel.obj
 0002:0000b2c8       ??_C@_1M@MAOFCAEA@?$AAe?$AAu?$AA?9?$AAE?$AAS@ 000000014004c2c8     libucrtd:lcidtoname_downlevel.obj
 0002:0000b2d8       ??_C@_1M@IGHABKPI@?$AAm?$AAk?$AA?9?$AAM?$AAK@ 000000014004c2d8     libucrtd:lcidtoname_downlevel.obj
 0002:0000b2e8       ??_C@_1M@IAIGNEJG@?$AAt?$AAn?$AA?9?$AAZ?$AAA@ 000000014004c2e8     libucrtd:lcidtoname_downlevel.obj
 0002:0000b2f8       ??_C@_1M@IIJCOJFA@?$AAx?$AAh?$AA?9?$AAZ?$AAA@ 000000014004c2f8     libucrtd:lcidtoname_downlevel.obj
 0002:0000b308       ??_C@_1M@LGPJHNJH@?$AAz?$AAu?$AA?9?$AAZ?$AAA@ 000000014004c308     libucrtd:lcidtoname_downlevel.obj
 0002:0000b318       ??_C@_1M@HOKAOIO@?$AAa?$AAf?$AA?9?$AAZ?$AAA@ 000000014004c318     libucrtd:lcidtoname_downlevel.obj
 0002:0000b328       ??_C@_1M@DPCLHLIE@?$AAk?$AAa?$AA?9?$AAG?$AAE@ 000000014004c328     libucrtd:lcidtoname_downlevel.obj
 0002:0000b338       ??_C@_1M@BLKMHJBI@?$AAf?$AAo?$AA?9?$AAF?$AAO@ 000000014004c338     libucrtd:lcidtoname_downlevel.obj
 0002:0000b348       ??_C@_1M@LGGJAPPB@?$AAh?$AAi?$AA?9?$AAI?$AAN@ 000000014004c348     libucrtd:lcidtoname_downlevel.obj
 0002:0000b358       ??_C@_1M@FIKPIHFE@?$AAm?$AAt?$AA?9?$AAM?$AAT@ 000000014004c358     libucrtd:lcidtoname_downlevel.obj
 0002:0000b368       ??_C@_1M@HEGGPBFA@?$AAs?$AAe?$AA?9?$AAN?$AAO@ 000000014004c368     libucrtd:lcidtoname_downlevel.obj
 0002:0000b378       ??_C@_1M@EIBJEEPA@?$AAm?$AAs?$AA?9?$AAM?$AAY@ 000000014004c378     libucrtd:lcidtoname_downlevel.obj
 0002:0000b388       ??_C@_1M@FHLBGMPP@?$AAk?$AAk?$AA?9?$AAK?$AAZ@ 000000014004c388     libucrtd:lcidtoname_downlevel.obj
 0002:0000b398       ??_C@_1M@NGJJLCGI@?$AAk?$AAy?$AA?9?$AAK?$AAG@ 000000014004c398     libucrtd:lcidtoname_downlevel.obj
 0002:0000b3a8       ??_C@_1M@GIENNBFC@?$AAs?$AAw?$AA?9?$AAK?$AAE@ 000000014004c3a8     libucrtd:lcidtoname_downlevel.obj
 0002:0000b3b8       ??_C@_1BG@NDGMJIMJ@?$AAu?$AAz?$AA?9?$AAU?$AAZ?$AA?9?$AAL?$AAa?$AAt?$AAn@ 000000014004c3b8     libucrtd:lcidtoname_downlevel.obj
 0002:0000b3d0       ??_C@_1M@IDCCIHBC@?$AAt?$AAt?$AA?9?$AAR?$AAU@ 000000014004c3d0     libucrtd:lcidtoname_downlevel.obj
 0002:0000b3e0       ??_C@_1M@LOICPMOJ@?$AAb?$AAn?$AA?9?$AAI?$AAN@ 000000014004c3e0     libucrtd:lcidtoname_downlevel.obj
 0002:0000b3f0       ??_C@_1M@KPKKNEAH@?$AAp?$AAa?$AA?9?$AAI?$AAN@ 000000014004c3f0     libucrtd:lcidtoname_downlevel.obj
 0002:0000b400       ??_C@_1M@PJGPPBOG@?$AAg?$AAu?$AA?9?$AAI?$AAN@ 000000014004c400     libucrtd:lcidtoname_downlevel.obj
 0002:0000b410       ??_C@_1M@KMKMOPHI@?$AAt?$AAa?$AA?9?$AAI?$AAN@ 000000014004c410     libucrtd:lcidtoname_downlevel.obj
 0002:0000b420       ??_C@_1M@KFEHEPAC@?$AAt?$AAe?$AA?9?$AAI?$AAN@ 000000014004c420     libucrtd:lcidtoname_downlevel.obj
 0002:0000b430       ??_C@_1M@CDCLMGHI@?$AAk?$AAn?$AA?9?$AAI?$AAN@ 000000014004c430     libucrtd:lcidtoname_downlevel.obj
 0002:0000b440       ??_C@_1M@MIODLDKF@?$AAm?$AAl?$AA?9?$AAI?$AAN@ 000000014004c440     libucrtd:lcidtoname_downlevel.obj
 0002:0000b450       ??_C@_1M@PBIEACPO@?$AAm?$AAr?$AA?9?$AAI?$AAN@ 000000014004c450     libucrtd:lcidtoname_downlevel.obj
 0002:0000b460       ??_C@_1M@NIDEAGPH@?$AAs?$AAa?$AA?9?$AAI?$AAN@ 000000014004c460     libucrtd:lcidtoname_downlevel.obj
 0002:0000b470       ??_C@_1M@FHIHCBIO@?$AAm?$AAn?$AA?9?$AAM?$AAN@ 000000014004c470     libucrtd:lcidtoname_downlevel.obj
 0002:0000b480       ??_C@_1M@JAIJPENP@?$AAc?$AAy?$AA?9?$AAG?$AAB@ 000000014004c480     libucrtd:lcidtoname_downlevel.obj
 0002:0000b490       ??_C@_1M@PHGFBEPN@?$AAg?$AAl?$AA?9?$AAE?$AAS@ 000000014004c490     libucrtd:lcidtoname_downlevel.obj
 0002:0000b4a0       ??_C@_1O@KPIPDNCP@?$AAk?$AAo?$AAk?$AA?9?$AAI?$AAN@ 000000014004c4a0     libucrtd:lcidtoname_downlevel.obj
 0002:0000b4b0       ??_C@_1O@KNHJLDJA@?$AAs?$AAy?$AAr?$AA?9?$AAS?$AAY@ 000000014004c4b0     libucrtd:lcidtoname_downlevel.obj
 0002:0000b4c0       ??_C@_1O@MKEKBLAH@?$AAd?$AAi?$AAv?$AA?9?$AAM?$AAV@ 000000014004c4c0     libucrtd:lcidtoname_downlevel.obj
 0002:0000b4d0       ??_C@_1O@OHDCKDDF@?$AAq?$AAu?$AAz?$AA?9?$AAB?$AAO@ 000000014004c4d0     libucrtd:lcidtoname_downlevel.obj
 0002:0000b4e0       ??_C@_1M@LEPJNLFD@?$AAn?$AAs?$AA?9?$AAZ?$AAA@ 000000014004c4e0     libucrtd:lcidtoname_downlevel.obj
 0002:0000b4f0       ??_C@_1M@OMLEIIJB@?$AAm?$AAi?$AA?9?$AAN?$AAZ@ 000000014004c4f0     libucrtd:lcidtoname_downlevel.obj
 0002:0000b500       ??_C@_1M@PMPEAILG@?$AAa?$AAr?$AA?9?$AAI?$AAQ@ 000000014004c500     libucrtd:lcidtoname_downlevel.obj
 0002:0000b510       ??_C@_1M@CNKPNOEE@?$AAd?$AAe?$AA?9?$AAC?$AAH@ 000000014004c510     libucrtd:lcidtoname_downlevel.obj
 0002:0000b520       ??_C@_1M@LKMGMLKO@?$AAe?$AAn?$AA?9?$AAG?$AAB@ 000000014004c520     libucrtd:lcidtoname_downlevel.obj
 0002:0000b530       ??_C@_1M@PGKJFFGL@?$AAe?$AAs?$AA?9?$AAM?$AAX@ 000000014004c530     libucrtd:lcidtoname_downlevel.obj
 0002:0000b540       ??_C@_1M@DNNANBDC@?$AAf?$AAr?$AA?9?$AAB?$AAE@ 000000014004c540     libucrtd:lcidtoname_downlevel.obj
 0002:0000b550       ??_C@_1M@HLGMDFHM@?$AAi?$AAt?$AA?9?$AAC?$AAH@ 000000014004c550     libucrtd:lcidtoname_downlevel.obj
 0002:0000b560       ??_C@_1M@CLLBGJH@?$AAn?$AAl?$AA?9?$AAB?$AAE@ 000000014004c560     libucrtd:lcidtoname_downlevel.obj
 0002:0000b570       ??_C@_1M@BODBOGLF@?$AAn?$AAn?$AA?9?$AAN?$AAO@ 000000014004c570     libucrtd:lcidtoname_downlevel.obj
 0002:0000b580       ??_C@_1M@HFFAHKAD@?$AAp?$AAt?$AA?9?$AAP?$AAT@ 000000014004c580     libucrtd:lcidtoname_downlevel.obj
 0002:0000b590       ??_C@_1BG@LNOAKHIE@?$AAs?$AAr?$AA?9?$AAS?$AAP?$AA?9?$AAL?$AAa?$AAt?$AAn@ 000000014004c590     libucrtd:lcidtoname_downlevel.obj
 0002:0000b5a8       ??_C@_1M@HBMHBGAK@?$AAs?$AAv?$AA?9?$AAF?$AAI@ 000000014004c5a8     libucrtd:lcidtoname_downlevel.obj
 0002:0000b5b8       ??_C@_1BG@DGCJGJBE@?$AAa?$AAz?$AA?9?$AAA?$AAZ?$AA?9?$AAC?$AAy?$AAr?$AAl@ 000000014004c5b8     libucrtd:lcidtoname_downlevel.obj
 0002:0000b5d0       ??_C@_1M@KEJDAAHB@?$AAs?$AAe?$AA?9?$AAS?$AAE@ 000000014004c5d0     libucrtd:lcidtoname_downlevel.obj
 0002:0000b5e0       ??_C@_1M@HEIBJJAD@?$AAm?$AAs?$AA?9?$AAB?$AAN@ 000000014004c5e0     libucrtd:lcidtoname_downlevel.obj
 0002:0000b5f0       ??_C@_1BG@PBGJMCEM@?$AAu?$AAz?$AA?9?$AAU?$AAZ?$AA?9?$AAC?$AAy?$AAr?$AAl@ 000000014004c5f0     libucrtd:lcidtoname_downlevel.obj
 0002:0000b608       ??_C@_1O@LAOBCMDF@?$AAq?$AAu?$AAz?$AA?9?$AAE?$AAC@ 000000014004c608     libucrtd:lcidtoname_downlevel.obj
 0002:0000b618       ??_C@_1M@POEEMAIO@?$AAa?$AAr?$AA?9?$AAE?$AAG@ 000000014004c618     libucrtd:lcidtoname_downlevel.obj
 0002:0000b628       ??_C@_1M@EFAKDEDL@?$AAz?$AAh?$AA?9?$AAH?$AAK@ 000000014004c628     libucrtd:lcidtoname_downlevel.obj
 0002:0000b638       ??_C@_1M@HKKIJHGI@?$AAd?$AAe?$AA?9?$AAA?$AAT@ 000000014004c638     libucrtd:lcidtoname_downlevel.obj
 0002:0000b648       ??_C@_1M@KBFBEHJF@?$AAe?$AAn?$AA?9?$AAA?$AAU@ 000000014004c648     libucrtd:lcidtoname_downlevel.obj
 0002:0000b658       ??_C@_1M@MNPLFAAH@?$AAe?$AAs?$AA?9?$AAE?$AAS@ 000000014004c658     libucrtd:lcidtoname_downlevel.obj
 0002:0000b668       ??_C@_1M@HJOOJFMA@?$AAf?$AAr?$AA?9?$AAC?$AAA@ 000000014004c668     libucrtd:lcidtoname_downlevel.obj
 0002:0000b678       ??_C@_1BG@JPOFPNAB@?$AAs?$AAr?$AA?9?$AAS?$AAP?$AA?9?$AAC?$AAy?$AAr?$AAl@ 000000014004c678     libucrtd:lcidtoname_downlevel.obj
 0002:0000b690       ??_C@_1M@LNFOCMOB@?$AAs?$AAe?$AA?9?$AAF?$AAI@ 000000014004c690     libucrtd:lcidtoname_downlevel.obj
 0002:0000b6a0       ??_C@_1O@MGJBOAMB@?$AAq?$AAu?$AAz?$AA?9?$AAP?$AAE@ 000000014004c6a0     libucrtd:lcidtoname_downlevel.obj
 0002:0000b6b0       ??_C@_1M@GJINLBOK@?$AAa?$AAr?$AA?9?$AAL?$AAY@ 000000014004c6b0     libucrtd:lcidtoname_downlevel.obj
 0002:0000b6c0       ??_C@_1M@GGMNHJNL@?$AAz?$AAh?$AA?9?$AAS?$AAG@ 000000014004c6c0     libucrtd:lcidtoname_downlevel.obj
 0002:0000b6d0       ??_C@_1M@HOIKODND@?$AAd?$AAe?$AA?9?$AAL?$AAU@ 000000014004c6d0     libucrtd:lcidtoname_downlevel.obj
 0002:0000b6e0       ??_C@_1M@DDOCCGFG@?$AAe?$AAn?$AA?9?$AAC?$AAA@ 000000014004c6e0     libucrtd:lcidtoname_downlevel.obj
 0002:0000b6f0       ??_C@_1M@BNOEMJLF@?$AAe?$AAs?$AA?9?$AAG?$AAT@ 000000014004c6f0     libucrtd:lcidtoname_downlevel.obj
 0002:0000b700       ??_C@_1M@EOGNKEK@?$AAf?$AAr?$AA?9?$AAC?$AAH@ 000000014004c700     libucrtd:lcidtoname_downlevel.obj
 0002:0000b710       ??_C@_1M@FLIDJFHL@?$AAh?$AAr?$AA?9?$AAB?$AAA@ 000000014004c710     libucrtd:lcidtoname_downlevel.obj
 0002:0000b720       ??_C@_1O@FMCELNAJ@?$AAs?$AAm?$AAj?$AA?9?$AAN?$AAO@ 000000014004c720     libucrtd:lcidtoname_downlevel.obj
 0002:0000b730       ??_C@_1M@JHGLJMGJ@?$AAa?$AAr?$AA?9?$AAD?$AAZ@ 000000014004c730     libucrtd:lcidtoname_downlevel.obj
 0002:0000b740       ??_C@_1M@JKKFDCNP@?$AAz?$AAh?$AA?9?$AAM?$AAO@ 000000014004c740     libucrtd:lcidtoname_downlevel.obj
 0002:0000b750       ??_C@_1M@GEEFALPE@?$AAd?$AAe?$AA?9?$AAL?$AAI@ 000000014004c750     libucrtd:lcidtoname_downlevel.obj
 0002:0000b760       ??_C@_1M@IGEOFBG@?$AAe?$AAn?$AA?9?$AAN?$AAZ@ 000000014004c760     libucrtd:lcidtoname_downlevel.obj
 0002:0000b770       ??_C@_1M@KDBONEHP@?$AAe?$AAs?$AA?9?$AAC?$AAR@ 000000014004c770     libucrtd:lcidtoname_downlevel.obj
 0002:0000b780       ??_C@_1M@FHMDOHNN@?$AAf?$AAr?$AA?9?$AAL?$AAU@ 000000014004c780     libucrtd:lcidtoname_downlevel.obj
 0002:0000b790       ??_C@_1BG@NFKKMAFG@?$AAb?$AAs?$AA?9?$AAB?$AAA?$AA?9?$AAL?$AAa?$AAt?$AAn@ 000000014004c790     libucrtd:lcidtoname_downlevel.obj
 0002:0000b7a8       ??_C@_1O@IMNBEMCI@?$AAs?$AAm?$AAj?$AA?9?$AAS?$AAE@ 000000014004c7a8     libucrtd:lcidtoname_downlevel.obj
 0002:0000b7b8       ??_C@_1M@DHHMBNDP@?$AAa?$AAr?$AA?9?$AAM?$AAA@ 000000014004c7b8     libucrtd:lcidtoname_downlevel.obj
 0002:0000b7c8       ??_C@_1M@BNBLJCGH@?$AAe?$AAn?$AA?9?$AAI?$AAE@ 000000014004c7c8     libucrtd:lcidtoname_downlevel.obj
 0002:0000b7d8       ??_C@_1M@GEPAFMDL@?$AAe?$AAs?$AA?9?$AAP?$AAA@ 000000014004c7d8     libucrtd:lcidtoname_downlevel.obj
 0002:0000b7e8       ??_C@_1M@OJONDMDL@?$AAf?$AAr?$AA?9?$AAM?$AAC@ 000000014004c7e8     libucrtd:lcidtoname_downlevel.obj
 0002:0000b7f8       ??_C@_1BG@OBCNFJB@?$AAs?$AAr?$AA?9?$AAB?$AAA?$AA?9?$AAL?$AAa?$AAt?$AAn@ 000000014004c7f8     libucrtd:lcidtoname_downlevel.obj
 0002:0000b810       ??_C@_1O@KEMEEGPO@?$AAs?$AAm?$AAa?$AA?9?$AAN?$AAO@ 000000014004c810     libucrtd:lcidtoname_downlevel.obj
 0002:0000b820       ??_C@_1M@ELMGFODK@?$AAa?$AAr?$AA?9?$AAT?$AAN@ 000000014004c820     libucrtd:lcidtoname_downlevel.obj
 0002:0000b830       ??_C@_1M@BHDLHFAF@?$AAe?$AAn?$AA?9?$AAZ?$AAA@ 000000014004c830     libucrtd:lcidtoname_downlevel.obj
 0002:0000b840       ??_C@_1M@BMGIGLIF@?$AAe?$AAs?$AA?9?$AAD?$AAO@ 000000014004c840     libucrtd:lcidtoname_downlevel.obj
 0002:0000b850       ??_C@_1BG@CMBHIPBE@?$AAs?$AAr?$AA?9?$AAB?$AAA?$AA?9?$AAC?$AAy?$AAr?$AAl@ 000000014004c850     libucrtd:lcidtoname_downlevel.obj
 0002:0000b868       ??_C@_1O@HEDBLHNP@?$AAs?$AAm?$AAa?$AA?9?$AAS?$AAE@ 000000014004c868     libucrtd:lcidtoname_downlevel.obj
 0002:0000b878       ??_C@_1M@DAGCADIM@?$AAa?$AAr?$AA?9?$AAO?$AAM@ 000000014004c878     libucrtd:lcidtoname_downlevel.obj
 0002:0000b888       ??_C@_1M@FODLMICG@?$AAe?$AAn?$AA?9?$AAJ?$AAM@ 000000014004c888     libucrtd:lcidtoname_downlevel.obj
 0002:0000b898       ??_C@_1M@DNMLCIHB@?$AAe?$AAs?$AA?9?$AAV?$AAE@ 000000014004c898     libucrtd:lcidtoname_downlevel.obj
 0002:0000b8a8       ??_C@_1O@EOKHMKJK@?$AAs?$AAm?$AAs?$AA?9?$AAF?$AAI@ 000000014004c8a8     libucrtd:lcidtoname_downlevel.obj
 0002:0000b8b8       ??_C@_1M@CAFJMKOF@?$AAa?$AAr?$AA?9?$AAY?$AAE@ 000000014004c8b8     libucrtd:lcidtoname_downlevel.obj
 0002:0000b8c8       ??_C@_1M@CBFHIJLI@?$AAe?$AAn?$AA?9?$AAC?$AAB@ 000000014004c8c8     libucrtd:lcidtoname_downlevel.obj
 0002:0000b8d8       ??_C@_1M@BGNFLDN@?$AAe?$AAs?$AA?9?$AAC?$AAO@ 000000014004c8d8     libucrtd:lcidtoname_downlevel.obj
 0002:0000b8e8       ??_C@_1O@JMPHMAMC@?$AAs?$AAm?$AAn?$AA?9?$AAF?$AAI@ 000000014004c8e8     libucrtd:lcidtoname_downlevel.obj
 0002:0000b8f8       ??_C@_1M@JLANABKE@?$AAa?$AAr?$AA?9?$AAS?$AAY@ 000000014004c8f8     libucrtd:lcidtoname_downlevel.obj
 0002:0000b908       ??_C@_1M@HPKGCFGN@?$AAe?$AAn?$AA?9?$AAB?$AAZ@ 000000014004c908     libucrtd:lcidtoname_downlevel.obj
 0002:0000b918       ??_C@_1M@OLJCMLGM@?$AAe?$AAs?$AA?9?$AAP?$AAE@ 000000014004c918     libucrtd:lcidtoname_downlevel.obj
 0002:0000b928       ??_C@_1M@MKKGFKLE@?$AAa?$AAr?$AA?9?$AAJ?$AAO@ 000000014004c928     libucrtd:lcidtoname_downlevel.obj
 0002:0000b938       ??_C@_1M@EKPGLDNI@?$AAe?$AAn?$AA?9?$AAT?$AAT@ 000000014004c938     libucrtd:lcidtoname_downlevel.obj
 0002:0000b948       ??_C@_1M@OONGHFHE@?$AAe?$AAs?$AA?9?$AAA?$AAR@ 000000014004c948     libucrtd:lcidtoname_downlevel.obj
 0002:0000b958       ??_C@_1M@OOJFGBHE@?$AAa?$AAr?$AA?9?$AAL?$AAB@ 000000014004c958     libucrtd:lcidtoname_downlevel.obj
 0002:0000b968       ??_C@_1M@GCEJHNEG@?$AAe?$AAn?$AA?9?$AAZ?$AAW@ 000000014004c968     libucrtd:lcidtoname_downlevel.obj
 0002:0000b978       ??_C@_1M@JNOCAHJI@?$AAe?$AAs?$AA?9?$AAE?$AAC@ 000000014004c978     libucrtd:lcidtoname_downlevel.obj
 0002:0000b988       ??_C@_1M@JEFHPGGB@?$AAa?$AAr?$AA?9?$AAK?$AAW@ 000000014004c988     libucrtd:lcidtoname_downlevel.obj
 0002:0000b998       ??_C@_1M@MLKIBJOJ@?$AAe?$AAn?$AA?9?$AAP?$AAH@ 000000014004c998     libucrtd:lcidtoname_downlevel.obj
 0002:0000b9a8       ??_C@_1M@BDNIPEND@?$AAe?$AAs?$AA?9?$AAC?$AAL@ 000000014004c9a8     libucrtd:lcidtoname_downlevel.obj
 0002:0000b9b8       ??_C@_1M@MPNMEKBD@?$AAa?$AAr?$AA?9?$AAA?$AAE@ 000000014004c9b8     libucrtd:lcidtoname_downlevel.obj
 0002:0000b9c8       ??_C@_1M@KBJALCPI@?$AAe?$AAs?$AA?9?$AAU?$AAY@ 000000014004c9c8     libucrtd:lcidtoname_downlevel.obj
 0002:0000b9d8       ??_C@_1M@LLCCOAGA@?$AAa?$AAr?$AA?9?$AAB?$AAH@ 000000014004c9d8     libucrtd:lcidtoname_downlevel.obj
 0002:0000b9e8       ??_C@_1M@PBFNCDEL@?$AAe?$AAs?$AA?9?$AAP?$AAY@ 000000014004c9e8     libucrtd:lcidtoname_downlevel.obj
 0002:0000b9f8       ??_C@_1M@EDGINPNP@?$AAa?$AAr?$AA?9?$AAQ?$AAA@ 000000014004c9f8     libucrtd:lcidtoname_downlevel.obj
 0002:0000ba08       ??_C@_1M@MKDBIIJI@?$AAe?$AAs?$AA?9?$AAB?$AAO@ 000000014004ca08     libucrtd:lcidtoname_downlevel.obj
 0002:0000ba18       ??_C@_1M@CPKKEBLD@?$AAe?$AAs?$AA?9?$AAS?$AAV@ 000000014004ca18     libucrtd:lcidtoname_downlevel.obj
 0002:0000ba28       ??_C@_1M@NDBGMMJL@?$AAe?$AAs?$AA?9?$AAH?$AAN@ 000000014004ca28     libucrtd:lcidtoname_downlevel.obj
 0002:0000ba38       ??_C@_1M@JIJIBHDP@?$AAe?$AAs?$AA?9?$AAN?$AAI@ 000000014004ca38     libucrtd:lcidtoname_downlevel.obj
 0002:0000ba48       ??_C@_1M@CGFMKEEK@?$AAe?$AAs?$AA?9?$AAP?$AAR@ 000000014004ca48     libucrtd:lcidtoname_downlevel.obj
 0002:0000ba58       ??_C@_1O@ICJHKIIK@?$AAz?$AAh?$AA?9?$AAC?$AAH?$AAT@ 000000014004ca58     libucrtd:lcidtoname_downlevel.obj
 0002:0000ba68       ??_C@_15CLNEJCE@?$AAs?$AAr@ 000000014004ca68     libucrtd:lcidtoname_downlevel.obj
 0002:0000c8b0       ??_C@_1M@KAHEKEIG@?$AAa?$AAf?$AA?9?$AAz?$AAa@ 000000014004d8b0     libucrtd:lcidtoname_downlevel.obj
 0002:0000c8c0       ??_C@_1M@GIECOABL@?$AAa?$AAr?$AA?9?$AAa?$AAe@ 000000014004d8c0     libucrtd:lcidtoname_downlevel.obj
 0002:0000c8d0       ??_C@_1M@BMLMEKGI@?$AAa?$AAr?$AA?9?$AAb?$AAh@ 000000014004d8d0     libucrtd:lcidtoname_downlevel.obj
 0002:0000c8e0       ??_C@_1M@DAPFDGGB@?$AAa?$AAr?$AA?9?$AAd?$AAz@ 000000014004d8e0     libucrtd:lcidtoname_downlevel.obj
 0002:0000c8f0       ??_C@_1M@FJNKGKIG@?$AAa?$AAr?$AA?9?$AAe?$AAg@ 000000014004d8f0     libucrtd:lcidtoname_downlevel.obj
 0002:0000c900       ??_C@_1M@FLGKKCLO@?$AAa?$AAr?$AA?9?$AAi?$AAq@ 000000014004d900     libucrtd:lcidtoname_downlevel.obj
 0002:0000c910       ??_C@_1M@GNDIPALM@?$AAa?$AAr?$AA?9?$AAj?$AAo@ 000000014004d910     libucrtd:lcidtoname_downlevel.obj
 0002:0000c920       ??_C@_1M@DDMJFMGJ@?$AAa?$AAr?$AA?9?$AAk?$AAw@ 000000014004d920     libucrtd:lcidtoname_downlevel.obj
 0002:0000c930       ??_C@_1M@EJALMLHM@?$AAa?$AAr?$AA?9?$AAl?$AAb@ 000000014004d930     libucrtd:lcidtoname_downlevel.obj
 0002:0000c940       ??_C@_1M@MOBDBLOC@?$AAa?$AAr?$AA?9?$AAl?$AAy@ 000000014004d940     libucrtd:lcidtoname_downlevel.obj
 0002:0000c950       ??_C@_1M@JAOCLHDH@?$AAa?$AAr?$AA?9?$AAm?$AAa@ 000000014004d950     libucrtd:lcidtoname_downlevel.obj
 0002:0000c960       ??_C@_1M@JHPMKJIE@?$AAa?$AAr?$AA?9?$AAo?$AAm@ 000000014004d960     libucrtd:lcidtoname_downlevel.obj
 0002:0000c970       ??_C@_1M@OEPGHFNH@?$AAa?$AAr?$AA?9?$AAq?$AAa@ 000000014004d970     libucrtd:lcidtoname_downlevel.obj
 0002:0000c980       ??_C@_1M@KJDONENM@?$AAa?$AAr?$AA?9?$AAs?$AAa@ 000000014004d980     libucrtd:lcidtoname_downlevel.obj
 0002:0000c990       ??_C@_1M@DMJDKLKM@?$AAa?$AAr?$AA?9?$AAs?$AAy@ 000000014004d990     libucrtd:lcidtoname_downlevel.obj
 0002:0000c9a0       ??_C@_1M@OMFIPEDC@?$AAa?$AAr?$AA?9?$AAt?$AAn@ 000000014004d9a0     libucrtd:lcidtoname_downlevel.obj
 0002:0000c9b0       ??_C@_1M@IHMHGAON@?$AAa?$AAr?$AA?9?$AAy?$AAe@ 000000014004d9b0     libucrtd:lcidtoname_downlevel.obj
 0002:0000c9c0       ??_C@_1BG@KDCPGJGB@?$AAa?$AAz?$AA?9?$AAa?$AAz?$AA?9?$AAc?$AAy?$AAr?$AAl@ 000000014004d9c0     libucrtd:lcidtoname_downlevel.obj
 0002:0000c9d8       ??_C@_1BG@IBCKDDOE@?$AAa?$AAz?$AA?9?$AAa?$AAz?$AA?9?$AAl?$AAa?$AAt?$AAn@ 000000014004d9d8     libucrtd:lcidtoname_downlevel.obj
 0002:0000c9f0       ??_C@_1M@EGPFDCPD@?$AAb?$AAe?$AA?9?$AAb?$AAy@ 000000014004d9f0     libucrtd:lcidtoname_downlevel.obj
 0002:0000ca00       ??_C@_1M@PCMGMCGC@?$AAb?$AAg?$AA?9?$AAb?$AAg@ 000000014004da00     libucrtd:lcidtoname_downlevel.obj
 0002:0000ca10       ??_C@_1M@BJBMFGOB@?$AAb?$AAn?$AA?9?$AAi?$AAn@ 000000014004da10     libucrtd:lcidtoname_downlevel.obj
 0002:0000ca20       ??_C@_1BG@EAKMMACD@?$AAb?$AAs?$AA?9?$AAb?$AAa?$AA?9?$AAl?$AAa?$AAt?$AAn@ 000000014004da20     libucrtd:lcidtoname_downlevel.obj
 0002:0000ca38       ??_C@_1M@KGADAODK@?$AAc?$AAa?$AA?9?$AAe?$AAs@ 000000014004da38     libucrtd:lcidtoname_downlevel.obj
 0002:0000ca48       ??_C@_1M@COAJPDHI@?$AAc?$AAs?$AA?9?$AAc?$AAz@ 000000014004da48     libucrtd:lcidtoname_downlevel.obj
 0002:0000ca58       ??_C@_1M@DHBHFONH@?$AAc?$AAy?$AA?9?$AAg?$AAb@ 000000014004da58     libucrtd:lcidtoname_downlevel.obj
 0002:0000ca68       ??_C@_1M@IMGKELGA@?$AAd?$AAa?$AA?9?$AAd?$AAk@ 000000014004da68     libucrtd:lcidtoname_downlevel.obj
 0002:0000ca78       ??_C@_1M@NNDGDNGA@?$AAd?$AAe?$AA?9?$AAa?$AAt@ 000000014004da78     libucrtd:lcidtoname_downlevel.obj
 0002:0000ca88       ??_C@_1M@IKDBHEEM@?$AAd?$AAe?$AA?9?$AAc?$AAh@ 000000014004da88     libucrtd:lcidtoname_downlevel.obj
 0002:0000ca98       ??_C@_1M@GFFOJMCJ@?$AAd?$AAe?$AA?9?$AAd?$AAe@ 000000014004da98     libucrtd:lcidtoname_downlevel.obj
 0002:0000caa8       ??_C@_1M@MDNLKBPM@?$AAd?$AAe?$AA?9?$AAl?$AAi@ 000000014004daa8     libucrtd:lcidtoname_downlevel.obj
 0002:0000cab8       ??_C@_1M@NJBEEJNL@?$AAd?$AAe?$AA?9?$AAl?$AAu@ 000000014004dab8     libucrtd:lcidtoname_downlevel.obj
 0002:0000cac8       ??_C@_1O@GNNELBAP@?$AAd?$AAi?$AAv?$AA?9?$AAm?$AAv@ 000000014004dac8     libucrtd:lcidtoname_downlevel.obj
 0002:0000cad8       ??_C@_1M@EJLEOGAE@?$AAe?$AAl?$AA?9?$AAg?$AAr@ 000000014004dad8     libucrtd:lcidtoname_downlevel.obj
 0002:0000cae8       ??_C@_1M@GMPONJN@?$AAe?$AAn?$AA?9?$AAa?$AAu@ 000000014004dae8     libucrtd:lcidtoname_downlevel.obj
 0002:0000caf8       ??_C@_1M@NIDIIPGF@?$AAe?$AAn?$AA?9?$AAb?$AAz@ 000000014004daf8     libucrtd:lcidtoname_downlevel.obj
 0002:0000cb08       ??_C@_1M@JEHMIMFO@?$AAe?$AAn?$AA?9?$AAc?$AAa@ 000000014004db08     libucrtd:lcidtoname_downlevel.obj
 0002:0000cb18       ??_C@_1M@IGMJCDLA@?$AAe?$AAn?$AA?9?$AAc?$AAb@ 000000014004db18     libucrtd:lcidtoname_downlevel.obj
 0002:0000cb28       ??_C@_1M@BNFIGBKG@?$AAe?$AAn?$AA?9?$AAg?$AAb@ 000000014004db28     libucrtd:lcidtoname_downlevel.obj
 0002:0000cb38       ??_C@_1M@LKIFDIGP@?$AAe?$AAn?$AA?9?$AAi?$AAe@ 000000014004db38     libucrtd:lcidtoname_downlevel.obj
 0002:0000cb48       ??_C@_1M@PJKFGCCO@?$AAe?$AAn?$AA?9?$AAj?$AAm@ 000000014004db48     libucrtd:lcidtoname_downlevel.obj
 0002:0000cb58       ??_C@_1M@KPPKEPBO@?$AAe?$AAn?$AA?9?$AAn?$AAz@ 000000014004db58     libucrtd:lcidtoname_downlevel.obj
 0002:0000cb68       ??_C@_1M@GMDGLDOB@?$AAe?$AAn?$AA?9?$AAp?$AAh@ 000000014004db68     libucrtd:lcidtoname_downlevel.obj
 0002:0000cb78       ??_C@_1M@ONGIBJNA@?$AAe?$AAn?$AA?9?$AAt?$AAt@ 000000014004db78     libucrtd:lcidtoname_downlevel.obj
 0002:0000cb88       ??_C@_1M@LLODPCMM@?$AAe?$AAn?$AA?9?$AAu?$AAs@ 000000014004db88     libucrtd:lcidtoname_downlevel.obj
 0002:0000cb98       ??_C@_1M@LAKFNPAN@?$AAe?$AAn?$AA?9?$AAz?$AAa@ 000000014004db98     libucrtd:lcidtoname_downlevel.obj
 0002:0000cba8       ??_C@_1M@MFNHNHEO@?$AAe?$AAn?$AA?9?$AAz?$AAw@ 000000014004dba8     libucrtd:lcidtoname_downlevel.obj
 0002:0000cbb8       ??_C@_1M@EJEINPHM@?$AAe?$AAs?$AA?9?$AAa?$AAr@ 000000014004dbb8     libucrtd:lcidtoname_downlevel.obj
 0002:0000cbc8       ??_C@_1M@GNKPCCJA@?$AAe?$AAs?$AA?9?$AAb?$AAo@ 000000014004dbc8     libucrtd:lcidtoname_downlevel.obj
 0002:0000cbd8       ??_C@_1M@LEEGFONL@?$AAe?$AAs?$AA?9?$AAc?$AAl@ 000000014004dbd8     libucrtd:lcidtoname_downlevel.obj
 0002:0000cbe8       ??_C@_1M@KGPDPBDF@?$AAe?$AAs?$AA?9?$AAc?$AAo@ 000000014004dbe8     libucrtd:lcidtoname_downlevel.obj
 0002:0000cbf8       ??_C@_1M@EIAHOHH@?$AAe?$AAs?$AA?9?$AAc?$AAr@ 000000014004dbf8     libucrtd:lcidtoname_downlevel.obj
 0002:0000cc08       ??_C@_1M@LLPGMBIN@?$AAe?$AAs?$AA?9?$AAd?$AAo@ 000000014004dc08     libucrtd:lcidtoname_downlevel.obj
 0002:0000cc18       ??_C@_1M@DKHMKNJA@?$AAe?$AAs?$AA?9?$AAe?$AAc@ 000000014004dc18     libucrtd:lcidtoname_downlevel.obj
 0002:0000cc28       ??_C@_1M@GKGFPKAP@?$AAe?$AAs?$AA?9?$AAe?$AAs@ 000000014004dc28     libucrtd:lcidtoname_downlevel.obj
 0002:0000cc38       ??_C@_1M@LKHKGDLN@?$AAe?$AAs?$AA?9?$AAg?$AAt@ 000000014004dc38     libucrtd:lcidtoname_downlevel.obj
 0002:0000cc48       ??_C@_1M@HEIIGGJD@?$AAe?$AAs?$AA?9?$AAh?$AAn@ 000000014004dc48     libucrtd:lcidtoname_downlevel.obj
 0002:0000cc58       ??_C@_1M@FBDHPPGD@?$AAe?$AAs?$AA?9?$AAm?$AAx@ 000000014004dc58     libucrtd:lcidtoname_downlevel.obj
 0002:0000cc68       ??_C@_1M@DPAGLNDH@?$AAe?$AAs?$AA?9?$AAn?$AAi@ 000000014004dc68     libucrtd:lcidtoname_downlevel.obj
 0002:0000cc78       ??_C@_1M@MDGOPGDD@?$AAe?$AAs?$AA?9?$AAp?$AAa@ 000000014004dc78     libucrtd:lcidtoname_downlevel.obj
 0002:0000cc88       ??_C@_1M@EMAMGBGE@?$AAe?$AAs?$AA?9?$AAp?$AAe@ 000000014004dc88     libucrtd:lcidtoname_downlevel.obj
 0002:0000cc98       ??_C@_1M@IBMCAOEC@?$AAe?$AAs?$AA?9?$AAp?$AAr@ 000000014004dc98     libucrtd:lcidtoname_downlevel.obj
 0002:0000cca8       ??_C@_1M@FGMDIJED@?$AAe?$AAs?$AA?9?$AAp?$AAy@ 000000014004dca8     libucrtd:lcidtoname_downlevel.obj
 0002:0000ccb8       ??_C@_1M@IIDEOLLL@?$AAe?$AAs?$AA?9?$AAs?$AAv@ 000000014004dcb8     libucrtd:lcidtoname_downlevel.obj
 0002:0000ccc8       ??_C@_1M@GAOBIPA@?$AAe?$AAs?$AA?9?$AAu?$AAy@ 000000014004dcc8     libucrtd:lcidtoname_downlevel.obj
 0002:0000ccd8       ??_C@_1M@JKFFICHJ@?$AAe?$AAs?$AA?9?$AAv?$AAe@ 000000014004dcd8     libucrtd:lcidtoname_downlevel.obj
 0002:0000cce8       ??_C@_1M@PNMLOJDF@?$AAe?$AAt?$AA?9?$AAe?$AAe@ 000000014004dce8     libucrtd:lcidtoname_downlevel.obj
 0002:0000ccf8       ??_C@_1M@GHHLIKEI@?$AAe?$AAu?$AA?9?$AAe?$AAs@ 000000014004dcf8     libucrtd:lcidtoname_downlevel.obj
 0002:0000cd08       ??_C@_1M@PBNONODE@?$AAf?$AAa?$AA?9?$AAi?$AAr@ 000000014004dd08     libucrtd:lcidtoname_downlevel.obj
 0002:0000cd18       ??_C@_1M@JEEHPMIL@?$AAf?$AAi?$AA?9?$AAf?$AAi@ 000000014004dd18     libucrtd:lcidtoname_downlevel.obj
 0002:0000cd28       ??_C@_1M@LMDCNDBA@?$AAf?$AAo?$AA?9?$AAf?$AAo@ 000000014004dd28     libucrtd:lcidtoname_downlevel.obj
 0002:0000cd38       ??_C@_1M@JKEOHLDK@?$AAf?$AAr?$AA?9?$AAb?$AAe@ 000000014004dd38     libucrtd:lcidtoname_downlevel.obj
 0002:0000cd48       ??_C@_1M@NOHADPMI@?$AAf?$AAr?$AA?9?$AAc?$AAa@ 000000014004dd48     libucrtd:lcidtoname_downlevel.obj
 0002:0000cd58       ??_C@_1M@KDHIHAEC@?$AAf?$AAr?$AA?9?$AAc?$AAh@ 000000014004dd58     libucrtd:lcidtoname_downlevel.obj
 0002:0000cd68       ??_C@_1M@MMBBFGAK@?$AAf?$AAr?$AA?9?$AAf?$AAr@ 000000014004dd68     libucrtd:lcidtoname_downlevel.obj
 0002:0000cd78       ??_C@_1M@PAFNENNF@?$AAf?$AAr?$AA?9?$AAl?$AAu@ 000000014004dd78     libucrtd:lcidtoname_downlevel.obj
 0002:0000cd88       ??_C@_1M@EOHDJGDD@?$AAf?$AAr?$AA?9?$AAm?$AAc@ 000000014004dd88     libucrtd:lcidtoname_downlevel.obj
 0002:0000cd98       ??_C@_1M@FAPLLOPF@?$AAg?$AAl?$AA?9?$AAe?$AAs@ 000000014004dd98     libucrtd:lcidtoname_downlevel.obj
 0002:0000cda8       ??_C@_1M@FOPBFLOO@?$AAg?$AAu?$AA?9?$AAi?$AAn@ 000000014004dda8     libucrtd:lcidtoname_downlevel.obj
 0002:0000cdb8       ??_C@_1M@KBMCINPM@?$AAh?$AAe?$AA?9?$AAi?$AAl@ 000000014004ddb8     libucrtd:lcidtoname_downlevel.obj
 0002:0000cdc8       ??_C@_1M@BBPHKFPJ@?$AAh?$AAi?$AA?9?$AAi?$AAn@ 000000014004ddc8     libucrtd:lcidtoname_downlevel.obj
 0002:0000cdd8       ??_C@_1M@PMBNDPHD@?$AAh?$AAr?$AA?9?$AAb?$AAa@ 000000014004ddd8     libucrtd:lcidtoname_downlevel.obj
 0002:0000cde8       ??_C@_1M@BPCKOEGE@?$AAh?$AAr?$AA?9?$AAh?$AAr@ 000000014004dde8     libucrtd:lcidtoname_downlevel.obj
 0002:0000cdf8       ??_C@_1M@GACBMHKE@?$AAh?$AAu?$AA?9?$AAh?$AAu@ 000000014004ddf8     libucrtd:lcidtoname_downlevel.obj
 0002:0000ce08       ??_C@_1M@MILPAJJC@?$AAh?$AAy?$AA?9?$AAa?$AAm@ 000000014004de08     libucrtd:lcidtoname_downlevel.obj
 0002:0000ce18       ??_C@_1M@BABBICEC@?$AAi?$AAd?$AA?9?$AAi?$AAd@ 000000014004de18     libucrtd:lcidtoname_downlevel.obj
 0002:0000ce28       ??_C@_1M@BIKNHHPF@?$AAi?$AAs?$AA?9?$AAi?$AAs@ 000000014004de28     libucrtd:lcidtoname_downlevel.obj
 0002:0000ce38       ??_C@_1M@NMPCJPHE@?$AAi?$AAt?$AA?9?$AAc?$AAh@ 000000014004de38     libucrtd:lcidtoname_downlevel.obj
 0002:0000ce48       ??_C@_1M@GHKGFEDF@?$AAi?$AAt?$AA?9?$AAi?$AAt@ 000000014004de48     libucrtd:lcidtoname_downlevel.obj
 0002:0000ce58       ??_C@_1M@NIEJCJJA@?$AAj?$AAa?$AA?9?$AAj?$AAp@ 000000014004de58     libucrtd:lcidtoname_downlevel.obj
 0002:0000ce68       ??_C@_1M@JILFNBIM@?$AAk?$AAa?$AA?9?$AAg?$AAe@ 000000014004de68     libucrtd:lcidtoname_downlevel.obj
 0002:0000ce78       ??_C@_1M@PACPMGPH@?$AAk?$AAk?$AA?9?$AAk?$AAz@ 000000014004de78     libucrtd:lcidtoname_downlevel.obj
 0002:0000ce88       ??_C@_1M@IELFGMHA@?$AAk?$AAn?$AA?9?$AAi?$AAn@ 000000014004de88     libucrtd:lcidtoname_downlevel.obj
 0002:0000ce98       ??_C@_1O@IBBJHCH@?$AAk?$AAo?$AAk?$AA?9?$AAi?$AAn@ 000000014004de98     libucrtd:lcidtoname_downlevel.obj
 0002:0000cea8       ??_C@_1M@DMHAEOGC@?$AAk?$AAo?$AA?9?$AAk?$AAr@ 000000014004dea8     libucrtd:lcidtoname_downlevel.obj
 0002:0000ceb8       ??_C@_1M@HBAHBIGA@?$AAk?$AAy?$AA?9?$AAk?$AAg@ 000000014004deb8     libucrtd:lcidtoname_downlevel.obj
 0002:0000cec8       ??_C@_1M@KPMILCJG@?$AAl?$AAt?$AA?9?$AAl?$AAt@ 000000014004dec8     libucrtd:lcidtoname_downlevel.obj
 0002:0000ced8       ??_C@_1M@BDEKKCA@?$AAl?$AAv?$AA?9?$AAl?$AAv@ 000000014004ded8     libucrtd:lcidtoname_downlevel.obj
 0002:0000cee8       ??_C@_1M@ELCKCCJJ@?$AAm?$AAi?$AA?9?$AAn?$AAz@ 000000014004dee8     libucrtd:lcidtoname_downlevel.obj
 0002:0000cef8       ??_C@_1M@CBOOLAPA@?$AAm?$AAk?$AA?9?$AAm?$AAk@ 000000014004def8     libucrtd:lcidtoname_downlevel.obj
 0002:0000cf08       ??_C@_1M@GPHNBJKN@?$AAm?$AAl?$AA?9?$AAi?$AAn@ 000000014004df08     libucrtd:lcidtoname_downlevel.obj
 0002:0000cf18       ??_C@_1M@PABJILIG@?$AAm?$AAn?$AA?9?$AAm?$AAn@ 000000014004df18     libucrtd:lcidtoname_downlevel.obj
 0002:0000cf28       ??_C@_1M@FGBKKIPG@?$AAm?$AAr?$AA?9?$AAi?$AAn@ 000000014004df28     libucrtd:lcidtoname_downlevel.obj
 0002:0000cf38       ??_C@_1M@NDBPDDAL@?$AAm?$AAs?$AA?9?$AAb?$AAn@ 000000014004df38     libucrtd:lcidtoname_downlevel.obj
 0002:0000cf48       ??_C@_1M@OPIHOOPI@?$AAm?$AAs?$AA?9?$AAm?$AAy@ 000000014004df48     libucrtd:lcidtoname_downlevel.obj
 0002:0000cf58       ??_C@_1M@PPDBCNFM@?$AAm?$AAt?$AA?9?$AAm?$AAt@ 000000014004df58     libucrtd:lcidtoname_downlevel.obj
 0002:0000cf68       ??_C@_1M@KDJDKMDD@?$AAn?$AAb?$AA?9?$AAn?$AAo@ 000000014004df68     libucrtd:lcidtoname_downlevel.obj
 0002:0000cf78       ??_C@_1M@KFCFLMJP@?$AAn?$AAl?$AA?9?$AAb?$AAe@ 000000014004df78     libucrtd:lcidtoname_downlevel.obj
 0002:0000cf88       ??_C@_1M@KPOPDDGO@?$AAn?$AAl?$AA?9?$AAn?$AAl@ 000000014004df88     libucrtd:lcidtoname_downlevel.obj
 0002:0000cf98       ??_C@_1M@LJKPEMLN@?$AAn?$AAn?$AA?9?$AAn?$AAo@ 000000014004df98     libucrtd:lcidtoname_downlevel.obj
 0002:0000cfa8       ??_C@_1M@BDGHHBFL@?$AAn?$AAs?$AA?9?$AAz?$AAa@ 000000014004dfa8     libucrtd:lcidtoname_downlevel.obj
 0002:0000cfb8       ??_C@_1M@IDEHOAP@?$AAp?$AAa?$AA?9?$AAi?$AAn@ 000000014004dfb8     libucrtd:lcidtoname_downlevel.obj
 0002:0000cfc8       ??_C@_1M@HDBKGOGH@?$AAp?$AAl?$AA?9?$AAp?$AAl@ 000000014004dfc8     libucrtd:lcidtoname_downlevel.obj
 0002:0000cfd8       ??_C@_1M@LJLLCMEH@?$AAp?$AAt?$AA?9?$AAb?$AAr@ 000000014004dfd8     libucrtd:lcidtoname_downlevel.obj
 0002:0000cfe8       ??_C@_1M@NCMONAAL@?$AAp?$AAt?$AA?9?$AAp?$AAt@ 000000014004dfe8     libucrtd:lcidtoname_downlevel.obj
 0002:0000cff8       ??_C@_1O@EAKMAJDN@?$AAq?$AAu?$AAz?$AA?9?$AAb?$AAo@ 000000014004dff8     libucrtd:lcidtoname_downlevel.obj
 0002:0000d008       ??_C@_1O@BHHPIGDN@?$AAq?$AAu?$AAz?$AA?9?$AAe?$AAc@ 000000014004e008     libucrtd:lcidtoname_downlevel.obj
 0002:0000d018       ??_C@_1O@GBAPEKMJ@?$AAq?$AAu?$AAz?$AA?9?$AAp?$AAe@ 000000014004e018     libucrtd:lcidtoname_downlevel.obj
 0002:0000d028       ??_C@_1M@CLGLEFBO@?$AAr?$AAo?$AA?9?$AAr?$AAo@ 000000014004e028     libucrtd:lcidtoname_downlevel.obj
 0002:0000d038       ??_C@_1M@CEEDODME@?$AAr?$AAu?$AA?9?$AAr?$AAu@ 000000014004e038     libucrtd:lcidtoname_downlevel.obj
 0002:0000d048       ??_C@_1M@HPKKKMPP@?$AAs?$AAa?$AA?9?$AAi?$AAn@ 000000014004e048     libucrtd:lcidtoname_downlevel.obj
 0002:0000d058       ??_C@_1M@BKMAIGOJ@?$AAs?$AAe?$AA?9?$AAf?$AAi@ 000000014004e058     libucrtd:lcidtoname_downlevel.obj
 0002:0000d068       ??_C@_1M@NDPIFLFI@?$AAs?$AAe?$AA?9?$AAn?$AAo@ 000000014004e068     libucrtd:lcidtoname_downlevel.obj
 0002:0000d078       ??_C@_1M@DANKKHJ@?$AAs?$AAe?$AA?9?$AAs?$AAe@ 000000014004e078     libucrtd:lcidtoname_downlevel.obj
 0002:0000d088       ??_C@_1M@PNBLONPJ@?$AAs?$AAk?$AA?9?$AAs?$AAk@ 000000014004e088     libucrtd:lcidtoname_downlevel.obj
 0002:0000d098       ??_C@_1M@LFMODOAL@?$AAs?$AAl?$AA?9?$AAs?$AAi@ 000000014004e098     libucrtd:lcidtoname_downlevel.obj
 0002:0000d0a8       ??_C@_1O@DFKOMPG@?$AAs?$AAm?$AAa?$AA?9?$AAn?$AAo@ 000000014004e0a8     libucrtd:lcidtoname_downlevel.obj
 0002:0000d0b8       ??_C@_1O@NDKPBNNH@?$AAs?$AAm?$AAa?$AA?9?$AAs?$AAe@ 000000014004e0b8     libucrtd:lcidtoname_downlevel.obj
 0002:0000d0c8       ??_C@_1O@PLLKBHAB@?$AAs?$AAm?$AAj?$AA?9?$AAn?$AAo@ 000000014004e0c8     libucrtd:lcidtoname_downlevel.obj
 0002:0000d0d8       ??_C@_1O@CLEPOGCA@?$AAs?$AAm?$AAj?$AA?9?$AAs?$AAe@ 000000014004e0d8     libucrtd:lcidtoname_downlevel.obj
 0002:0000d0e8       ??_C@_1O@DLGJGKMK@?$AAs?$AAm?$AAn?$AA?9?$AAf?$AAi@ 000000014004e0e8     libucrtd:lcidtoname_downlevel.obj
 0002:0000d0f8       ??_C@_1O@OJDJGAJC@?$AAs?$AAm?$AAs?$AA?9?$AAf?$AAi@ 000000014004e0f8     libucrtd:lcidtoname_downlevel.obj
 0002:0000d108       ??_C@_1M@BOFOGHPB@?$AAs?$AAq?$AA?9?$AAa?$AAl@ 000000014004e108     libucrtd:lcidtoname_downlevel.obj
 0002:0000d118       ??_C@_1BG@LJBBIPGB@?$AAs?$AAr?$AA?9?$AAb?$AAa?$AA?9?$AAc?$AAy?$AAr?$AAl@ 000000014004e118     libucrtd:lcidtoname_downlevel.obj
 0002:0000d130       ??_C@_1BG@JLBENFOE@?$AAs?$AAr?$AA?9?$AAb?$AAa?$AA?9?$AAl?$AAa?$AAt?$AAn@ 000000014004e130     libucrtd:lcidtoname_downlevel.obj
 0002:0000d148       ??_C@_1BG@KODPNHE@?$AAs?$AAr?$AA?9?$AAs?$AAp?$AA?9?$AAc?$AAy?$AAr?$AAl@ 000000014004e148     libucrtd:lcidtoname_downlevel.obj
 0002:0000d160       ??_C@_1BG@CIOGKHPB@?$AAs?$AAr?$AA?9?$AAs?$AAp?$AA?9?$AAl?$AAa?$AAt?$AAn@ 000000014004e160     libucrtd:lcidtoname_downlevel.obj
 0002:0000d178       ??_C@_1M@NGFJLMAC@?$AAs?$AAv?$AA?9?$AAf?$AAi@ 000000014004e178     libucrtd:lcidtoname_downlevel.obj
 0002:0000d188       ??_C@_1M@MPJEJAJC@?$AAs?$AAv?$AA?9?$AAs?$AAe@ 000000014004e188     libucrtd:lcidtoname_downlevel.obj
 0002:0000d198       ??_C@_1M@MPNDHLFK@?$AAs?$AAw?$AA?9?$AAk?$AAe@ 000000014004e198     libucrtd:lcidtoname_downlevel.obj
 0002:0000d1a8       ??_C@_1O@KOHBJJI@?$AAs?$AAy?$AAr?$AA?9?$AAs?$AAy@ 000000014004e1a8     libucrtd:lcidtoname_downlevel.obj
 0002:0000d1b8       ??_C@_1M@LDCEFHA@?$AAt?$AAa?$AA?9?$AAi?$AAn@ 000000014004e1b8     libucrtd:lcidtoname_downlevel.obj
 0002:0000d1c8       ??_C@_1M@CNJOFAK@?$AAt?$AAe?$AA?9?$AAi?$AAn@ 000000014004e1c8     libucrtd:lcidtoname_downlevel.obj
 0002:0000d1d8       ??_C@_1M@GNAECACD@?$AAt?$AAh?$AA?9?$AAt?$AAh@ 000000014004e1d8     libucrtd:lcidtoname_downlevel.obj
 0002:0000d1e8       ??_C@_1M@CHBIHOJO@?$AAt?$AAn?$AA?9?$AAz?$AAa@ 000000014004e1e8     libucrtd:lcidtoname_downlevel.obj
 0002:0000d1f8       ??_C@_1M@GCCMIGPJ@?$AAt?$AAr?$AA?9?$AAt?$AAr@ 000000014004e1f8     libucrtd:lcidtoname_downlevel.obj
 0002:0000d208       ??_C@_1M@CELMCNBK@?$AAt?$AAt?$AA?9?$AAr?$AAu@ 000000014004e208     libucrtd:lcidtoname_downlevel.obj
 0002:0000d218       ??_C@_1M@KLMCELGA@?$AAu?$AAk?$AA?9?$AAu?$AAa@ 000000014004e218     libucrtd:lcidtoname_downlevel.obj
 0002:0000d228       ??_C@_1M@EPAJJAJF@?$AAu?$AAr?$AA?9?$AAp?$AAk@ 000000014004e228     libucrtd:lcidtoname_downlevel.obj
 0002:0000d238       ??_C@_1BG@GEGPMCDJ@?$AAu?$AAz?$AA?9?$AAu?$AAz?$AA?9?$AAc?$AAy?$AAr?$AAl@ 000000014004e238     libucrtd:lcidtoname_downlevel.obj
 0002:0000d250       ??_C@_1BG@EGGKJILM@?$AAu?$AAz?$AA?9?$AAu?$AAz?$AA?9?$AAl?$AAa?$AAt?$AAn@ 000000014004e250     libucrtd:lcidtoname_downlevel.obj
 0002:0000d268       ??_C@_1M@GFOCLFF@?$AAv?$AAi?$AA?9?$AAv?$AAn@ 000000014004e268     libucrtd:lcidtoname_downlevel.obj
 0002:0000d278       ??_C@_1M@CPAMEDFI@?$AAx?$AAh?$AA?9?$AAz?$AAa@ 000000014004e278     libucrtd:lcidtoname_downlevel.obj
 0002:0000d288       ??_C@_1O@EBKIFIGN@?$AAz?$AAh?$AA?9?$AAc?$AAh?$AAs@ 000000014004e288     libucrtd:lcidtoname_downlevel.obj
 0002:0000d298       ??_C@_1O@NMHPGANE@?$AAz?$AAh?$AA?9?$AAc?$AAh?$AAt@ 000000014004e298     libucrtd:lcidtoname_downlevel.obj
 0002:0000d2a8       ??_C@_1M@LPINJOMC@?$AAz?$AAh?$AA?9?$AAc?$AAn@ 000000014004e2a8     libucrtd:lcidtoname_downlevel.obj
 0002:0000d2b8       ??_C@_1M@OCJEJODD@?$AAz?$AAh?$AA?9?$AAh?$AAk@ 000000014004e2b8     libucrtd:lcidtoname_downlevel.obj
 0002:0000d2c8       ??_C@_1M@DNDLJINH@?$AAz?$AAh?$AA?9?$AAm?$AAo@ 000000014004e2c8     libucrtd:lcidtoname_downlevel.obj
 0002:0000d2d8       ??_C@_1M@MBFDNDND@?$AAz?$AAh?$AA?9?$AAs?$AAg@ 000000014004e2d8     libucrtd:lcidtoname_downlevel.obj
 0002:0000d2e8       ??_C@_1M@IMEPLEPE@?$AAz?$AAh?$AA?9?$AAt?$AAw@ 000000014004e2e8     libucrtd:lcidtoname_downlevel.obj
 0002:0000d2f8       ??_C@_1M@BBGHNHJP@?$AAz?$AAu?$AA?9?$AAz?$AAa@ 000000014004e2f8     libucrtd:lcidtoname_downlevel.obj
 0002:0000d310       ??_C@_1GA@DEPMKPD@?$AAm?$AAi?$AAn?$AAk?$AAe?$AAr?$AAn?$AAe?$AAl?$AA?2?$AAc?$AAr?$AAt?$AAs?$AA?2@ 000000014004e310     libucrtd:isatty.obj
 0002:0000d370       ??_C@_1BA@LEBDGIHM@?$AA_?$AAi?$AAs?$AAa?$AAt?$AAt?$AAy@ 000000014004e370     libucrtd:isatty.obj
 0002:0000d420       ??_C@_1BK@FPAMLIDG@?$AAs?$AA?5?$AA?$CB?$AA?$DN?$AA?5?$AAn?$AAu?$AAl?$AAl?$AAp?$AAt?$AAr@ 000000014004e420     libucrtd:mbstowcs.obj
 0002:0000d440       ??_C@_1GI@KABMHNPH@?$AAm?$AAi?$AAn?$AAk?$AAe?$AAr?$AAn?$AAe?$AAl?$AA?2?$AAc?$AAr?$AAt?$AAs?$AA?2@ 000000014004e440     libucrtd:mbstowcs.obj
 0002:0000d4a8       ??_C@_1CG@JEHFHLNG@?$AA_?$AAm?$AAb?$AAs?$AAt?$AAo?$AAw?$AAc?$AAs?$AA_?$AAl?$AA_?$AAh?$AAe?$AAl@ 000000014004e4a8     libucrtd:mbstowcs.obj
 0002:0000d4d0       ??_C@_1JM@MEKBACIG@?$AA?$CI?$AAp?$AAw?$AAc?$AAs?$AA?5?$AA?$DN?$AA?$DN?$AA?5?$AAn?$AAu?$AAl?$AAl?$AAp?$AAt@ 000000014004e4d0     libucrtd:mbstowcs.obj
 0002:0000d570       ??_C@_1CG@BILJJDPK@?$AA_?$AAm?$AAb?$AAs?$AAt?$AAo?$AAw?$AAc?$AAs?$AA_?$AAi?$AAn?$AAt?$AAe?$AAr@ 000000014004e570     libucrtd:mbstowcs.obj
 0002:0000d598       ??_C@_1CM@LLECFMFH@?$AAb?$AAu?$AAf?$AAf?$AAe?$AAr?$AAS?$AAi?$AAz?$AAe?$AA?5?$AA?$DM?$AA?$DN?$AA?5?$AAI@ 000000014004e598     libucrtd:mbstowcs.obj
 0002:0000d5c8       ??_C@_1CO@JNPEPJAL@?$AAr?$AAe?$AAt?$AAs?$AAi?$AAz?$AAe?$AA?5?$AA?$DM?$AA?$DN?$AA?5?$AAs?$AAi?$AAz?$AAe@ 000000014004e5c8     libucrtd:mbstowcs.obj
 0002:0000d5f8       ??_C@_1CA@NOKNKDIG@?$AAp?$AAw?$AAc?$AAs?$AA?5?$AA?$CB?$AA?$DN?$AA?5?$AAn?$AAu?$AAl?$AAl?$AAp?$AAt?$AAr@ 000000014004e5f8     libucrtd:wcstombs.obj
 0002:0000d620       ??_C@_1GI@EEJDEALP@?$AAm?$AAi?$AAn?$AAk?$AAe?$AAr?$AAn?$AAe?$AAl?$AA?2?$AAc?$AAr?$AAt?$AAs?$AA?2@ 000000014004e620     libucrtd:wcstombs.obj
 0002:0000d688       ??_C@_1CG@LLJCAOHF@?$AA_?$AAw?$AAc?$AAs?$AAt?$AAo?$AAm?$AAb?$AAs?$AA_?$AAl?$AA_?$AAh?$AAe?$AAl@ 000000014004e688     libucrtd:wcstombs.obj
 0002:0000d6b0       ??_C@_1JI@DFNKFCLG@?$AA?$CI?$AAd?$AAs?$AAt?$AA?5?$AA?$CB?$AA?$DN?$AA?5?$AAn?$AAu?$AAl?$AAl?$AAp?$AAt?$AAr@ 000000014004e6b0     libucrtd:wcstombs.obj
 0002:0000d748       ??_C@_1CG@DHFOOGFJ@?$AA_?$AAw?$AAc?$AAs?$AAt?$AAo?$AAm?$AAb?$AAs?$AA_?$AAi?$AAn?$AAt?$AAe?$AAr@ 000000014004e748     libucrtd:wcstombs.obj
 0002:0000d770       ??_C@_1CM@KEOGBFLI@?$AAs?$AAi?$AAz?$AAe?$AAI?$AAn?$AAB?$AAy?$AAt?$AAe?$AAs?$AA?5?$AA?$DO?$AA?5?$AAr@ 000000014004e770     libucrtd:wcstombs.obj
 0002:0000d7a0       ??_C@_1GI@IMEEHIAK@?$AAm?$AAi?$AAn?$AAk?$AAe?$AAr?$AAn?$AAe?$AAl?$AA?2?$AAc?$AAr?$AAt?$AAs?$AA?2@ 000000014004e7a0     libucrtd:_fptostr.obj
 0002:0000d808       ??_C@_1DG@NMGBKPMI@?$AA_?$AA_?$AAa?$AAc?$AAr?$AAt?$AA_?$AAf?$AAp?$AA_?$AAs?$AAt?$AAr?$AAf?$AAl@ 000000014004e808     libucrtd:_fptostr.obj
 0002:0000d840       ??_C@_1IE@EAOKIIFP@?$AAb?$AAu?$AAf?$AAf?$AAe?$AAr?$AA_?$AAc?$AAo?$AAu?$AAn?$AAt?$AA?5?$AA?$DO?$AA?5@ 000000014004e840     libucrtd:_fptostr.obj
 0002:0000d8c8       ??_C@_1CA@EDEEBMBB@?$AAp?$AAf?$AAl?$AAt?$AA?5?$AA?$CB?$AA?$DN?$AA?5?$AAn?$AAu?$AAl?$AAl?$AAp?$AAt?$AAr@ 000000014004e8c8     libucrtd:_fptostr.obj
 0002:0000d8f0       ?large_power_data@?1??multiply_by_power_of_ten@__crt_strtox@@YA_NAEAUbig_integer@2@I@Z@4QBIB 000000014004e8f0     libucrtd:cfout.obj
 0002:0000e200       ?large_power_indices@?1??multiply_by_power_of_ten@__crt_strtox@@YA_NAEAUbig_integer@2@I@Z@4QBUunpack_index@?1??12@YA_N0I@Z@B 000000014004f200     libucrtd:cfout.obj
 0002:0000e298       ?small_powers_of_ten@?1??multiply_by_power_of_ten@__crt_strtox@@YA_NAEAUbig_integer@2@I@Z@4QBIB 000000014004f298     libucrtd:cfout.obj
 0002:0000e2c0       ??_C@_1DI@GICAMMFM@?$AA?$CI?$AA?$CC?$AAD?$AAi?$AAv?$AAi?$AAs?$AAi?$AAo?$AAn?$AA?5?$AAb?$AAy?$AA?5?$AAz@ 000000014004f2c0     libucrtd:cfout.obj
 0002:0000e300       ??_C@_1GO@BFGDDONN@?$AAm?$AAi?$AAn?$AAk?$AAe?$AAr?$AAn?$AAe?$AAl?$AA?2?$AAc?$AAr?$AAt?$AAs?$AA?2@ 000000014004f300     libucrtd:cfout.obj
 0002:0000e370       ??_C@_1GC@DDAKNBNC@?$AAm?$AAi?$AAn?$AAk?$AAe?$AAr?$AAn?$AAe?$AAl?$AA?2?$AAc?$AAr?$AAt?$AAs?$AA?2@ 000000014004f370     libucrtd:cfout.obj
 0002:0000e3d8       ??_C@_1BM@FAAOAKKO@?$AA_?$AA_?$AAa?$AAc?$AAr?$AAt?$AA_?$AAf?$AAl?$AAt?$AAo?$AAu?$AAt@ 000000014004f3d8     libucrtd:cfout.obj
 0002:0000e400       ??_C@_1EI@OACEJKEP@?$AAs?$AAt?$AAr?$AAc?$AAp?$AAy?$AA_?$AAs?$AA?$CI?$AAr?$AAe?$AAs?$AAu?$AAl?$AAt@ 000000014004f400     libucrtd:cfout.obj
 0002:0000e448       ??_C@_01GBGANLPD@0@        000000014004f448     libucrtd:cfout.obj
 0002:0000e450       ??_C@_1FC@KIECGFMP@?$AAs?$AAt?$AAr?$AAc?$AAp?$AAy?$AA_?$AAs?$AA?$CI?$AAr?$AAe?$AAs?$AAu?$AAl?$AAt@ 000000014004f450     libucrtd:cfout.obj
 0002:0000e4a4       ??_C@_05DNEBIAHO@1?$CDINF@ 000000014004f4a4     libucrtd:cfout.obj
 0002:0000e4b0       ??_C@_1FC@NFPJEIBD@?$AAs?$AAt?$AAr?$AAc?$AAp?$AAy?$AA_?$AAs?$AA?$CI?$AAr?$AAe?$AAs?$AAu?$AAl?$AAt@ 000000014004f4b0     libucrtd:cfout.obj
 0002:0000e504       ??_C@_06IMKFLFPG@1?$CDQNAN@ 000000014004f504     libucrtd:cfout.obj
 0002:0000e510       ??_C@_1FC@DEJHIMLO@?$AAs?$AAt?$AAr?$AAc?$AAp?$AAy?$AA_?$AAs?$AA?$CI?$AAr?$AAe?$AAs?$AAu?$AAl?$AAt@ 000000014004f510     libucrtd:cfout.obj
 0002:0000e564       ??_C@_06PGGFOGJG@1?$CDSNAN@ 000000014004f564     libucrtd:cfout.obj
 0002:0000e570       ??_C@_1FC@KMLHLFPC@?$AAs?$AAt?$AAr?$AAc?$AAp?$AAy?$AA_?$AAs?$AA?$CI?$AAr?$AAe?$AAs?$AAu?$AAl?$AAt@ 000000014004f570     libucrtd:cfout.obj
 0002:0000e5c4       ??_C@_05PHHOCPM@1?$CDIND@  000000014004f5c4     libucrtd:cfout.obj
 0002:0000e5d0       ??_C@_1DE@KHKADFOO@?$AAm?$AAa?$AAn?$AAt?$AAi?$AAs?$AAs?$AAa?$AA_?$AAb?$AAu?$AAf?$AAf?$AAe?$AAr@ 000000014004f5d0     libucrtd:cfout.obj
 0002:0000e610       ??_C@_1FI@LFKLOPAC@?$AA?$CI?$AA?$CC?$AAu?$AAn?$AAe?$AAx?$AAp?$AAe?$AAc?$AAt?$AAe?$AAd?$AA?5?$AAi?$AAn@ 000000014004f610     libucrtd:cfout.obj
 0002:0000e670       ??_C@_1FG@MLHBDPBG@?$AAq?$AAu?$AAo?$AAt?$AAi?$AAe?$AAn?$AAt?$AA?5?$AA?$DM?$AA?5?$AAd?$AAi?$AAg?$AAi@ 000000014004f670     libucrtd:cfout.obj
 0002:0000e6d0       ??_C@_1EK@OANGPA@?$AA1?$AA?5?$AA?$DM?$AA?$DN?$AA?5?$AAt?$AAr?$AAa?$AAi?$AAl?$AA_?$AAb?$AAy?$AAt?$AAe@ 000000014004f6d0     libucrtd:c32rtomb.obj
 0002:0000e720       ??_C@_1GI@FBFKMNDD@?$AAm?$AAi?$AAn?$AAk?$AAe?$AAr?$AAn?$AAe?$AAl?$AA?2?$AAc?$AAr?$AAt?$AAs?$AA?2@ 000000014004f720     libucrtd:c32rtomb.obj
 0002:0000e790       ??_C@_1EA@DDDCIHI@?$AAc?$AA3?$AA2?$AA?5?$AA?$DM?$AA?5?$AA?$CI?$AA1?$AAu?$AA?5?$AA?$DM?$AA?$DM?$AA?5?$AA?$CI?$AA7@ 000000014004f790     libucrtd:c32rtomb.obj
 0002:0000e7d0       ??_C@_1GG@MCCIENJO@?$AAm?$AAi?$AAn?$AAk?$AAe?$AAr?$AAn?$AAe?$AAl?$AA?2?$AAc?$AAr?$AAt?$AAs?$AA?2@ 000000014004f7d0     libucrtd:mbrtowc.obj
 0002:0000e840       ??_C@_1EK@MCEFBPIK@?$AAr?$AAe?$AAt?$AAv?$AAa?$AAl?$AA?5?$AA?$CB?$AA?$DN?$AA?5?$AA_?$AA_?$AAc?$AAr?$AAt@ 000000014004f840     libucrtd:mbrtowc.obj
 0002:0000e890       ??_C@_1GE@GPOPIOIG@?$AAm?$AAi?$AAn?$AAk?$AAe?$AAr?$AAn?$AAe?$AAl?$AA?2?$AAc?$AAr?$AAt?$AAs?$AA?2@ 000000014004f890     libucrtd:_freebuf.obj
 0002:0000e920       ??_C@_1GA@MPOOLHCO@?$AAm?$AAi?$AAn?$AAk?$AAe?$AAr?$AAn?$AAe?$AAl?$AA?2?$AAc?$AAr?$AAt?$AAs?$AA?2@ 000000014004f920     libucrtd:commit.obj
 0002:0000e980       ??_C@_1BA@FLNMBBIM@?$AA_?$AAc?$AAo?$AAm?$AAm?$AAi?$AAt@ 000000014004f980     libucrtd:commit.obj
 0002:0000e9c0       ??_C@_1FO@CAMPMGCN@?$AAm?$AAi?$AAn?$AAk?$AAe?$AAr?$AAn?$AAe?$AAl?$AA?2?$AAc?$AAr?$AAt?$AAs?$AA?2@ 000000014004f9c0     libucrtd:write.obj
 0002:0000ea20       ??_C@_1CA@PNHCPGNO@?$AA_?$AAw?$AAr?$AAi?$AAt?$AAe?$AA_?$AAi?$AAn?$AAt?$AAe?$AAr?$AAn?$AAa?$AAl@ 000000014004fa20     libucrtd:write.obj
 0002:0000ea40       ??_C@_1CK@MMEFCHHN@?$AA?$CB?$AA_?$AAd?$AAb?$AAc?$AAs?$AAB?$AAu?$AAf?$AAf?$AAe?$AAr?$AAU?$AAs?$AAe@ 000000014004fa40     libucrtd:write.obj
 0002:0000ea70       ??_C@_1EG@LICJGLJJ@?$AA1?$AA?5?$AA?$DM?$AA?5?$AAm?$AAb?$AA_?$AAl?$AAe?$AAn?$AA?5?$AA?$CG?$AA?$CG?$AA?5?$AAm@ 000000014004fa70     libucrtd:write.obj
 0002:0000eac0       ??_C@_1FC@NFILPJB@?$AAm?$AAb?$AA_?$AAb?$AAu?$AAf?$AA_?$AAu?$AAs?$AAe?$AAd?$AA?5?$AA?$CL?$AA?5?$AAb@ 000000014004fac0     libucrtd:write.obj
 0002:0000eb20       ??_C@_1FC@HEJOPHLA@?$AAa?$AAv?$AAa?$AAi?$AAl?$AAa?$AAb?$AAl?$AAe?$AA_?$AAb?$AAy?$AAt?$AAe?$AAs@ 000000014004fb20     libucrtd:write.obj
 0002:0000eb80       ??_C@_1GG@JOGHJGBM@?$AA_?$AAi?$AAs?$AAl?$AAe?$AAa?$AAd?$AAb?$AAy?$AAt?$AAe?$AA_?$AAf?$AAa?$AAs@ 000000014004fb80     libucrtd:write.obj
 0002:0000ebe8       ??_C@_1BM@NCANHCIP@?$AA_?$AAw?$AAr?$AAi?$AAt?$AAe?$AA_?$AAn?$AAo?$AAl?$AAo?$AAc?$AAk@ 000000014004fbe8     libucrtd:write.obj
 0002:0000ec08       ??_C@_1CK@CPEAGIIP@?$AAb?$AAu?$AAf?$AAf?$AAe?$AAr?$AA_?$AAs?$AAi?$AAz?$AAe?$AA?5?$AA?$CF?$AA?5?$AA2@ 000000014004fc08     libucrtd:write.obj
 0002:0000ee90       __real@3ff0000000000000    000000014004fe90     libucrtd:ceil.obj
 0002:0000ee98       ??_C@_1DG@JNDMIEJL@?$AA?$CI?$AA?$CC?$AAI?$AAn?$AAv?$AAa?$AAl?$AAi?$AAd?$AA?5?$AAi?$AAn?$AAp?$AAu?$AAt@ 000000014004fe98     libucrtd:contrlfp.obj
 0002:0000eed0       ??_C@_1FO@HHLKCIKB@?$AAm?$AAi?$AAn?$AAk?$AAe?$AAr?$AAn?$AAe?$AAl?$AA?2?$AAc?$AAr?$AAt?$AAs?$AA?2@ 000000014004fed0     libucrtd:contrlfp.obj
 0002:0000ef30       ??_C@_1BK@CDOALEA@?$AA_?$AAc?$AAo?$AAn?$AAt?$AAr?$AAo?$AAl?$AAf?$AAp?$AA_?$AAs@ 000000014004ff30     libucrtd:contrlfp.obj
 0002:0000ef50       ??_C@_1GA@DKNOMDCL@?$AAm?$AAi?$AAn?$AAk?$AAe?$AAr?$AAn?$AAe?$AAl?$AA?2?$AAc?$AAr?$AAt?$AAs?$AA?2@ 000000014004ff50     libucrtd:fclose.obj
 0002:0000efb0       ??_C@_1DA@IHIKPHIN@?$AA_?$AAf?$AAc?$AAl?$AAo?$AAs?$AAe?$AA_?$AAn?$AAo?$AAl?$AAo?$AAc?$AAk?$AA_@ 000000014004ffb0     libucrtd:fclose.obj
 0002:0000efe0       ??_C@_1CC@LPELGHFC@?$AA_?$AAf?$AAc?$AAl?$AAo?$AAs?$AAe?$AA_?$AAi?$AAn?$AAt?$AAe?$AAr?$AAn?$AAa@ 000000014004ffe0     libucrtd:fclose.obj
 0002:0000f010       ??_C@_1FO@KIIHJNFN@?$AAm?$AAi?$AAn?$AAk?$AAe?$AAr?$AAn?$AAe?$AAl?$AA?2?$AAc?$AAr?$AAt?$AAs?$AA?2@ 0000000140050010     libucrtd:lseek.obj
 0002:0000f070       ??_C@_1DM@LMLOLGJ@?$AA?$CI?$AA?$CC?$AAI?$AAn?$AAv?$AAa?$AAl?$AAi?$AAd?$AA?5?$AAf?$AAi?$AAl?$AAe?$AA?5@ 0000000140050070     libucrtd:lseek.obj
 0002:0000f0b0       __log10_256_lead           00000001400500b0     libucrtd:log10_256_lead_tail_table.obj
 0002:0000f8c0       __log10_256_tail           00000001400508c0     libucrtd:log10_256_lead_tail_table.obj
 0002:000100d0       __log_F_inv_qword          00000001400510d0     libucrtd:log_f_inv_qword_table.obj
 0002:000108e0       ??_C@_05HGHHAHAP@log10@    00000001400518e0     libucrtd:log_special.obj
 0002:000108f0       ??_C@_1EK@PDBKILLM@?$AA?$CI?$AAm?$AAa?$AAs?$AAk?$AA?$CG?$AA?$HO?$AA?$CI?$AA_?$AAM?$AAC?$AAW?$AA_?$AAD?$AAN@ 00000001400518f0     libucrtd:ieee.obj
 0002:00010940       ??_C@_1GC@IEFABLII@?$AAm?$AAi?$AAn?$AAk?$AAe?$AAr?$AAn?$AAe?$AAl?$AA?2?$AAc?$AAr?$AAt?$AAs?$AA?2@ 0000000140051940     libucrtd:ieee.obj
 0002:000109d0       ??_C@_1FO@IPDGALOE@?$AAm?$AAi?$AAn?$AAk?$AAe?$AAr?$AAn?$AAe?$AAl?$AA?2?$AAc?$AAr?$AAt?$AAs?$AA?2@ 00000001400519d0     libucrtd:close.obj
 0002:00010a30       ??_C@_1CA@GBJHJLEM@?$AA_?$AAc?$AAl?$AAo?$AAs?$AAe?$AA_?$AAi?$AAn?$AAt?$AAe?$AAr?$AAn?$AAa?$AAl@ 0000000140051a30     libucrtd:close.obj
 0002:00010a78       ??_C@_1BA@BALFACEM@?$AAC?$AAO?$AAN?$AAO?$AAU?$AAT?$AA$@ 0000000140051a78     libucrtd:initcon.obj
 0002:00010aa8       ??_7type_info@@6B@         0000000140051aa8     LIBCMTD:std_type_info_static.obj
 0002:00010b10       _load_config_used          0000000140051b10     LIBCMTD:loadcfg.obj
 0002:00010c10       ??_R4exception@std@@6B@    0000000140051c10     libvcruntimed:frame.obj
 0002:00010c38       ??_R3exception@std@@8      0000000140051c38     libvcruntimed:frame.obj
 0002:00010c50       ??_R2exception@std@@8      0000000140051c50     libvcruntimed:frame.obj
 0002:00010c60       ??_R1A@?0A@EA@exception@std@@8 0000000140051c60     libvcruntimed:frame.obj
 0002:00010c88       ??_R4bad_exception@std@@6B@ 0000000140051c88     libvcruntimed:frame.obj
 0002:00010cb0       ??_R3bad_exception@std@@8  0000000140051cb0     libvcruntimed:frame.obj
 0002:00010cc8       ??_R2bad_exception@std@@8  0000000140051cc8     libvcruntimed:frame.obj
 0002:00010ce0       ??_R1A@?0A@EA@bad_exception@std@@8 0000000140051ce0     libvcruntimed:frame.obj
 0002:00010d08       ??_R4type_info@@6B@        0000000140051d08     LIBCMTD:std_type_info_static.obj
 0002:00010d30       ??_R3type_info@@8          0000000140051d30     LIBCMTD:std_type_info_static.obj
 0002:00010d48       ??_R2type_info@@8          0000000140051d48     LIBCMTD:std_type_info_static.obj
 0002:00010d58       ??_R1A@?0A@EA@type_info@@8 0000000140051d58     LIBCMTD:std_type_info_static.obj
 0002:000110c8       __rtc_iaa                  00000001400520c8     LIBCMTD:initsect.obj
 0002:000110d0       __rtc_izz                  00000001400520d0     LIBCMTD:initsect.obj
 0002:000110d8       __rtc_taa                  00000001400520d8     LIBCMTD:initsect.obj
 0002:000110e0       __rtc_tzz                  00000001400520e0     LIBCMTD:initsect.obj
 0002:00012310       _TI2?AVbad_exception@std@@ 0000000140053310     libvcruntimed:frame.obj
 0002:00012330       _CTA2?AVbad_exception@std@@ 0000000140053330     libvcruntimed:frame.obj
 0002:00012348       _CT??_R0?AVbad_exception@std@@@8??0bad_exception@std@@QEAA@AEBV01@@Z24 0000000140053348     libvcruntimed:frame.obj
 0002:00012370       _CT??_R0?AVexception@std@@@8??0exception@std@@QEAA@AEBV01@@Z24 0000000140053370     libvcruntimed:frame.obj
 0002:00012394       __IMPORT_DESCRIPTOR_USER32 0000000140053394     user32:USER32.dll
 0002:000123a8       __IMPORT_DESCRIPTOR_KERNEL32 00000001400533a8     kernel32:KERNEL32.dll
 0002:000123bc       __NULL_IMPORT_DESCRIPTOR   00000001400533bc     user32:USER32.dll
 0003:00000000       __security_cookie_complement 0000000140054000     LIBCMTD:gs_cookie.obj
 0003:00000008       __security_cookie          0000000140054008     LIBCMTD:gs_cookie.obj
 0003:00000010       _fltused                   0000000140054010     LIBCMTD:fltused.obj
 0003:00000014       __scrt_native_dllmain_reason 0000000140054014     LIBCMTD:utility.obj
 0003:00000018       __scrt_default_matherr     0000000140054018     LIBCMTD:matherr.obj
 0003:00000020       __isa_available            0000000140054020     LIBCMTD:cpu_disp.obj
 0003:00000024       __isa_enabled              0000000140054024     LIBCMTD:cpu_disp.obj
 0003:00000028       __memcpy_nt_iters          0000000140054028     LIBCMTD:cpu_disp.obj
 0003:00000044       _crtDbgFlag                0000000140054044     libucrtd:debug_heap.obj
 0003:00000048       _crtBreakAlloc             0000000140054048     libucrtd:debug_heap.obj
 0003:00000050       __abort_behavior           0000000140054050     libucrtd:abort.obj
 0003:00000070       __acrt_initial_multibyte_data 0000000140054070     libucrtd:mbctype.obj
 0003:000005b0       __acrt_initial_locale_data 00000001400545b0     libucrtd:nlsdata.obj
 0003:00000708       __acrt_initial_locale_pointers 0000000140054708     libucrtd:nlsdata.obj
 0003:00000718       __acrt_wide_c_locale_string 0000000140054718     libucrtd:nlsdata.obj
 0003:00000720       __acrt_lconv_c             0000000140054720     libucrtd:localeconv.obj
 0003:000007b8       __acrt_lconv_static_decimal 00000001400547b8     libucrtd:localeconv.obj
 0003:000007bc       __acrt_lconv_static_W_decimal 00000001400547bc     libucrtd:localeconv.obj
 0003:000007c0       __globallocalestatus       00000001400547c0     libucrtd:glstatus.obj
 0003:000007c8       _pfnAllocHook              00000001400547c8     libucrtd:debug_heap_hook.obj
 0003:000007d8       _crtAssertBusy             00000001400547d8     libucrtd:dbgrptt.obj
 0003:000007e0       _CrtDbgMode                00000001400547e0     libucrtd:dbgrptt.obj
 0003:000007f0       _CrtDbgFile                00000001400547f0     libucrtd:dbgrptt.obj
 0003:00000810       _iob                       0000000140054810     libucrtd:_file.obj
 0003:00000920       _lookuptrailbytes          0000000140054920     libucrtd:read.obj
 0003:00000a40       ??_R0?AVbad_exception@std@@@8 0000000140054a40     libvcruntimed:frame.obj
 0003:00000a68       ??_R0?AVexception@std@@@8  0000000140054a68     libvcruntimed:frame.obj
 0003:00000a90       ??_R0?AVtype_info@@@8      0000000140054a90     LIBCMTD:std_type_info_static.obj
 0003:000010b0       __scrt_current_native_startup_state 00000001400550b0     LIBCMTD:utility.obj
 0003:000010b8       __scrt_native_startup_lock 00000001400550b8     LIBCMTD:utility.obj
 0003:00001100       ?__type_info_root_node@@3U__type_info_node@@A 0000000140055100     LIBCMTD:tncleanup.obj
 0003:00001110       ?_OptionsStorage@?1??__local_stdio_printf_options@@9@4_KA 0000000140055110     LIBCMTD:default_local_stdio_options.obj
 0003:00001118       ?_OptionsStorage@?1??__local_stdio_scanf_options@@9@4_KA 0000000140055118     LIBCMTD:default_local_stdio_options.obj
 0003:00001120       __scrt_debugger_hook_flag  0000000140055120     LIBCMTD:utility_desktop.obj
 0003:00001124       __favor                    0000000140055124     LIBCMTD:cpu_disp.obj
 0003:00001128       ?__WinRTOutOfMemoryExceptionCallback@@3P6APEAXXZEA 0000000140055128     libvcruntimed:ehhelpers.obj
 0003:00001230       __pPurecall                0000000140055230     libvcruntimed:purevirt_data.obj
 0003:00001238       ?pArgList@UnDecorator@@0PEAVReplicator@@EA 0000000140055238     libvcruntimed:undname.obj
 0003:00001240       ?pZNameList@UnDecorator@@0PEAVReplicator@@EA 0000000140055240     libvcruntimed:undname.obj
 0003:00001248       ?pTemplateArgList@UnDecorator@@0PEAVReplicator@@EA 0000000140055248     libvcruntimed:undname.obj
 0003:00001250       ?gName@UnDecorator@@0PEBDEB 0000000140055250     libvcruntimed:undname.obj
 0003:00001258       ?name@UnDecorator@@0PEBDEB 0000000140055258     libvcruntimed:undname.obj
 0003:00001260       ?disableFlags@UnDecorator@@0KA 0000000140055260     libvcruntimed:undname.obj
 0003:00001264       ?fExplicitTemplateParams@UnDecorator@@0_NA 0000000140055264     libvcruntimed:undname.obj
 0003:00001265       ?fGetTemplateArgumentList@UnDecorator@@0_NA 0000000140055265     libvcruntimed:undname.obj
 0003:00001268       ?m_pGetParameter@UnDecorator@@0P6APEADJ@ZEA 0000000140055268     libvcruntimed:undname.obj
 0003:00001270       ?m_CHPENameOffset@UnDecorator@@0KA 0000000140055270     libvcruntimed:undname.obj
 0003:00001274       ?m_recursionLevel@UnDecorator@@0KA 0000000140055274     libvcruntimed:undname.obj
 0003:000019e8       _environ_table             00000001400559e8     libucrtd:environment_initialization.obj
 0003:000019f0       _wenviron_table            00000001400559f0     libucrtd:environment_initialization.obj
 0003:000019f8       __dcrt_initial_wide_environment 00000001400559f8     libucrtd:environment_initialization.obj
 0003:00001a00       __dcrt_initial_narrow_environment 0000000140055a00     libucrtd:environment_initialization.obj
 0003:00001a18       ?c_exit_complete@?1???R<lambda_6e4b09c48022b2350581041d5f6b0c4c>@@QEBA@XZ@4_NA 0000000140055a18     libucrtd:exit.obj
 0003:00001a1c       __acrt_locale_changed_data 0000000140055a1c     libucrtd:wsetlocale.obj
 0003:00001a24       _commode                   0000000140055a24     libucrtd:ncommode.obj
 0003:00001a28       __acrt_atexit_table        0000000140055a28     libucrtd:onexit.obj
 0003:00001a40       __acrt_at_quick_exit_table 0000000140055a40     libucrtd:onexit.obj
 0003:00001a88       _pfnDumpClient             0000000140055a88     libucrtd:debug_heap.obj
 0003:00001aa8       _mbctype                   0000000140055aa8     libucrtd:mbctype.obj
 0003:00001ab0       _mbcasemap                 0000000140055ab0     libucrtd:mbctype.obj
 0003:00001ab8       __acrt_current_multibyte_data 0000000140055ab8     libucrtd:mbctype.obj
 0003:00001ac8       _pgmptr                    0000000140055ac8     libucrtd:argv_data.obj
 0003:00001ad0       __argc                     0000000140055ad0     libucrtd:argv_data.obj
 0003:00001ad8       __argv                     0000000140055ad8     libucrtd:argv_data.obj
 0003:00001ae0       __wargv                    0000000140055ae0     libucrtd:argv_data.obj
 0003:00001ae8       _acmdln                    0000000140055ae8     libucrtd:argv_data.obj
 0003:00001af0       _wcmdln                    0000000140055af0     libucrtd:argv_data.obj
 0003:00001d3c       _fmode                     0000000140055d3c     libucrtd:txtmode.obj
 0003:00001d40       __pioinfo                  0000000140055d40     libucrtd:ioinit.obj
 0003:00002140       _nhandle                   0000000140056140     libucrtd:ioinit.obj
 0003:00002148       __acrt_current_locale_data 0000000140056148     libucrtd:nlsdata.obj
 0003:000022e0       __acrt_lconv_static_null   00000001400562e0     libucrtd:localeconv.obj
 0003:000022e4       __acrt_lconv_static_W_null 00000001400562e4     libucrtd:localeconv.obj
 0003:000022e8       __acrt_heap                00000001400562e8     libucrtd:heap_handle.obj
 0003:00002318       __acrt_stdout_buffer       0000000140056318     libucrtd:_sftbuf.obj
 0003:00002320       __acrt_stderr_buffer       0000000140056320     libucrtd:_sftbuf.obj
 0003:00002328       _pfnReportHook             0000000140056328     libucrtd:dbgrptt.obj
 0003:00002330       _pReportHookList           0000000140056330     libucrtd:dbgrptt.obj
 0003:00002338       _pReportHookListW          0000000140056338     libucrtd:dbgrptt.obj
 0003:00002348       _nstream                   0000000140056348     libucrtd:_file.obj
 0003:00002350       __piob                     0000000140056350     libucrtd:_file.obj
 0003:00002370       __fma3_is_available        0000000140056370     libucrtd:fma3_available.obj
 0003:00002374       __use_fma3_lib             0000000140056374     libucrtd:fma3_available.obj
 0003:00002378       __scrt_ucrt_dll_is_in_use  0000000140056378     <common>
 0003:00002380       __dyn_tls_dtor_callback    0000000140056380     <common>
 0003:00002388       __dyn_tls_init_callback    0000000140056388     <common>

 entry point at        0001:00001000

 Static symbols

 0000:fff9e000       .debug$S                   0000000140000000     kernel32:KERNEL32.dll
 0000:fff9e000       .debug$S                   0000000140000000     kernel32:KERNEL32.dll
 0000:fff9e000       .debug$S                   0000000140000000     user32:USER32.dll
 0000:fff9e000       .debug$S                   0000000140000000     user32:USER32.dll
 0000:fff9e000       .debug$S                   0000000140000000     user32:USER32.dll
 0000:fff9e000       .debug$S                   0000000140000000     kernel32:KERNEL32.dll
 0000:fff9e000       .debug$S                   0000000140000000     user32:USER32.dll
 0000:fff9e000       .debug$S                   0000000140000000     kernel32:KERNEL32.dll
 0000:fff9e000       .debug$S                   0000000140000000     kernel32:KERNEL32.dll
 0000:fff9e000       .debug$S                   0000000140000000     kernel32:KERNEL32.dll
 0000:fff9e000       .debug$S                   0000000140000000     kernel32:KERNEL32.dll
 0000:fff9e000       .debug$S                   0000000140000000     kernel32:KERNEL32.dll
 0000:fff9e000       .debug$S                   0000000140000000     kernel32:KERNEL32.dll
 0000:fff9e000       .debug$S                   0000000140000000     kernel32:KERNEL32.dll
 0000:fff9e000       .debug$S                   0000000140000000     kernel32:KERNEL32.dll
 0000:fff9e000       .debug$S                   0000000140000000     kernel32:KERNEL32.dll
 0000:fff9e000       .debug$S                   0000000140000000     kernel32:KERNEL32.dll
 0000:fff9e000       .debug$S                   0000000140000000     kernel32:KERNEL32.dll
 0000:fff9e000       .debug$S                   0000000140000000     kernel32:KERNEL32.dll
 0000:fff9e000       .debug$S                   0000000140000000     kernel32:KERNEL32.dll
 0000:fff9e000       .debug$S                   0000000140000000     kernel32:KERNEL32.dll
 0000:fff9e000       .debug$S                   0000000140000000     kernel32:KERNEL32.dll
 0000:fff9e000       .debug$S                   0000000140000000     kernel32:KERNEL32.dll
 0000:fff9e000       .debug$S                   0000000140000000     kernel32:KERNEL32.dll
 0000:fff9e000       .debug$S                   0000000140000000     kernel32:KERNEL32.dll
 0000:fff9e000       .debug$S                   0000000140000000     kernel32:KERNEL32.dll
 0000:fff9e000       .debug$S                   0000000140000000     kernel32:KERNEL32.dll
 0000:fff9e000       .debug$S                   0000000140000000     kernel32:KERNEL32.dll
 0000:fff9e000       .debug$S                   0000000140000000     kernel32:KERNEL32.dll
 0000:fff9e000       .debug$S                   0000000140000000     kernel32:KERNEL32.dll
 0000:fff9e000       .debug$S                   0000000140000000     kernel32:KERNEL32.dll
 0000:fff9e000       .debug$S                   0000000140000000     kernel32:KERNEL32.dll
 0000:fff9e000       .debug$S                   0000000140000000     kernel32:KERNEL32.dll
 0000:fff9e000       .debug$S                   0000000140000000     kernel32:KERNEL32.dll
 0000:fff9e000       .debug$S                   0000000140000000     kernel32:KERNEL32.dll
 0000:fff9e000       .debug$S                   0000000140000000     kernel32:KERNEL32.dll
 0000:fff9e000       .debug$S                   0000000140000000     kernel32:KERNEL32.dll
 0000:fff9e000       .debug$S                   0000000140000000     kernel32:KERNEL32.dll
 0000:fff9e000       .debug$S                   0000000140000000     kernel32:KERNEL32.dll
 0000:fff9e000       .debug$S                   0000000140000000     kernel32:KERNEL32.dll
 0000:fff9e000       .debug$S                   0000000140000000     kernel32:KERNEL32.dll
 0000:fff9e000       .debug$S                   0000000140000000     kernel32:KERNEL32.dll
 0000:fff9e000       .debug$S                   0000000140000000     kernel32:KERNEL32.dll
 0000:fff9e000       .debug$S                   0000000140000000     kernel32:KERNEL32.dll
 0000:fff9e000       .debug$S                   0000000140000000     kernel32:KERNEL32.dll
 0000:fff9e000       .debug$S                   0000000140000000     kernel32:KERNEL32.dll
 0000:fff9e000       .debug$S                   0000000140000000     kernel32:KERNEL32.dll
 0000:fff9e000       .debug$S                   0000000140000000     kernel32:KERNEL32.dll
 0000:fff9e000       .debug$S                   0000000140000000     kernel32:KERNEL32.dll
 0000:fff9e000       .debug$S                   0000000140000000     kernel32:KERNEL32.dll
 0000:fff9e000       .debug$S                   0000000140000000     kernel32:KERNEL32.dll
 0000:fff9e000       .debug$S                   0000000140000000     kernel32:KERNEL32.dll
 0000:fff9e000       .debug$S                   0000000140000000     kernel32:KERNEL32.dll
 0000:fff9e000       .debug$S                   0000000140000000     kernel32:KERNEL32.dll
 0000:fff9e000       .debug$S                   0000000140000000     kernel32:KERNEL32.dll
 0000:fff9e000       .debug$S                   0000000140000000     kernel32:KERNEL32.dll
 0000:fff9e000       .debug$S                   0000000140000000     kernel32:KERNEL32.dll
 0000:fff9e000       .debug$S                   0000000140000000     kernel32:KERNEL32.dll
 0000:fff9e000       .debug$S                   0000000140000000     kernel32:KERNEL32.dll
 0000:fff9e000       .debug$S                   0000000140000000     kernel32:KERNEL32.dll
 0000:fff9e000       .debug$S                   0000000140000000     kernel32:KERNEL32.dll
 0000:fff9e000       .debug$S                   0000000140000000     kernel32:KERNEL32.dll
 0000:fff9e000       .debug$S                   0000000140000000     kernel32:KERNEL32.dll
 0000:fff9e000       .debug$S                   0000000140000000     kernel32:KERNEL32.dll
 0000:fff9e000       .debug$S                   0000000140000000     kernel32:KERNEL32.dll
 0000:fff9e000       .debug$S                   0000000140000000     kernel32:KERNEL32.dll
 0000:fff9e000       .debug$S                   0000000140000000     kernel32:KERNEL32.dll
 0000:fff9e000       .debug$S                   0000000140000000     kernel32:KERNEL32.dll
 0000:fff9e000       .debug$S                   0000000140000000     kernel32:KERNEL32.dll
 0000:fff9e000       .debug$S                   0000000140000000     kernel32:KERNEL32.dll
 0000:fff9e000       .debug$S                   0000000140000000     kernel32:KERNEL32.dll
 0000:fff9e000       .debug$S                   0000000140000000     kernel32:KERNEL32.dll
 0000:fff9e000       .debug$S                   0000000140000000     kernel32:KERNEL32.dll
 0000:fff9e000       .debug$S                   0000000140000000     kernel32:KERNEL32.dll
 0000:fff9e000       .debug$S                   0000000140000000     kernel32:KERNEL32.dll
 0000:fff9e000       .debug$S                   0000000140000000     kernel32:KERNEL32.dll
 0000:fff9e000       .debug$S                   0000000140000000     kernel32:KERNEL32.dll
 0000:fff9e000       .debug$S                   0000000140000000     kernel32:KERNEL32.dll
 0000:fff9e000       .debug$S                   0000000140000000     kernel32:KERNEL32.dll
 0000:fff9e000       .debug$S                   0000000140000000     user32:USER32.dll
 0000:fff9e000       .debug$S                   0000000140000000     user32:USER32.dll
 0000:fff9e000       .debug$S                   0000000140000000     user32:USER32.dll
 0000:fff9e000       .debug$S                   0000000140000000     user32:USER32.dll
 0000:fff9e000       .debug$S                   0000000140000000     kernel32:KERNEL32.dll
 0000:fff9e000       .debug$S                   0000000140000000     user32:USER32.dll
 0000:fff9e000       .debug$S                   0000000140000000     user32:USER32.dll
 0000:fff9e000       .debug$S                   0000000140000000     user32:USER32.dll
 0000:fff9e000       .debug$S                   0000000140000000     user32:USER32.dll
 0000:fff9e000       .debug$S                   0000000140000000     user32:USER32.dll
 0000:fff9e000       .debug$S                   0000000140000000     kernel32:KERNEL32.dll
 0000:fff9e000       .debug$S                   0000000140000000     kernel32:KERNEL32.dll
 0000:fff9e000       .debug$S                   0000000140000000     kernel32:KERNEL32.dll
 0000:fff9e000       .debug$S                   0000000140000000     kernel32:KERNEL32.dll
 0000:fff9e000       .debug$S                   0000000140000000     kernel32:KERNEL32.dll
 0000:fff9e000       .debug$S                   0000000140000000     kernel32:KERNEL32.dll
 0000:fff9e000       .debug$S                   0000000140000000     kernel32:KERNEL32.dll
 0000:fff9e000       .debug$S                   0000000140000000     kernel32:KERNEL32.dll
 0000:fff9e000       .debug$S                   0000000140000000     kernel32:KERNEL32.dll
 0000:fff9e000       .debug$S                   0000000140000000     kernel32:KERNEL32.dll
 0000:fff9e000       .debug$S                   0000000140000000     kernel32:KERNEL32.dll
 0000:fff9e000       .debug$S                   0000000140000000     kernel32:KERNEL32.dll
 0000:fff9e000       .debug$S                   0000000140000000     kernel32:KERNEL32.dll
 0000:fff9e000       .debug$S                   0000000140000000     kernel32:KERNEL32.dll
 0000:fff9e000       .debug$S                   0000000140000000     kernel32:KERNEL32.dll
 0000:fff9e000       .debug$S                   0000000140000000     kernel32:KERNEL32.dll
 0000:fff9e000       .debug$S                   0000000140000000     kernel32:KERNEL32.dll
 0000:fff9e000       .debug$S                   0000000140000000     kernel32:KERNEL32.dll
 0000:fff9e000       .debug$S                   0000000140000000     kernel32:KERNEL32.dll
 0000:fff9e000       .debug$S                   0000000140000000     kernel32:KERNEL32.dll
 0000:fff9e000       .debug$S                   0000000140000000     kernel32:KERNEL32.dll
 0000:fff9e000       .debug$S                   0000000140000000     kernel32:KERNEL32.dll
 0001:00000730       ?Win32MainWindowCallBack@@YA_JPEAUHWND__@@I_K_J@Z 0000000140001730 f   win32_main.obj
 0001:00000c40       $$000000                   0000000140001c40     LIBCMTD:amdsecgs.obj
 0001:00000c80       ?pre_c_initialization@@YAHXZ 0000000140001c80 f   LIBCMTD:exe_winmain.obj
 0001:00000d40       ?post_pgo_initialization@@YAHXZ 0000000140001d40 f   LIBCMTD:exe_winmain.obj
 0001:00000d50       ?pre_cpp_initialization@@YAXXZ 0000000140001d50 f   LIBCMTD:exe_winmain.obj
 0001:00000d70       ?__scrt_common_main@@YAHXZ 0000000140001d70 f   LIBCMTD:exe_winmain.obj
 0001:00000d90       ?__scrt_common_main_seh@@YAHXZ 0000000140001d90 f   LIBCMTD:exe_winmain.obj
 0001:00000f60       ?invoke_main@@YAHXZ        0000000140001f60 f   LIBCMTD:exe_winmain.obj
 0001:000011f0       capture_current_context    00000001400021f0 f   LIBCMTD:gs_report.obj
 0001:00001290       capture_previous_context   0000000140002290 f   LIBCMTD:gs_report.obj
 0001:000013f0       ?find_pe_section@@YAPEAU_IMAGE_SECTION_HEADER@@QEAE_K@Z 00000001400023f0 f   LIBCMTD:utility.obj
 0001:000014c0       ?is_potentially_valid_image_base@@YA_NQEAX@Z 00000001400024c0 f   LIBCMTD:utility.obj
 0001:00001900       __get_entropy              0000000140002900 f   LIBCMTD:gs_support.obj
 0001:00001ab0       init_memcpy_functions      0000000140002ab0 f   libvcruntimed:initialization.obj
 0001:000029c0       $$000000                   00000001400039c0     libvcruntimed:notify.obj
 0001:00002d00       ??0scoped_get_last_error_reset@?A0xef8ec17e@@QEAA@XZ 0000000140003d00 f   libvcruntimed:per_thread_data.obj
 0001:00002d20       ??1scoped_get_last_error_reset@?A0xef8ec17e@@QEAA@XZ 0000000140003d20 f   libvcruntimed:per_thread_data.obj
 0001:00002d70       ?store_and_initialize_ptd@@YA_NQEAU__vcrt_ptd@@@Z 0000000140003d70 f   libvcruntimed:per_thread_data.obj
 0001:00003180       ?invalid_function_sentinel@@YAPEAXXZ 0000000140004180 f   libvcruntimed:winapi_downlevel.obj
 0001:00003190       ?try_get_FlsAlloc@@YAP6AKP6AXPEAX@Z@ZXZ 0000000140004190 f   libvcruntimed:winapi_downlevel.obj
 0001:000031c0       ?try_get_FlsFree@@YAP6AHK@ZXZ 00000001400041c0 f   libvcruntimed:winapi_downlevel.obj
 0001:000031f0       ?try_get_FlsGetValue@@YAP6APEAXK@ZXZ 00000001400041f0 f   libvcruntimed:winapi_downlevel.obj
 0001:00003220       ?try_get_FlsSetValue@@YAP6AHKPEAX@ZXZ 0000000140004220 f   libvcruntimed:winapi_downlevel.obj
 0001:00003250       ?try_get_InitializeCriticalSectionEx@@YAP6AHPEAU_RTL_CRITICAL_SECTION@@KK@ZXZ 0000000140004250 f   libvcruntimed:winapi_downlevel.obj
 0001:00003280       ?try_get_first_available_module@@YAPEAUHINSTANCE__@@QEBW4module_id@?A0xbfd18cd1@@0@Z 0000000140004280 f   libvcruntimed:winapi_downlevel.obj
 0001:000032e0       ?try_get_function@@YAPEAXW4function_id@?A0xbfd18cd1@@QEBDQEBW4module_id@2@2@Z 00000001400042e0 f   libvcruntimed:winapi_downlevel.obj
 0001:00003480       ?try_get_module@@YAPEAUHINSTANCE__@@W4module_id@?A0xbfd18cd1@@@Z 0000000140004480 f   libvcruntimed:winapi_downlevel.obj
 0001:000035e0       ?try_get_proc_address_from_first_available_module@@YAPEAXQEBDQEBW4module_id@?A0xbfd18cd1@@1@Z 00000001400045e0 f   libvcruntimed:winapi_downlevel.obj
 0001:00003630       ?try_load_library_from_system_directory@@YAPEAUHINSTANCE__@@QEB_W@Z 0000000140004630 f   libvcruntimed:winapi_downlevel.obj
 0001:00003a90       $$000000                   0000000140004a90     libvcruntimed:memcpy.obj
 0001:00003b47       MoveSmall                  0000000140004b47     libvcruntimed:memcpy.obj
 0001:00003f60       ??$SehTransFilter@V__FrameHandler3@@@@YAHPEAU_EXCEPTION_POINTERS@@PEAUEHExceptionRecord@@PEA_KPEAU_CONTEXT@@PEAU_xDISPATCHER_CONTEXT@@PEBU_s_FuncInfo@@PEAH@Z 0000000140004f60 f   libvcruntimed:risctrnsctrl.obj
 0001:00004c50       ?adjustIp@@YA_KPEAU_xDISPATCHER_CONTEXT@@_K@Z 0000000140005c50 f   libvcruntimed:ehstate.obj
 0001:00004c60       ??$BuildCatchObjectHelperInternal@V__FrameHandler3@@@@YAHPEAUEHExceptionRecord@@PEAXPEBU_s_HandlerType@@PEBU_s_CatchableType@@@Z 0000000140005c60 f   libvcruntimed:frame.obj
 0001:000050e0       ??$BuildCatchObjectInternal@V__FrameHandler3@@@@YAXPEAUEHExceptionRecord@@PEAXPEBU_s_HandlerType@@PEBU_s_CatchableType@@@Z 00000001400060e0 f   libvcruntimed:frame.obj
 0001:00005220       ??$CatchIt@V__FrameHandler3@@@@YAXPEAUEHExceptionRecord@@PEA_KPEAU_CONTEXT@@PEAU_xDISPATCHER_CONTEXT@@PEBU_s_FuncInfo@@PEBU_s_HandlerType@@PEBU_s_CatchableType@@PEBU_s_TryBlockMapEntry@@H1EE@Z 0000000140006220 f   libvcruntimed:frame.obj
 0001:00005330       ??$FindHandler@V__FrameHandler3@@@@YAXPEAUEHExceptionRecord@@PEA_KPEAU_CONTEXT@@PEAU_xDISPATCHER_CONTEXT@@PEBU_s_FuncInfo@@EH1@Z 0000000140006330 f   libvcruntimed:frame.obj
 0001:00005ab0       ??$FindHandlerForForeignException@V__FrameHandler3@@@@YAXPEAUEHExceptionRecord@@PEA_KPEAU_CONTEXT@@PEAU_xDISPATCHER_CONTEXT@@PEBU_s_FuncInfo@@HH1@Z 0000000140006ab0 f   libvcruntimed:frame.obj
 0001:00006ad0       ?ExFilterRethrow@@YAHPEAU_EXCEPTION_POINTERS@@PEAUEHExceptionRecord@@PEAH@Z 0000000140007ad0 f   libvcruntimed:frame.obj
 0001:00006f30       ?IsInExceptionSpec@@YAEPEAUEHExceptionRecord@@PEBU_s_ESTypeList@@@Z 0000000140007f30 f   libvcruntimed:frame.obj
 0001:00007060       ?Is_bad_exception_allowed@@YAEPEBU_s_ESTypeList@@@Z 0000000140008060 f   libvcruntimed:frame.obj
 0001:00007220       ?__RethrowException@@YAXPEAUEHExceptionRecord@@@Z 0000000140008220 f   libvcruntimed:frame.obj
 0001:00007440       $$000000                   0000000140008440     libvcruntimed:memset.obj
 0001:0000753c       MsetTab                    000000014000853c     libvcruntimed:memset.obj
 0001:00007600       $$000000                   0000000140008600     libvcruntimed:handlers.obj
 0001:000079e0       ?xcptlookup@@YAPEAU__crt_signal_action_t@@KQEAU1@@Z 00000001400089e0 f   libucrtd:exception_filter.obj
 0001:00007cfc       $LN33                      0000000140008cfc     libucrtd:exception_filter.obj
 0001:00007d20       ?issue_debug_notification@@YA_NQEB_W@Z 0000000140008d20 f   libucrtd:report_runtime_error.obj
 0001:00007d80       ?should_write_error_to_console@@YA_NXZ 0000000140008d80 f   libucrtd:report_runtime_error.obj
 0001:00007dc0       ?write_string_to_console@@YAXQEB_W@Z 0000000140008dc0 f   libucrtd:report_runtime_error.obj
 0001:00008450       ??$common_configure_argv@D@@YAHW4_crt_argv_mode@@@Z 0000000140009450 f   libucrtd:argv_parsing.obj
 0001:00008820       ??$parse_command_line@D@@YAXPEADPEAPEAD0PEA_K2@Z 0000000140009820 f   libucrtd:argv_parsing.obj
 0001:00008d10       ??0<lambda_df1553121bfa390f1154bd84936f2730>@@QEAA@AEAV?$__crt_unique_heap_ptr@PEADU__crt_internal_free_policy@@@@@Z 0000000140009d10 f   libucrtd:argv_parsing.obj
 0001:00008dd0       ??R<lambda_df1553121bfa390f1154bd84936f2730>@@QEBAHXZ 0000000140009dd0 f   libucrtd:argv_parsing.obj
 0001:00008e90       ?do_locale_initialization@@YAXD@Z 0000000140009e90 f   libucrtd:argv_parsing.obj
 0001:00008eb0       ?expand_argv_wildcards@@YAHQEAPEADQEAPEAPEAD@Z 0000000140009eb0 f   libucrtd:argv_parsing.obj
 0001:00008f10       ?get_argv@@YAAEAPEAPEADD@Z 0000000140009f10 f   libucrtd:argv_parsing.obj
 0001:00008f20       ?get_command_line@@YAPEADD@Z 0000000140009f20 f   libucrtd:argv_parsing.obj
 0001:00008fc0       ?should_copy_another_character@@YA_ND@Z 0000000140009fc0 f   libucrtd:argv_parsing.obj
 0001:00009160       ??$common_initialize_environment_nolock@D@@YAHXZ 000000014000a160 f   libucrtd:environment_initialization.obj
 0001:00009280       ??$count_variables_in_environment_block@D@@YA?B_KQEAD@Z 000000014000a280 f   libucrtd:environment_initialization.obj
 0001:00009300       ??$create_environment@D@@YAQEAPEADQEAD@Z 000000014000a300 f   libucrtd:environment_initialization.obj
 0001:00009510       ??$free_environment@D@@YAXQEAPEAD@Z 000000014000a510 f   libucrtd:environment_initialization.obj
 0001:00009570       ??$free_environment@_W@@YAXQEAPEA_W@Z 000000014000a570 f   libucrtd:environment_initialization.obj
 0001:00009740       ??$uninitialize_environment_internal@D@@YAXAEAPEAPEAD@Z 000000014000a740 f   libucrtd:environment_initialization.obj
 0001:00009780       ??$uninitialize_environment_internal@_W@@YAXAEAPEAPEA_W@Z 000000014000a780 f   libucrtd:environment_initialization.obj
 0001:00009810       ?get_dual_state_environment_nolock@@YAAEAV?$dual_state_global@PEAPEAD@__crt_state_management@@D@Z 000000014000a810 f   libucrtd:environment_initialization.obj
 0001:00009820       ?get_environment_nolock@@YAAEAPEAPEADD@Z 000000014000a820 f   libucrtd:environment_initialization.obj
 0001:00009840       ?get_initial_environment@@YAAEAPEAPEADD@Z 000000014000a840 f   libucrtd:environment_initialization.obj
 0001:00009850       ?get_initial_environment@@YAAEAPEAPEA_W_W@Z 000000014000a850 f   libucrtd:environment_initialization.obj
 0001:000098e0       ?pre_initialize@@YAXD@Z    000000014000a8e0 f   libucrtd:environment_initialization.obj
 0001:00009980       ??$common_wincmdln@E@@YAPEAEXZ 000000014000a980 f   libucrtd:argv_winmain.obj
 0001:00009a80       ?do_locale_initialization@@YAXE@Z 000000014000aa80 f   libucrtd:argv_winmain.obj
 0001:00009aa0       ?get_command_line@@YAPEAEE@Z 000000014000aaa0 f   libucrtd:argv_winmain.obj
 0001:00009ab0       ?should_copy_another_character@@YA_NE@Z 000000014000aab0 f   libucrtd:argv_winmain.obj
 0001:00009c10       ??$?RV<lambda_d80eeec6fff315bfe5c115232f3240e3>@@AEAV<lambda_6e4b09c48022b2350581041d5f6b0c4c>@@V<lambda_2358e3775559c9db80273638284d5e45>@@@?$__crt_seh_guarded_call@X@@QEAAX$$QEAV<lambda_d80eeec6fff315bfe5c115232f3240e3>@@AEAV<lambda_6e4b09c48022b2350581041d5f6b0c4c>@@$$QEAV<lambda_2358e3775559c9db80273638284d5e45>@@@Z 000000014000ac10 f   libucrtd:exit.obj
 0001:00009c50       ??$__acrt_lock_and_call@V<lambda_6e4b09c48022b2350581041d5f6b0c4c>@@@@YAXW4__acrt_lock_id@@$$QEAV<lambda_6e4b09c48022b2350581041d5f6b0c4c>@@@Z 000000014000ac50 f   libucrtd:exit.obj
 0001:00009d80       ??0<lambda_2358e3775559c9db80273638284d5e45>@@QEAA@AEBW4__acrt_lock_id@@@Z 000000014000ad80 f   libucrtd:exit.obj
 0001:00009da0       ??0<lambda_6e4b09c48022b2350581041d5f6b0c4c>@@QEAA@AEBW4_crt_exit_cleanup_mode@@AEBW4_crt_exit_return_mode@@AEA_N@Z 000000014000ada0 f   libucrtd:exit.obj
 0001:00009df0       ??0<lambda_d80eeec6fff315bfe5c115232f3240e3>@@QEAA@AEBW4__acrt_lock_id@@@Z 000000014000adf0 f   libucrtd:exit.obj
 0001:00009e50       ??R<lambda_2358e3775559c9db80273638284d5e45>@@QEBAXXZ 000000014000ae50 f   libucrtd:exit.obj
 0001:00009e70       ??R<lambda_6e4b09c48022b2350581041d5f6b0c4c>@@QEBA@XZ 000000014000ae70 f   libucrtd:exit.obj
 0001:00009f90       ??R<lambda_d80eeec6fff315bfe5c115232f3240e3>@@QEBAXXZ 000000014000af90 f   libucrtd:exit.obj
 0001:00009fe0       ?atexit_exception_filter@@YAHK@Z 000000014000afe0 f   libucrtd:exit.obj
 0001:0000a080       ?common_exit@@YAXHW4_crt_exit_cleanup_mode@@W4_crt_exit_return_mode@@@Z 000000014000b080 f   libucrtd:exit.obj
 0001:0000a120       ?exit_or_terminate_process@@YAXI@Z 000000014000b120 f   libucrtd:exit.obj
 0001:0000a190       ?is_managed_app@@YA_NXZ    000000014000b190 f   libucrtd:exit.obj
 0001:0000a240       ?should_call_terminate_process@@YA_NXZ 000000014000b240 f   libucrtd:exit.obj
 0001:0000a2a0       ?try_cor_exit_process@@YAXI@Z 000000014000b2a0 f   libucrtd:exit.obj
 0001:0000a580       ??$?RV<lambda_410d79af7f07d98d83a3f525b3859a53>@@AEAV<lambda_3e16ef9562a7dcce91392c22ab16ea36>@@V<lambda_38119f0e861e05405d8a144b9b982f0a>@@@?$__crt_seh_guarded_call@X@@QEAAX$$QEAV<lambda_410d79af7f07d98d83a3f525b3859a53>@@AEAV<lambda_3e16ef9562a7dcce91392c22ab16ea36>@@$$QEAV<lambda_38119f0e861e05405d8a144b9b982f0a>@@@Z 000000014000b580 f   libucrtd:wsetlocale.obj
 0001:0000a5c0       ??$__acrt_lock_and_call@V<lambda_3e16ef9562a7dcce91392c22ab16ea36>@@@@YAXW4__acrt_lock_id@@$$QEAV<lambda_3e16ef9562a7dcce91392c22ab16ea36>@@@Z 000000014000b5c0 f   libucrtd:wsetlocale.obj
 0001:0000a620       ??$uninitialize@V<lambda_363eea9039da1e8169e2d060c7fe5cbc>@@@?$dual_state_global@PEAU__crt_locale_data@@@__crt_state_management@@QEAAX$$QEAV<lambda_363eea9039da1e8169e2d060c7fe5cbc>@@@Z 000000014000b620 f   libucrtd:wsetlocale.obj
 0001:0000a680       ??0<lambda_38119f0e861e05405d8a144b9b982f0a>@@QEAA@AEBW4__acrt_lock_id@@@Z 000000014000b680 f   libucrtd:wsetlocale.obj
 0001:0000a6a0       ??0<lambda_410d79af7f07d98d83a3f525b3859a53>@@QEAA@AEBW4__acrt_lock_id@@@Z 000000014000b6a0 f   libucrtd:wsetlocale.obj
 0001:0000a720       ??R<lambda_363eea9039da1e8169e2d060c7fe5cbc>@@QEBAXAEAPEAU__crt_locale_data@@@Z 000000014000b720 f   libucrtd:wsetlocale.obj
 0001:0000a760       ??R<lambda_38119f0e861e05405d8a144b9b982f0a>@@QEBAXXZ 000000014000b760 f   libucrtd:wsetlocale.obj
 0001:0000a780       ??R<lambda_3e16ef9562a7dcce91392c22ab16ea36>@@QEBA@XZ 000000014000b780 f   libucrtd:wsetlocale.obj
 0001:0000a7c0       ??R<lambda_410d79af7f07d98d83a3f525b3859a53>@@QEBAXXZ 000000014000b7c0 f   libucrtd:wsetlocale.obj
 0001:0000ac50       ??$?RV<lambda_6a47f4c8fd0152770a780fc1d70204eb>@@AEAV<lambda_d121dba8a4adeaf3a9819e48611155df>@@V<lambda_6aaa2265f5b6a89667e7d7630012e97a>@@@?$__crt_seh_guarded_call@H@@QEAAH$$QEAV<lambda_6a47f4c8fd0152770a780fc1d70204eb>@@AEAV<lambda_d121dba8a4adeaf3a9819e48611155df>@@$$QEAV<lambda_6aaa2265f5b6a89667e7d7630012e97a>@@@Z 000000014000bc50 f   libucrtd:onexit.obj
 0001:0000aca0       ??$?RV<lambda_80060f20ac3990516b753a27f211934c>@@AEAV<lambda_208ce30acdd7200aa596f2796f4d5154>@@V<lambda_fd91b99c0687e8936f1d70d7d9b78e69>@@@?$__crt_seh_guarded_call@H@@QEAAH$$QEAV<lambda_80060f20ac3990516b753a27f211934c>@@AEAV<lambda_208ce30acdd7200aa596f2796f4d5154>@@$$QEAV<lambda_fd91b99c0687e8936f1d70d7d9b78e69>@@@Z 000000014000bca0 f   libucrtd:onexit.obj
 0001:0000acf0       ??$__acrt_lock_and_call@V<lambda_208ce30acdd7200aa596f2796f4d5154>@@@@YAHW4__acrt_lock_id@@$$QEAV<lambda_208ce30acdd7200aa596f2796f4d5154>@@@Z 000000014000bcf0 f   libucrtd:onexit.obj
 0001:0000ad50       ??$__acrt_lock_and_call@V<lambda_d121dba8a4adeaf3a9819e48611155df>@@@@YAHW4__acrt_lock_id@@$$QEAV<lambda_d121dba8a4adeaf3a9819e48611155df>@@@Z 000000014000bd50 f   libucrtd:onexit.obj
 0001:0000adf0       ??0<lambda_208ce30acdd7200aa596f2796f4d5154>@@QEAA@AEBQEAU_onexit_table_t@@AEBQ6AHXZ@Z 000000014000bdf0 f   libucrtd:onexit.obj
 0001:0000ae20       ??0<lambda_6a47f4c8fd0152770a780fc1d70204eb>@@QEAA@AEBW4__acrt_lock_id@@@Z 000000014000be20 f   libucrtd:onexit.obj
 0001:0000ae40       ??0<lambda_6aaa2265f5b6a89667e7d7630012e97a>@@QEAA@AEBW4__acrt_lock_id@@@Z 000000014000be40 f   libucrtd:onexit.obj
 0001:0000ae60       ??0<lambda_80060f20ac3990516b753a27f211934c>@@QEAA@AEBW4__acrt_lock_id@@@Z 000000014000be60 f   libucrtd:onexit.obj
 0001:0000ae80       ??0<lambda_d121dba8a4adeaf3a9819e48611155df>@@QEAA@AEBQEAU_onexit_table_t@@@Z 000000014000be80 f   libucrtd:onexit.obj
 0001:0000aea0       ??0<lambda_fd91b99c0687e8936f1d70d7d9b78e69>@@QEAA@AEBW4__acrt_lock_id@@@Z 000000014000bea0 f   libucrtd:onexit.obj
 0001:0000af10       ??R<lambda_208ce30acdd7200aa596f2796f4d5154>@@QEBAHXZ 000000014000bf10 f   libucrtd:onexit.obj
 0001:0000b250       ??R<lambda_6a47f4c8fd0152770a780fc1d70204eb>@@QEBAXXZ 000000014000c250 f   libucrtd:onexit.obj
 0001:0000b270       ??R<lambda_6aaa2265f5b6a89667e7d7630012e97a>@@QEBAXXZ 000000014000c270 f   libucrtd:onexit.obj
 0001:0000b290       ??R<lambda_80060f20ac3990516b753a27f211934c>@@QEBAXXZ 000000014000c290 f   libucrtd:onexit.obj
 0001:0000b2b0       ??R<lambda_d121dba8a4adeaf3a9819e48611155df>@@QEBAHXZ 000000014000c2b0 f   libucrtd:onexit.obj
 0001:0000b4e0       ??R<lambda_fd91b99c0687e8936f1d70d7d9b78e69>@@QEBAXXZ 000000014000c4e0 f   libucrtd:onexit.obj
 0001:0000b690       initialize_global_variables 000000014000c690 f   libucrtd:initialization.obj
 0001:0000b6b0       initialize_c               000000014000c6b0 f   libucrtd:initialization.obj
 0001:0000b6e0       uninitialize_c             000000014000c6e0 f   libucrtd:initialization.obj
 0001:0000b6f0       initialize_environment     000000014000c6f0 f   libucrtd:initialization.obj
 0001:0000b700       uninitialize_environment   000000014000c700 f   libucrtd:initialization.obj
 0001:0000b730       initialize_global_state_isolation 000000014000c730 f   libucrtd:initialization.obj
 0001:0000b740       uninitialize_global_state_isolation 000000014000c740 f   libucrtd:initialization.obj
 0001:0000b750       initialize_pointers        000000014000c750 f   libucrtd:initialization.obj
 0001:0000b7b0       uninitialize_vcruntime     000000014000c7b0 f   libucrtd:initialization.obj
 0001:0000b7d0       uninitialize_allocated_memory 000000014000c7d0 f   libucrtd:initialization.obj
 0001:0000b810       uninitialize_allocated_io_buffers 000000014000c810 f   libucrtd:initialization.obj
 0001:0000b890       report_memory_leaks        000000014000c890 f   libucrtd:initialization.obj
 0001:0000b8c0       ??$uninitialize@V<lambda_af27fe6ede5d83bbdbd622796c194e9c>@@@?$dual_state_global@PEAU__crt_multibyte_data@@@__crt_state_management@@QEAAX$$QEAV<lambda_af27fe6ede5d83bbdbd622796c194e9c>@@@Z 000000014000c8c0 f   libucrtd:initialization.obj
 0001:0000b920       ??R<lambda_af27fe6ede5d83bbdbd622796c194e9c>@@QEBAXAEAPEAU__crt_multibyte_data@@@Z 000000014000c920 f   libucrtd:initialization.obj
 0001:0000bbe0       ?block_from_header@@YAPEAEQEAU_CrtMemBlockHeader@@@Z 000000014000cbe0 f   libucrtd:debug_heap.obj
 0001:0000bbf0       ?check_block@@YA_NQEAU_CrtMemBlockHeader@@@Z 000000014000cbf0 f   libucrtd:debug_heap.obj
 0001:0000c160       ?check_bytes@@YA_NQEBEE_K@Z 000000014000d160 f   libucrtd:debug_heap.obj
 0001:0000c1d0       ?dump_all_object_since_nolock@@YAXQEBU_CrtMemState@@@Z 000000014000d1d0 f   libucrtd:debug_heap.obj
 0001:0000c650       ?free_dbg_nolock@@YAXQEAXH@Z 000000014000d650 f   libucrtd:debug_heap.obj
 0001:0000cdd0       ?header_from_block@@YAPEAU_CrtMemBlockHeader@@QEBX@Z 000000014000ddd0 f   libucrtd:debug_heap.obj
 0001:0000cde0       ?heap_alloc_dbg@@YAPEAX_KHQEBDH@Z 000000014000dde0 f   libucrtd:debug_heap.obj
 0001:0000ce80       ?heap_alloc_dbg_internal@@YAPEAX_KHQEBDH@Z 000000014000de80 f   libucrtd:debug_heap.obj
 0001:0000d2d0       ?is_bad_read_pointer@@YA_NQEBX_K@Z 000000014000e2d0 f   libucrtd:debug_heap.obj
 0001:0000d3e0       ?is_block_an_aligned_allocation@@YA_NQEBX@Z 000000014000e3e0 f   libucrtd:debug_heap.obj
 0001:0000d420       ?is_block_type_valid@@YA_NH@Z 000000014000e420 f   libucrtd:debug_heap.obj
 0001:0000d470       ?print_block_data@@YAXQEAU__crt_locale_pointers@@QEAU_CrtMemBlockHeader@@@Z 000000014000e470 f   libucrtd:debug_heap.obj
 0001:0000d6a0       ?realloc_dbg_nolock@@YAPEAXQEAXQEA_KHQEBDH_N@Z 000000014000e6a0 f   libucrtd:debug_heap.obj
 0001:0000dee0       ?validate_heap_if_required_nolock@@YAXXZ 000000014000eee0 f   libucrtd:debug_heap.obj
 0001:0000eca0       ??$common_tcscpy_s@D@@YAHQEAD_KQEBD@Z 000000014000fca0 f   libucrtd:strcpy_s.obj
 0001:0000f1b0       $$000000                   00000001400101b0     libucrtd:strcmp.obj
 0001:0000f230       $$000000                   0000000140010230     libucrtd:strlen.obj
 0001:0000f370       ??$common_message_window@D@@YAHHQEAXQEBD111@Z 0000000140010370 f   libucrtd:dbgrpt.obj
 0001:0000fa40       ??$common_message_window@_W@@YAHHQEAXQEB_W111@Z 0000000140010a40 f   libucrtd:dbgrpt.obj
 0001:000102a0       ?get_output_message_format@@YAPEB_WD@Z 00000001400112a0 f   libucrtd:dbgrpt.obj
 0001:000102b0       ?get_output_message_format@@YAPEB_W_W@Z 00000001400112b0 f   libucrtd:dbgrpt.obj
 0001:000102c0       ?get_program_name_unknown_text@@YAPEBDD@Z 00000001400112c0 f   libucrtd:dbgrpt.obj
 0001:000102d0       ?get_program_name_unknown_text@@YAPEB_W_W@Z 00000001400112d0 f   libucrtd:dbgrpt.obj
 0001:00010820       ??$common_vsnprintf_s@D@@YAH_KQEAD00QEBDAEAV__crt_cached_ptd_host@@1@Z 0000000140011820 f   libucrtd:output.obj
 0001:00010f00       ??$common_vsnprintf_s@_W@@YAH_KQEA_W00QEB_WAEAV__crt_cached_ptd_host@@QEAD@Z 0000000140011f00 f   libucrtd:output.obj
 0001:000115f0       ??$common_vsprintf@Vformat_validation_base@__crt_stdio_output@@D@@YAH_KQEAD0QEBDAEAV__crt_cached_ptd_host@@1@Z 00000001400125f0 f   libucrtd:output.obj
 0001:00011ab0       ??$common_vsprintf@Vformat_validation_base@__crt_stdio_output@@_W@@YAH_KQEA_W0QEB_WAEAV__crt_cached_ptd_host@@QEAD@Z 0000000140012ab0 f   libucrtd:output.obj
 0001:00011f60       ??$common_vsprintf_s@D@@YAH_KQEAD0QEBDAEAV__crt_cached_ptd_host@@1@Z 0000000140012f60 f   libucrtd:output.obj
 0001:000181c4       $LN39                      00000001400191c4     libucrtd:output.obj
 0001:00018588       $LN39                      0000000140019588     libucrtd:output.obj
 0001:000192dc       $LN54                      000000014001a2dc     libucrtd:output.obj
 0001:00019304       $LN53                      000000014001a304     libucrtd:output.obj
 0001:0001979c       $LN54                      000000014001a79c     libucrtd:output.obj
 0001:000197c4       $LN53                      000000014001a7c4     libucrtd:output.obj
 0001:00019c58       $LN44                      000000014001ac58     libucrtd:output.obj
 0001:00019c88       $LN43                      000000014001ac88     libucrtd:output.obj
 0001:0001a1dc       $LN44                      000000014001b1dc     libucrtd:output.obj
 0001:0001a20c       $LN43                      000000014001b20c     libucrtd:output.obj
 0001:0001a4b0       $LN19                      000000014001b4b0     libucrtd:output.obj
 0001:0001d530       $$000000                   000000014001e530     libucrtd:strncmp.obj
 0001:0001d650       ??$?RV<lambda_0ae27a3a962d80f24befdcbee591983d>@@AEAV<lambda_8d0ee55de4b1038c4002e0adecdf1839>@@V<lambda_dc504788e8f1664fe9b84e20bfb512f2>@@@?$__crt_seh_guarded_call@X@@QEAAX$$QEAV<lambda_0ae27a3a962d80f24befdcbee591983d>@@AEAV<lambda_8d0ee55de4b1038c4002e0adecdf1839>@@$$QEAV<lambda_dc504788e8f1664fe9b84e20bfb512f2>@@@Z 000000014001e650 f   libucrtd:per_thread_data.obj
 0001:0001d690       ??$?RV<lambda_2d41944a1d46af3157314b8a01080d33>@@AEAV<lambda_8f455de75cd7d7f24b4096f044d8b9e6>@@V<lambda_aa500f224e6afead328df44964fe2772>@@@?$__crt_seh_guarded_call@X@@QEAAX$$QEAV<lambda_2d41944a1d46af3157314b8a01080d33>@@AEAV<lambda_8f455de75cd7d7f24b4096f044d8b9e6>@@$$QEAV<lambda_aa500f224e6afead328df44964fe2772>@@@Z 000000014001e690 f   libucrtd:per_thread_data.obj
 0001:0001d6d0       ??$?RV<lambda_74a0ef281e44d15e1136f792f539efb3>@@AEAV<lambda_e157831efee4ea0afb0a2ace5dd5fd0d>@@V<lambda_04ddeca75b7c13fd67716e8dfcef87ee>@@@?$__crt_seh_guarded_call@X@@QEAAX$$QEAV<lambda_74a0ef281e44d15e1136f792f539efb3>@@AEAV<lambda_e157831efee4ea0afb0a2ace5dd5fd0d>@@$$QEAV<lambda_04ddeca75b7c13fd67716e8dfcef87ee>@@@Z 000000014001e6d0 f   libucrtd:per_thread_data.obj
 0001:0001d710       ??$?RV<lambda_aa87e3671a710a21b5dc78c0bdf72e11>@@AEAV<lambda_92619d2358a28f41a33ba319515a20b9>@@V<lambda_6992ecaafeb10aed2b74cb1fae11a551>@@@?$__crt_seh_guarded_call@X@@QEAAX$$QEAV<lambda_aa87e3671a710a21b5dc78c0bdf72e11>@@AEAV<lambda_92619d2358a28f41a33ba319515a20b9>@@$$QEAV<lambda_6992ecaafeb10aed2b74cb1fae11a551>@@@Z 000000014001e710 f   libucrtd:per_thread_data.obj
 0001:0001d750       ??$__acrt_lock_and_call@V<lambda_8d0ee55de4b1038c4002e0adecdf1839>@@@@YAXW4__acrt_lock_id@@$$QEAV<lambda_8d0ee55de4b1038c4002e0adecdf1839>@@@Z 000000014001e750 f   libucrtd:per_thread_data.obj
 0001:0001d7b0       ??$__acrt_lock_and_call@V<lambda_8f455de75cd7d7f24b4096f044d8b9e6>@@@@YAXW4__acrt_lock_id@@$$QEAV<lambda_8f455de75cd7d7f24b4096f044d8b9e6>@@@Z 000000014001e7b0 f   libucrtd:per_thread_data.obj
 0001:0001d810       ??$__acrt_lock_and_call@V<lambda_92619d2358a28f41a33ba319515a20b9>@@@@YAXW4__acrt_lock_id@@$$QEAV<lambda_92619d2358a28f41a33ba319515a20b9>@@@Z 000000014001e810 f   libucrtd:per_thread_data.obj
 0001:0001d870       ??$__acrt_lock_and_call@V<lambda_e157831efee4ea0afb0a2ace5dd5fd0d>@@@@YAXW4__acrt_lock_id@@$$QEAV<lambda_e157831efee4ea0afb0a2ace5dd5fd0d>@@@Z 000000014001e870 f   libucrtd:per_thread_data.obj
 0001:0001d8d0       ??0<lambda_04ddeca75b7c13fd67716e8dfcef87ee>@@QEAA@AEBW4__acrt_lock_id@@@Z 000000014001e8d0 f   libucrtd:per_thread_data.obj
 0001:0001d8f0       ??0<lambda_0ae27a3a962d80f24befdcbee591983d>@@QEAA@AEBW4__acrt_lock_id@@@Z 000000014001e8f0 f   libucrtd:per_thread_data.obj
 0001:0001d910       ??0<lambda_2d41944a1d46af3157314b8a01080d33>@@QEAA@AEBW4__acrt_lock_id@@@Z 000000014001e910 f   libucrtd:per_thread_data.obj
 0001:0001d930       ??0<lambda_6992ecaafeb10aed2b74cb1fae11a551>@@QEAA@AEBW4__acrt_lock_id@@@Z 000000014001e930 f   libucrtd:per_thread_data.obj
 0001:0001d950       ??0<lambda_74a0ef281e44d15e1136f792f539efb3>@@QEAA@AEBW4__acrt_lock_id@@@Z 000000014001e950 f   libucrtd:per_thread_data.obj
 0001:0001d970       ??0<lambda_8d0ee55de4b1038c4002e0adecdf1839>@@QEAA@AEBQEAU__acrt_ptd@@@Z 000000014001e970 f   libucrtd:per_thread_data.obj
 0001:0001d990       ??0<lambda_8f455de75cd7d7f24b4096f044d8b9e6>@@QEAA@AEBQEAU__acrt_ptd@@@Z 000000014001e990 f   libucrtd:per_thread_data.obj
 0001:0001d9b0       ??0<lambda_92619d2358a28f41a33ba319515a20b9>@@QEAA@AEBQEAU__acrt_ptd@@AEBQEAPEAU__crt_locale_data@@@Z 000000014001e9b0 f   libucrtd:per_thread_data.obj
 0001:0001d9e0       ??0<lambda_aa500f224e6afead328df44964fe2772>@@QEAA@AEBW4__acrt_lock_id@@@Z 000000014001e9e0 f   libucrtd:per_thread_data.obj
 0001:0001da00       ??0<lambda_aa87e3671a710a21b5dc78c0bdf72e11>@@QEAA@AEBW4__acrt_lock_id@@@Z 000000014001ea00 f   libucrtd:per_thread_data.obj
 0001:0001da20       ??0<lambda_dc504788e8f1664fe9b84e20bfb512f2>@@QEAA@AEBW4__acrt_lock_id@@@Z 000000014001ea20 f   libucrtd:per_thread_data.obj
 0001:0001da40       ??0<lambda_e157831efee4ea0afb0a2ace5dd5fd0d>@@QEAA@AEBQEAU__acrt_ptd@@@Z 000000014001ea40 f   libucrtd:per_thread_data.obj
 0001:0001dac0       ??R<lambda_04ddeca75b7c13fd67716e8dfcef87ee>@@QEBAXXZ 000000014001eac0 f   libucrtd:per_thread_data.obj
 0001:0001dae0       ??R<lambda_0ae27a3a962d80f24befdcbee591983d>@@QEBAXXZ 000000014001eae0 f   libucrtd:per_thread_data.obj
 0001:0001db00       ??R<lambda_2d41944a1d46af3157314b8a01080d33>@@QEBAXXZ 000000014001eb00 f   libucrtd:per_thread_data.obj
 0001:0001db20       ??R<lambda_6992ecaafeb10aed2b74cb1fae11a551>@@QEBAXXZ 000000014001eb20 f   libucrtd:per_thread_data.obj
 0001:0001db40       ??R<lambda_74a0ef281e44d15e1136f792f539efb3>@@QEBAXXZ 000000014001eb40 f   libucrtd:per_thread_data.obj
 0001:0001db60       ??R<lambda_8d0ee55de4b1038c4002e0adecdf1839>@@QEBAXXZ 000000014001eb60 f   libucrtd:per_thread_data.obj
 0001:0001db80       ??R<lambda_8f455de75cd7d7f24b4096f044d8b9e6>@@QEBAXXZ 000000014001eb80 f   libucrtd:per_thread_data.obj
 0001:0001dba0       ??R<lambda_92619d2358a28f41a33ba319515a20b9>@@QEBAXXZ 000000014001eba0 f   libucrtd:per_thread_data.obj
 0001:0001dbd0       ??R<lambda_aa500f224e6afead328df44964fe2772>@@QEBAXXZ 000000014001ebd0 f   libucrtd:per_thread_data.obj
 0001:0001dbf0       ??R<lambda_aa87e3671a710a21b5dc78c0bdf72e11>@@QEBAXXZ 000000014001ebf0 f   libucrtd:per_thread_data.obj
 0001:0001dc10       ??R<lambda_dc504788e8f1664fe9b84e20bfb512f2>@@QEBAXXZ 000000014001ec10 f   libucrtd:per_thread_data.obj
 0001:0001dc30       ??R<lambda_e157831efee4ea0afb0a2ace5dd5fd0d>@@QEBAXXZ 000000014001ec30 f   libucrtd:per_thread_data.obj
 0001:0001dca0       ?construct_ptd@@YAXQEAU__acrt_ptd@@QEAPEAU__crt_locale_data@@@Z 000000014001eca0 f   libucrtd:per_thread_data.obj
 0001:0001dd80       ?construct_ptd_array@@YAXQEAU__acrt_ptd@@@Z 000000014001ed80 f   libucrtd:per_thread_data.obj
 0001:0001de00       ?destroy_fls@@YAXPEAX@Z    000000014001ee00 f   libucrtd:per_thread_data.obj
 0001:0001de40       ?destroy_ptd@@YAXQEAU__acrt_ptd@@@Z 000000014001ee40 f   libucrtd:per_thread_data.obj
 0001:0001df70       ?destroy_ptd_array@@YAXQEAU__acrt_ptd@@@Z 000000014001ef70 f   libucrtd:per_thread_data.obj
 0001:0001e000       ?internal_get_ptd_head@@YAPEAU__acrt_ptd@@XZ 000000014001f000 f   libucrtd:per_thread_data.obj
 0001:0001e150       ?internal_getptd_noexit@@YAPEAU__acrt_ptd@@AEBV__crt_scoped_get_last_error_reset@@_K@Z 000000014001f150 f   libucrtd:per_thread_data.obj
 0001:0001e190       ?internal_getptd_noexit@@YAPEAU__acrt_ptd@@XZ 000000014001f190 f   libucrtd:per_thread_data.obj
 0001:0001e230       ?replace_current_thread_locale_nolock@@YAXQEAU__acrt_ptd@@QEAU__crt_locale_data@@@Z 000000014001f230 f   libucrtd:per_thread_data.obj
 0001:0001e2f0       ?try_get_ptd_head@@YAPEAU__acrt_ptd@@XZ 000000014001f2f0 f   libucrtd:per_thread_data.obj
 0001:0001e4e0       ?capture_current_context@@YAXQEAU_CONTEXT@@@Z 000000014001f4e0 f   libucrtd:invalid_parameter.obj
 0001:0001eb40       ??$common_tcscat_s@_W@@YAHQEA_W_KQEB_W@Z 000000014001fb40 f   libucrtd:wcscat_s.obj
 0001:0001f200       ??$common_tcscpy_s@_W@@YAHQEA_W_KQEB_W@Z 0000000140020200 f   libucrtd:wcscpy_s.obj
 0001:0001f730       ??$common_tcsncpy_s@_W@@YAHQEA_W_KQEB_W1@Z 0000000140020730 f   libucrtd:wcsncpy_s.obj
 0001:0001fe20       ??$common_strnlen@$00G@@YA_KQEBG_K@Z 0000000140020e20 f   libucrtd:strnlen.obj
 0001:0001fe80       ??$common_strnlen@$0A@E@@YA_KQEBE_K@Z 0000000140020e80 f   libucrtd:strnlen.obj
 0001:0001fee0       ??$common_strnlen@$0A@G@@YA_KQEBG_K@Z 0000000140020ee0 f   libucrtd:strnlen.obj
 0001:0001ff40       ??$common_strnlen_c@$00G@@YA_KQEBG_K@Z 0000000140020f40 f   libucrtd:strnlen.obj
 0001:0001ffc0       ??$common_strnlen_c@$0A@E@@YA_KQEBE_K@Z 0000000140020fc0 f   libucrtd:strnlen.obj
 0001:00020040       ??$common_strnlen_c@$0A@G@@YA_KQEBG_K@Z 0000000140021040 f   libucrtd:strnlen.obj
 0001:000200c0       ??$common_strnlen_simd@$00$00G@@YA_KQEBG_K@Z 00000001400210c0 f   libucrtd:strnlen.obj
 0001:00020360       ??$common_strnlen_simd@$00$0A@G@@YA_KQEBG_K@Z 0000000140021360 f   libucrtd:strnlen.obj
 0001:00020650       ??$common_strnlen_simd@$0A@$00E@@YA_KQEBE_K@Z 0000000140021650 f   libucrtd:strnlen.obj
 0001:000208d0       ??$common_strnlen_simd@$0A@$00G@@YA_KQEBG_K@Z 00000001400218d0 f   libucrtd:strnlen.obj
 0001:00020b70       ??$common_strnlen_simd@$0A@$0A@E@@YA_KQEBE_K@Z 0000000140021b70 f   libucrtd:strnlen.obj
 0001:00020e40       ??$common_strnlen_simd@$0A@$0A@G@@YA_KQEBG_K@Z 0000000140021e40 f   libucrtd:strnlen.obj
 0001:00021130       ??$last_reached@$00@@YA_NQEBX0@Z 0000000140022130 f   libucrtd:strnlen.obj
 0001:00021140       ??$last_reached@$0A@@@YA_NQEBX0@Z 0000000140022140 f   libucrtd:strnlen.obj
 0001:00021390       ??$common_show_message_box@_W@@YAHQEB_W0I@Z 0000000140022390 f   libucrtd:crtmbox.obj
 0001:00021780       ?<lambda_invoker_cdecl>@<lambda_a1ce4c8ae42411fd470c77163914f50e>@@CAHPEBX0@Z 0000000140022780 f   libucrtd:argv_wildcards.obj
 0001:00021bb0       ??$common_expand_argv_wildcards@D@@YAHQEAPEADQEAPEAPEAD@Z 0000000140022bb0 f   libucrtd:argv_wildcards.obj
 0001:00021fe0       ??$copy_and_add_argument_to_buffer@D@@YAHQEBD0_KAEAV?$argument_list@D@?A0x5f5c8891@@@Z 0000000140022fe0 f   libucrtd:argv_wildcards.obj
 0001:00022190       ??$expand_argument_wildcards@D@@YAHQEAD0AEAV?$argument_list@D@?A0x5f5c8891@@@Z 0000000140023190 f   libucrtd:argv_wildcards.obj
 0001:000227a0       ??0?$argument_list@D@?A0x5f5c8891@@QEAA@XZ 00000001400237a0 f   libucrtd:argv_wildcards.obj
 0001:00022860       ??1?$argument_list@D@?A0x5f5c8891@@QEAA@XZ 0000000140023860 f   libucrtd:argv_wildcards.obj
 0001:000228d0       ??B<lambda_a1ce4c8ae42411fd470c77163914f50e>@@QEBAP6AHPEBX0@ZXZ 00000001400238d0 f   libucrtd:argv_wildcards.obj
 0001:00022930       ??R<lambda_a1ce4c8ae42411fd470c77163914f50e>@@QEBAHPEBX0@Z 0000000140023930 f   libucrtd:argv_wildcards.obj
 0001:00022970       ??R<lambda_cfae5a0e6efa98e0d1aa03c4cec8f74e>@@QEBA_ND@Z 0000000140023970 f   libucrtd:argv_wildcards.obj
 0001:00022cd0       ?append@?$argument_list@D@?A0x5f5c8891@@QEAAHQEAD@Z 0000000140023cd0 f   libucrtd:argv_wildcards.obj
 0001:00022d40       ?begin@?$argument_list@D@?A0x5f5c8891@@QEBAPEAPEADXZ 0000000140023d40 f   libucrtd:argv_wildcards.obj
 0001:00022e60       ?end@?$argument_list@D@?A0x5f5c8891@@QEBAPEAPEADXZ 0000000140023e60 f   libucrtd:argv_wildcards.obj
 0001:00022e70       ?expand_if_necessary@?$argument_list@D@?A0x5f5c8891@@AEAAHXZ 0000000140023e70 f   libucrtd:argv_wildcards.obj
 0001:00023060       ?get_file_name@@YAPEADQEAV?$__crt_win32_buffer@DU__crt_win32_buffer_internal_dynamic_resizing@@@@QEA_W@Z 0000000140024060 f   libucrtd:argv_wildcards.obj
 0001:000230c0       ?get_wide@@YAPEA_WQEAV?$__crt_win32_buffer@_WU__crt_win32_buffer_internal_dynamic_resizing@@@@QEAD@Z 00000001400240c0 f   libucrtd:argv_wildcards.obj
 0001:00023110       ?previous_character@@YAPEADQEAD0@Z 0000000140024110 f   libucrtd:argv_wildcards.obj
 0001:00023200       ?size@?$argument_list@D@?A0x5f5c8891@@QEBA_KXZ 0000000140024200 f   libucrtd:argv_wildcards.obj
 0001:00023810       ??$?RV<lambda_efa02eb69bf647d2f7ff0dd6f1103f72>@@AEAV<lambda_bd5a608237428601b7e45fbdc72b1ae8>@@V<lambda_728235dc0fc2b1f82d1fa5b3e7102d8f>@@@?$__crt_seh_guarded_call@X@@QEAAX$$QEAV<lambda_efa02eb69bf647d2f7ff0dd6f1103f72>@@AEAV<lambda_bd5a608237428601b7e45fbdc72b1ae8>@@$$QEAV<lambda_728235dc0fc2b1f82d1fa5b3e7102d8f>@@@Z 0000000140024810 f   libucrtd:mbctype.obj
 0001:00023850       ??$__acrt_lock_and_call@V<lambda_bd5a608237428601b7e45fbdc72b1ae8>@@@@YAXW4__acrt_lock_id@@$$QEAV<lambda_bd5a608237428601b7e45fbdc72b1ae8>@@@Z 0000000140024850 f   libucrtd:mbctype.obj
 0001:00023990       ??0<lambda_728235dc0fc2b1f82d1fa5b3e7102d8f>@@QEAA@AEBW4__acrt_lock_id@@@Z 0000000140024990 f   libucrtd:mbctype.obj
 0001:000239b0       ??0<lambda_bd5a608237428601b7e45fbdc72b1ae8>@@QEAA@AEBQEAU__acrt_ptd@@AEBQEAPEAU__crt_multibyte_data@@@Z 00000001400249b0 f   libucrtd:mbctype.obj
 0001:000239e0       ??0<lambda_efa02eb69bf647d2f7ff0dd6f1103f72>@@QEAA@AEBW4__acrt_lock_id@@@Z 00000001400249e0 f   libucrtd:mbctype.obj
 0001:00023a00       ??R<lambda_728235dc0fc2b1f82d1fa5b3e7102d8f>@@QEBAXXZ 0000000140024a00 f   libucrtd:mbctype.obj
 0001:00023a20       ??R<lambda_bd5a608237428601b7e45fbdc72b1ae8>@@QEBAXXZ 0000000140024a20 f   libucrtd:mbctype.obj
 0001:00023b50       ??R<lambda_efa02eb69bf647d2f7ff0dd6f1103f72>@@QEBAXXZ 0000000140024b50 f   libucrtd:mbctype.obj
 0001:00023b70       ?CPtoLocaleName@@YAPEB_WH@Z 0000000140024b70 f   libucrtd:mbctype.obj
 0001:00023c30       ?getSystemCP@@YAHH@Z       0000000140024c30 f   libucrtd:mbctype.obj
 0001:00023d60       ?setSBCS@@YAXPEAU__crt_multibyte_data@@@Z 0000000140024d60 f   libucrtd:mbctype.obj
 0001:00023e60       ?setSBUpLow@@YAXPEAU__crt_multibyte_data@@@Z 0000000140024e60 f   libucrtd:mbctype.obj
 0001:00024250       ?setmbcp_internal@@YAHH_NQEAU__acrt_ptd@@QEAPEAU__crt_multibyte_data@@@Z 0000000140025250 f   libucrtd:mbctype.obj
 0001:000244d0       ?update_thread_multibyte_data_internal@@YAPEAU__crt_multibyte_data@@QEAU__acrt_ptd@@QEAPEAU1@@Z 00000001400254d0 f   libucrtd:mbctype.obj
 0001:00024c60       memcpy_s                   0000000140025c60 f   libucrtd:mbctype.obj
 0001:00024da0       ?x_ismbbtype_l@@YAHPEAU__crt_locale_pointers@@IHH@Z 0000000140025da0 f   libucrtd:ismbbyte.obj
 0001:00024ed0       ?filter_mbtowcs_flags@@YAKIK@Z 0000000140025ed0 f   libucrtd:multibytetowidechar.obj
 0001:00024fd0       ?filter_wcstomb_flags@@YAKIK@Z 0000000140025fd0 f   libucrtd:widechartomultibyte.obj
 0001:000251a0       ??0?$__crt_unique_handle_t@Uenvironment_strings_traits@?A0x1bf47908@@@@QEAA@QEA_W@Z 00000001400261a0 f   libucrtd:get_environment_from_os.obj
 0001:000251c0       ??1?$__crt_unique_handle_t@Uenvironment_strings_traits@?A0x1bf47908@@@@QEAA@XZ 00000001400261c0 f   libucrtd:get_environment_from_os.obj
 0001:000251e0       ?close@?$__crt_unique_handle_t@Uenvironment_strings_traits@?A0x1bf47908@@@@QEAAXXZ 00000001400261e0 f   libucrtd:get_environment_from_os.obj
 0001:00025220       ?close@environment_strings_traits@?A0x1bf47908@@SA_NPEA_W@Z 0000000140026220 f   libucrtd:get_environment_from_os.obj
 0001:00025240       ?find_end_of_double_null_terminated_sequence@@YAPEB_WQEB_W@Z 0000000140026240 f   libucrtd:get_environment_from_os.obj
 0001:00025290       ?get@?$__crt_unique_handle_t@Uenvironment_strings_traits@?A0x1bf47908@@@@QEBAPEA_WXZ 0000000140026290 f   libucrtd:get_environment_from_os.obj
 0001:000252a0       ?get_invalid_value@environment_strings_traits@?A0x1bf47908@@SAPEA_WXZ 00000001400262a0 f   libucrtd:get_environment_from_os.obj
 0001:000252b0       ?is_valid@?$__crt_unique_handle_t@Uenvironment_strings_traits@?A0x1bf47908@@@@QEBA_NXZ 00000001400262b0 f   libucrtd:get_environment_from_os.obj
 0001:00025650       ??$get_cached_win_policy@Udeveloper_information_policy_properties@?1??__acrt_get_developer_information_policy@@YA?AW4developer_information_policy@@XZ@@@YA?AW4developer_information_policy@@W4AppPolicyShowDeveloperDiagnostic@@@Z 0000000140026650 f   libucrtd:win_policies.obj
 0001:00025720       ??$get_cached_win_policy@Uwindowing_model_policy_properties@?1??__acrt_get_windowing_model_policy@@YA?AW4windowing_model_policy@@XZ@@@YA?AW4windowing_model_policy@@W4AppPolicyWindowingModel@@@Z 0000000140026720 f   libucrtd:win_policies.obj
 0001:000257f0       ??$get_win_policy@Uprocess_end_policy_properties@?1??__acrt_get_process_end_policy@@YA?AW4process_end_policy@@XZ@@@YA?AW4process_end_policy@@W4AppPolicyProcessTerminationMethod@@@Z 00000001400267f0 f   libucrtd:win_policies.obj
 0001:00025840       ?appmodel_get_policy@developer_information_policy_properties@?1??__acrt_get_developer_information_policy@@YA?AW4developer_information_policy@@XZ@SAJPEAW4AppPolicyShowDeveloperDiagnostic@@@Z 0000000140026840 f   libucrtd:win_policies.obj
 0001:00025860       ?appmodel_get_policy@process_end_policy_properties@?1??__acrt_get_process_end_policy@@YA?AW4process_end_policy@@XZ@SAJPEAW4AppPolicyProcessTerminationMethod@@@Z 0000000140026860 f   libucrtd:win_policies.obj
 0001:00025880       ?appmodel_get_policy@windowing_model_policy_properties@?1??__acrt_get_windowing_model_policy@@YA?AW4windowing_model_policy@@XZ@SAJPEAW4AppPolicyWindowingModel@@@Z 0000000140026880 f   libucrtd:win_policies.obj
 0001:000258a0       ?appmodel_policy_to_policy_type@developer_information_policy_properties@?1??__acrt_get_developer_information_policy@@YA?AW4developer_information_policy@@XZ@SA?AW43@J@Z 00000001400268a0 f   libucrtd:win_policies.obj
 0001:000258c0       ?appmodel_policy_to_policy_type@process_end_policy_properties@?1??__acrt_get_process_end_policy@@YA?AW4process_end_policy@@XZ@SA?AW43@W4AppPolicyProcessTerminationMethod@@@Z 00000001400268c0 f   libucrtd:win_policies.obj
 0001:000258e0       ?appmodel_policy_to_policy_type@windowing_model_policy_properties@?1??__acrt_get_windowing_model_policy@@YA?AW4windowing_model_policy@@XZ@SA?AW43@J@Z 00000001400268e0 f   libucrtd:win_policies.obj
 0001:00026270       ?get_std_handle_id@@YAKH@Z 0000000140027270 f   libucrtd:ioinit.obj
 0001:000262c0       ?initialize_inherited_file_handles_nolock@@YAXXZ 00000001400272c0 f   libucrtd:ioinit.obj
 0001:00026470       ?initialize_stdio_handles_nolock@@YAXXZ 0000000140027470 f   libucrtd:ioinit.obj
 0001:000269d0       ??$free_crt_array@D$01@@YAXAEAY01PEAD@Z 00000001400279d0 f   libucrtd:inittime.obj
 0001:000269f0       ??$free_crt_array@D$06@@YAXAEAY06PEAD@Z 00000001400279f0 f   libucrtd:inittime.obj
 0001:00026a10       ??$free_crt_array@D$0M@@@YAXAEAY0M@PEAD@Z 0000000140027a10 f   libucrtd:inittime.obj
 0001:00026a30       ??$free_crt_array@_W$01@@YAXAEAY01PEA_W@Z 0000000140027a30 f   libucrtd:inittime.obj
 0001:00026a50       ??$free_crt_array@_W$06@@YAXAEAY06PEA_W@Z 0000000140027a50 f   libucrtd:inittime.obj
 0001:00026a70       ??$free_crt_array@_W$0M@@@YAXAEAY0M@PEA_W@Z 0000000140027a70 f   libucrtd:inittime.obj
 0001:00026a90       ?free_crt_array_internal@@YAXQEAPEBX_K@Z 0000000140027a90 f   libucrtd:inittime.obj
 0001:00027bc0       ?invalid_function_sentinel@@YAPEAXXZ 0000000140028bc0 f   libucrtd:winapi_thunks.obj
 0001:00027bd0       ?try_get_AppPolicyGetProcessTerminationMethod@@YAP6AJPEAXPEAW4AppPolicyProcessTerminationMethod@@@ZXZ 0000000140028bd0 f   libucrtd:winapi_thunks.obj
 0001:00027c00       ?try_get_AppPolicyGetShowDeveloperDiagnostic@@YAP6AJPEAXPEAW4AppPolicyShowDeveloperDiagnostic@@@ZXZ 0000000140028c00 f   libucrtd:winapi_thunks.obj
 0001:00027c30       ?try_get_AppPolicyGetWindowingModel@@YAP6AJPEAXPEAW4AppPolicyWindowingModel@@@ZXZ 0000000140028c30 f   libucrtd:winapi_thunks.obj
 0001:00027c60       ?try_get_AreFileApisANSI@@YAP6AHXZXZ 0000000140028c60 f   libucrtd:winapi_thunks.obj
 0001:00027c90       ?try_get_GetActiveWindow@@YAP6APEAUHWND__@@XZXZ 0000000140028c90 f   libucrtd:winapi_thunks.obj
 0001:00027cc0       ?try_get_GetLastActivePopup@@YAP6APEAUHWND__@@PEAU1@@ZXZ 0000000140028cc0 f   libucrtd:winapi_thunks.obj
 0001:00027cf0       ?try_get_GetProcessWindowStation@@YAP6APEAUHWINSTA__@@XZXZ 0000000140028cf0 f   libucrtd:winapi_thunks.obj
 0001:00027d20       ?try_get_GetUserObjectInformationW@@YAP6AHPEAXH0KPEAK@ZXZ 0000000140028d20 f   libucrtd:winapi_thunks.obj
 0001:00027d50       ?try_get_InitializeCriticalSectionEx@@YAP6AHPEAU_RTL_CRITICAL_SECTION@@KK@ZXZ 0000000140028d50 f   libucrtd:winapi_thunks.obj
 0001:00027d80       ?try_get_LCMapStringEx@@YAP6AHPEB_WK0HPEA_WHPEAU_nlsversioninfo@@PEAX_J@ZXZ 0000000140028d80 f   libucrtd:winapi_thunks.obj
 0001:00027db0       ?try_get_LocaleNameToLCID@@YAP6AKPEB_WK@ZXZ 0000000140028db0 f   libucrtd:winapi_thunks.obj
 0001:00027de0       ?try_get_MessageBoxA@@YAP6AHPEAUHWND__@@PEBD1I@ZXZ 0000000140028de0 f   libucrtd:winapi_thunks.obj
 0001:00027e10       ?try_get_MessageBoxW@@YAP6AHPEAUHWND__@@PEB_W1I@ZXZ 0000000140028e10 f   libucrtd:winapi_thunks.obj
 0001:00027e40       ?try_get_first_available_module@@YAPEAUHINSTANCE__@@QEBW4module_id@?A0x391cf84c@@0@Z 0000000140028e40 f   libucrtd:winapi_thunks.obj
 0001:00027ea0       ?try_get_function@@YAPEAXW4function_id@?A0x391cf84c@@QEBDQEBW4module_id@2@2@Z 0000000140028ea0 f   libucrtd:winapi_thunks.obj
 0001:00028040       ?try_get_module@@YAPEAUHINSTANCE__@@W4module_id@?A0x391cf84c@@@Z 0000000140029040 f   libucrtd:winapi_thunks.obj
 0001:000281a0       ?try_get_proc_address_from_first_available_module@@YAPEAXQEBDQEBW4module_id@?A0x391cf84c@@1@Z 00000001400291a0 f   libucrtd:winapi_thunks.obj
 0001:000281f0       ?try_load_library_from_system_directory@@YAPEAUHINSTANCE__@@QEB_W@Z 00000001400291f0 f   libucrtd:winapi_thunks.obj
 0001:00028d90       ??$?RV<lambda_450d765d439847d4c735a33c368b5fc0>@@AEAV<lambda_44731a7d0e6d81c3e6aa82d741081786>@@V<lambda_601a2a7da3b7a96e9554ac7215c4b07c>@@@?$__crt_seh_guarded_call@P6AXH@Z@@QEAAP6AXH@Z$$QEAV<lambda_450d765d439847d4c735a33c368b5fc0>@@AEAV<lambda_44731a7d0e6d81c3e6aa82d741081786>@@$$QEAV<lambda_601a2a7da3b7a96e9554ac7215c4b07c>@@@Z 0000000140029d90 f   libucrtd:signal.obj
 0001:00028de0       ??$__acrt_lock_and_call@V<lambda_44731a7d0e6d81c3e6aa82d741081786>@@@@YAP6AXH@ZW4__acrt_lock_id@@$$QEAV<lambda_44731a7d0e6d81c3e6aa82d741081786>@@@Z 0000000140029de0 f   libucrtd:signal.obj
 0001:00028ec0       ??0<lambda_450d765d439847d4c735a33c368b5fc0>@@QEAA@AEBW4__acrt_lock_id@@@Z 0000000140029ec0 f   libucrtd:signal.obj
 0001:00028ee0       ??0<lambda_601a2a7da3b7a96e9554ac7215c4b07c>@@QEAA@AEBW4__acrt_lock_id@@@Z 0000000140029ee0 f   libucrtd:signal.obj
 0001:00028f00       ??R<lambda_44731a7d0e6d81c3e6aa82d741081786>@@QEBAP6AXH@ZXZ 0000000140029f00 f   libucrtd:signal.obj
 0001:00028f30       ??R<lambda_450d765d439847d4c735a33c368b5fc0>@@QEBAXXZ 0000000140029f30 f   libucrtd:signal.obj
 0001:00028f50       ??R<lambda_601a2a7da3b7a96e9554ac7215c4b07c>@@QEBAXXZ 0000000140029f50 f   libucrtd:signal.obj
 0001:00028f70       ?get_global_action_nolock@@YAPEAP6AXH@ZH@Z 0000000140029f70 f   libucrtd:signal.obj
 0001:00029050       ?siglookup@@YAPEAU__crt_signal_action_t@@HQEAU1@@Z 000000014002a050 f   libucrtd:signal.obj
 0001:00029644       $LN58                      000000014002a644     libucrtd:signal.obj
 0001:00029650       $LN57                      000000014002a650     libucrtd:signal.obj
 0001:00029780       ?select_heap@@YAPEAXQEAX@Z 000000014002a780 f   libucrtd:free_base.obj
 0001:000298a0       ?is_contraction_possible@@YA_N_K@Z 000000014002a8a0 f   libucrtd:expand.obj
 0001:0002b550       ?fe_to_nearest@@YA_NQEBN_KF@Z 000000014002c550 f   libucrtd:cvt.obj
 0001:0002b6a0       ?fp_format_a@@YAHQEBNPEAD_KQEAD2H_NIW4__acrt_rounding_mode@@AEAV__crt_cached_ptd_host@@@Z 000000014002c6a0 f   libucrtd:cvt.obj
 0001:0002bef0       ?fp_format_e@@YAHQEBNQEAD_K12H_NIW4__acrt_rounding_mode@@AEAV__crt_cached_ptd_host@@@Z 000000014002cef0 f   libucrtd:cvt.obj
 0001:0002c0d0       ?fp_format_e_internal@@YAHQEAD_KH_NIQEAU_strflt@@2AEAV__crt_cached_ptd_host@@@Z 000000014002d0d0 f   libucrtd:cvt.obj
 0001:0002c500       ?fp_format_f@@YAHQEBNQEAD_K12HW4__acrt_rounding_mode@@AEAV__crt_cached_ptd_host@@@Z 000000014002d500 f   libucrtd:cvt.obj
 0001:0002c690       ?fp_format_f_internal@@YAHQEAD_KHQEAU_strflt@@_NAEAV__crt_cached_ptd_host@@@Z 000000014002d690 f   libucrtd:cvt.obj
 0001:0002c8d0       ?fp_format_g@@YAHQEBNQEAD_K12H_NIW4__acrt_rounding_mode@@AEAV__crt_cached_ptd_host@@@Z 000000014002d8d0 f   libucrtd:cvt.obj
 0001:0002cb30       ?fp_format_nan_or_infinity@@YAHW4__acrt_fp_class@@_NPEAD_K1@Z 000000014002db30 f   libucrtd:cvt.obj
 0001:0002cca0       ?shift_bytes@@YAXQEAD_K0H@Z 000000014002dca0 f   libucrtd:cvt.obj
 0001:0002ccf0       ?should_round_up@@YA_NQEBN_KFW4__acrt_rounding_mode@@@Z 000000014002dcf0 f   libucrtd:cvt.obj
 0001:0002d4b8       $LN42                      000000014002e4b8     libucrtd:cvt.obj
 0001:0002d4cc       $LN41                      000000014002e4cc     libucrtd:cvt.obj
 0001:0002e3f0       ?shortsort@@YAXPEAD0_KP6AHPEBX2@Z@Z 000000014002f3f0 f   libucrtd:qsort.obj
 0001:0002e4f0       ?swap@@YAXPEAD0_K@Z        000000014002f4f0 f   libucrtd:qsort.obj
 0001:0002ed60       ??$common_tcsncpy_s@D@@YAHQEAD_KQEBD1@Z 000000014002fd60 f   libucrtd:strncpy_s.obj
 0001:0002f430       fallbackMethod             0000000140030430 f   libucrtd:strpbrk.obj
 0001:0002fd94       $LN85                      0000000140030d94     libucrtd:strpbrk.obj
 0001:0002fdd0       $LN84                      0000000140030dd0     libucrtd:strpbrk.obj
 0001:0002fe10       $LN83                      0000000140030e10     libucrtd:strpbrk.obj
 0001:00030140       ?__acrt_LCMapStringA_stat@@YAHPEAU__crt_locale_pointers@@PEB_WKPEBDHPEADHHH@Z 0000000140031140 f   libucrtd:lcmapstringa.obj
 0001:000307f0       ?initialize_multibyte@@YAHXZ 00000001400317f0 f   libucrtd:multibyte_initializer.obj
 0001:00030820       ??$common_xtox@KD@@YAHKQEAD_KI_N@Z 0000000140031820 f   libucrtd:xtoa.obj
 0001:00030a60       ??$common_xtox@K_W@@YAHKQEA_W_KI_N@Z 0000000140031a60 f   libucrtd:xtoa.obj
 0001:00030cb0       ??$common_xtox_s@KD@@YAHKQEAD_KI_N@Z 0000000140031cb0 f   libucrtd:xtoa.obj
 0001:00031060       ??$common_xtox_s@K_W@@YAHKQEA_W_KI_N@Z 0000000140032060 f   libucrtd:xtoa.obj
 0001:000315a0       ?GetTableIndexFromLocaleName@@YAHPEB_W@Z 00000001400325a0 f   libucrtd:lcidtoname_downlevel.obj
 0001:000317c0       ??$?RV<lambda_842d9ff0dc9ef11c61343bbaebe7f885>@@AEAV<lambda_c5860995281e5c4ce005b3de8f5874ee>@@V<lambda_d90129c13df834fdcbf8d2b88dafcf2d>@@@?$__crt_seh_guarded_call@X@@QEAAX$$QEAV<lambda_842d9ff0dc9ef11c61343bbaebe7f885>@@AEAV<lambda_c5860995281e5c4ce005b3de8f5874ee>@@$$QEAV<lambda_d90129c13df834fdcbf8d2b88dafcf2d>@@@Z 00000001400327c0 f   libucrtd:fflush.obj
 0001:00031800       ??$?RV<lambda_886d6c58226a84441f68b9f2b8217b83>@@AEAV<lambda_ab61a845afdef5b7c387490eaf3616ee>@@V<lambda_f7f22ab5edc0698d5f6905b0d3f44752>@@@?$__crt_seh_guarded_call@X@@QEAAX$$QEAV<lambda_886d6c58226a84441f68b9f2b8217b83>@@AEAV<lambda_ab61a845afdef5b7c387490eaf3616ee>@@$$QEAV<lambda_f7f22ab5edc0698d5f6905b0d3f44752>@@@Z 0000000140032800 f   libucrtd:fflush.obj
 0001:00031840       ??$__acrt_lock_and_call@V<lambda_ab61a845afdef5b7c387490eaf3616ee>@@@@YAXW4__acrt_lock_id@@$$QEAV<lambda_ab61a845afdef5b7c387490eaf3616ee>@@@Z 0000000140032840 f   libucrtd:fflush.obj
 0001:000318a0       ??$__acrt_lock_stream_and_call@V<lambda_c5860995281e5c4ce005b3de8f5874ee>@@@@YAXQEAU_iobuf@@$$QEAV<lambda_c5860995281e5c4ce005b3de8f5874ee>@@@Z 00000001400328a0 f   libucrtd:fflush.obj
 0001:00031900       ??0<lambda_842d9ff0dc9ef11c61343bbaebe7f885>@@QEAA@AEBQEAU_iobuf@@@Z 0000000140032900 f   libucrtd:fflush.obj
 0001:00031920       ??0<lambda_886d6c58226a84441f68b9f2b8217b83>@@QEAA@AEBW4__acrt_lock_id@@@Z 0000000140032920 f   libucrtd:fflush.obj
 0001:00031940       ??0<lambda_ab61a845afdef5b7c387490eaf3616ee>@@QEAA@AEAHAEB_N0@Z 0000000140032940 f   libucrtd:fflush.obj
 0001:00031990       ??0<lambda_c5860995281e5c4ce005b3de8f5874ee>@@QEAA@AEBV__crt_stdio_stream@@AEAHAEB_N1@Z 0000000140032990 f   libucrtd:fflush.obj
 0001:000319f0       ??0<lambda_d90129c13df834fdcbf8d2b88dafcf2d>@@QEAA@AEBQEAU_iobuf@@@Z 00000001400329f0 f   libucrtd:fflush.obj
 0001:00031a10       ??0<lambda_f7f22ab5edc0698d5f6905b0d3f44752>@@QEAA@AEBW4__acrt_lock_id@@@Z 0000000140032a10 f   libucrtd:fflush.obj
 0001:00031a50       ??R<lambda_842d9ff0dc9ef11c61343bbaebe7f885>@@QEBAXXZ 0000000140032a50 f   libucrtd:fflush.obj
 0001:00031a70       ??R<lambda_886d6c58226a84441f68b9f2b8217b83>@@QEBAXXZ 0000000140032a70 f   libucrtd:fflush.obj
 0001:00031a90       ??R<lambda_ab61a845afdef5b7c387490eaf3616ee>@@QEBA@XZ 0000000140032a90 f   libucrtd:fflush.obj
 0001:00031b80       ??R<lambda_c5860995281e5c4ce005b3de8f5874ee>@@QEBAXXZ 0000000140032b80 f   libucrtd:fflush.obj
 0001:00031c30       ??R<lambda_d90129c13df834fdcbf8d2b88dafcf2d>@@QEBAXXZ 0000000140032c30 f   libucrtd:fflush.obj
 0001:00031c50       ??R<lambda_f7f22ab5edc0698d5f6905b0d3f44752>@@QEBAXXZ 0000000140032c50 f   libucrtd:fflush.obj
 0001:00031cc0       ?_fflush_nolock_internal@@YAHQEAU_iobuf@@AEAV__crt_cached_ptd_host@@@Z 0000000140032cc0 f   libucrtd:fflush.obj
 0001:00031d60       ?common_flush_all@@YAH_N@Z 0000000140032d60 f   libucrtd:fflush.obj
 0001:00031dd0       ?common_flush_all_should_try_to_flush_stream@@YA_NV__crt_stdio_stream@@QEAH@Z 0000000140032dd0 f   libucrtd:fflush.obj
 0001:00031e80       ?is_stream_allocated@@YA_NJ@Z 0000000140032e80 f   libucrtd:fflush.obj
 0001:00031eb0       ?is_stream_flushable@@YA_NJ@Z 0000000140032eb0 f   libucrtd:fflush.obj
 0001:00031ee0       ?is_stream_flushable_or_commitable@@YA_NJ@Z 0000000140032ee0 f   libucrtd:fflush.obj
 0001:00032130       ?_mbstowcs_internal@@YAHPEA_KPEA_W_KPEBD2AEAV__crt_cached_ptd_host@@@Z 0000000140033130 f   libucrtd:mbstowcs.obj
 0001:00032710       ?_mbstowcs_l_helper@@YA_KPEA_WPEBD_KAEAV__crt_cached_ptd_host@@@Z 0000000140033710 f   libucrtd:mbstowcs.obj
 0001:00032cc0       ?_wcstombs_internal@@YAHPEA_KPEAD_KPEB_W2AEAV__crt_cached_ptd_host@@@Z 0000000140033cc0 f   libucrtd:wcstombs.obj
 0001:00033290       ?_wcstombs_l_helper@@YA_KPEADPEB_W_KAEAV__crt_cached_ptd_host@@@Z 0000000140034290 f   libucrtd:wcstombs.obj
 0001:00033a20       ?wcsncnt@@YA_KPEB_W_K@Z    0000000140034a20 f   libucrtd:wcstombs.obj
 0001:00033b30       ??$common_tcscat_s@D@@YAHQEAD_KQEBD@Z 0000000140034b30 f   libucrtd:strcat_s.obj
 0001:000341d0       ?check_trailing@@YA_NPEBDW4__acrt_has_trailing_digits@@@Z 00000001400351d0 f   libucrtd:_fptostr.obj
 0001:00034220       ?should_round_up@@YA_NQEBD0HW4__acrt_has_trailing_digits@@W4__acrt_rounding_mode@@@Z 0000000140035220 f   libucrtd:_fptostr.obj
 0001:000348c0       ??$convert_to_fos_high_precision@N@@YA?AW4__acrt_has_trailing_digits@@NIW4__acrt_precision_style@@QEAHQEAD_K@Z 00000001400358c0 f   libucrtd:cfout.obj
 0001:00034fe0       ??0scoped_fp_state_reset@?A0x71ca7cfb@@QEAA@XZ 0000000140035fe0 f   libucrtd:cfout.obj
 0001:00035030       ??1scoped_fp_state_reset@?A0x71ca7cfb@@QEAA@XZ 0000000140036030 f   libucrtd:cfout.obj
 0001:00036bd0       memcpy_s                   0000000140037bd0 f   libucrtd:cfout.obj
 0001:00036fd0       ??R<lambda_599026849492e2a71b24cce8b46aab16>@@QEBA_KPEBD@Z 0000000140037fd0 f   libucrtd:mbrtowc.obj
 0001:000376c0       ??$?RV<lambda_7d29013d608e9f25a034de83c9b9e983>@@AEAV<lambda_3e4146214822e0ea86c47ff907aef2ff>@@V<lambda_b869e5a4e1069fcb5c3da79c0d999133>@@@?$__crt_seh_guarded_call@H@@QEAAH$$QEAV<lambda_7d29013d608e9f25a034de83c9b9e983>@@AEAV<lambda_3e4146214822e0ea86c47ff907aef2ff>@@$$QEAV<lambda_b869e5a4e1069fcb5c3da79c0d999133>@@@Z 00000001400386c0 f   libucrtd:commit.obj
 0001:00037710       ??$__acrt_lowio_lock_fh_and_call@V<lambda_3e4146214822e0ea86c47ff907aef2ff>@@@@YAHH$$QEAV<lambda_3e4146214822e0ea86c47ff907aef2ff>@@@Z 0000000140038710 f   libucrtd:commit.obj
 0001:00037770       ??0<lambda_3e4146214822e0ea86c47ff907aef2ff>@@QEAA@AEBH@Z 0000000140038770 f   libucrtd:commit.obj
 0001:00037790       ??0<lambda_7d29013d608e9f25a034de83c9b9e983>@@QEAA@AEBH@Z 0000000140038790 f   libucrtd:commit.obj
 0001:000377b0       ??0<lambda_b869e5a4e1069fcb5c3da79c0d999133>@@QEAA@AEBH@Z 00000001400387b0 f   libucrtd:commit.obj
 0001:000377d0       ??R<lambda_3e4146214822e0ea86c47ff907aef2ff>@@QEBAHXZ 00000001400387d0 f   libucrtd:commit.obj
 0001:000378a0       ??R<lambda_7d29013d608e9f25a034de83c9b9e983>@@QEBAXXZ 00000001400388a0 f   libucrtd:commit.obj
 0001:000378c0       ??R<lambda_b869e5a4e1069fcb5c3da79c0d999133>@@QEBAXXZ 00000001400388c0 f   libucrtd:commit.obj
 0001:00037ac0       ?write_binary_nolock@@YA?AUwrite_result@?A0x17268360@@HQEBDI@Z 0000000140038ac0 f   libucrtd:write.obj
 0001:00037b90       ?write_double_translated_ansi_nolock@@YA?AUwrite_result@?A0x17268360@@HQEBDIAEAV__crt_cached_ptd_host@@@Z 0000000140038b90 f   libucrtd:write.obj
 0001:000388f0       ?write_double_translated_unicode_nolock@@YA?AUwrite_result@?A0x17268360@@QEBDI@Z 00000001400398f0 f   libucrtd:write.obj
 0001:00038a50       ?write_requires_double_translation_nolock@@YA_NHAEAV__crt_cached_ptd_host@@@Z 0000000140039a50 f   libucrtd:write.obj
 0001:00038b60       ?write_text_ansi_nolock@@YA?AUwrite_result@?A0x17268360@@HQEBDI@Z 0000000140039b60 f   libucrtd:write.obj
 0001:00038d90       ?write_text_utf16le_nolock@@YA?AUwrite_result@?A0x17268360@@HQEBDI@Z 0000000140039d90 f   libucrtd:write.obj
 0001:00038fe0       ?write_text_utf8_nolock@@YA?AUwrite_result@?A0x17268360@@HQEBDI@Z 0000000140039fe0 f   libucrtd:write.obj
 0001:00039ff0       $$000000                   000000014003aff0     libucrtd:log10.obj
 0001:0003abe0       ??$to_abstract_status@W4__acrt_fenv_machine_sse_status@@@@YA?AW4__acrt_fenv_abstract_status@@W4__acrt_fenv_machine_sse_status@@@Z 000000014003bbe0 f   libucrtd:_fenvutils.obj
 0001:0003ac00       ??$translate_control_exception_mask@W4__acrt_fenv_abstract_control@@W4__acrt_fenv_machine_sse_control@@@@YA?AW4__acrt_fenv_abstract_control@@W4__acrt_fenv_machine_sse_control@@@Z 000000014003bc00 f   libucrtd:_fenvutils.obj
 0001:0003acf0       ??$translate_control_exception_mask@W4__acrt_fenv_machine_sse_control@@W4__acrt_fenv_abstract_control@@@@YA?AW4__acrt_fenv_machine_sse_control@@W4__acrt_fenv_abstract_control@@@Z 000000014003bcf0 f   libucrtd:_fenvutils.obj
 0001:0003ade0       ??$translate_control_rounding_control@W4__acrt_fenv_abstract_control@@W4__acrt_fenv_machine_sse_control@@@@YA?AW4__acrt_fenv_abstract_control@@W4__acrt_fenv_machine_sse_control@@@Z 000000014003bde0 f   libucrtd:_fenvutils.obj
 0001:0003ae50       ??$translate_control_rounding_control@W4__acrt_fenv_machine_sse_control@@W4__acrt_fenv_abstract_control@@@@YA?AW4__acrt_fenv_machine_sse_control@@W4__acrt_fenv_abstract_control@@@Z 000000014003be50 f   libucrtd:_fenvutils.obj
 0001:0003aec0       ??$translate_status@W4__acrt_fenv_abstract_status@@W4__acrt_fenv_machine_sse_status@@@@YA?AW4__acrt_fenv_abstract_status@@W4__acrt_fenv_machine_sse_status@@@Z 000000014003bec0 f   libucrtd:_fenvutils.obj
 0001:0003afb0       ??$translate_status@W4__acrt_fenv_machine_sse_status@@W4__acrt_fenv_abstract_status@@@@YA?AW4__acrt_fenv_machine_sse_status@@W4__acrt_fenv_abstract_status@@@Z 000000014003bfb0 f   libucrtd:_fenvutils.obj
 0001:0003b340       ?get_machine_sse_control@@YA?AW4__acrt_fenv_machine_sse_control@@XZ 000000014003c340 f   libucrtd:_fenvutils.obj
 0001:0003b360       ?get_machine_sse_status@@YA?AW4__acrt_fenv_machine_sse_status@@XZ 000000014003c360 f   libucrtd:_fenvutils.obj
 0001:0003b380       ?set_machine_sse_control@@YAXW4__acrt_fenv_machine_sse_control@@@Z 000000014003c380 f   libucrtd:_fenvutils.obj
 0001:0003b3e0       ?set_machine_sse_status@@YAXW4__acrt_fenv_machine_sse_status@@@Z 000000014003c3e0 f   libucrtd:_fenvutils.obj
 0001:0003b430       ?to_abstract_control@@YA?AW4__acrt_fenv_abstract_control@@W4__acrt_fenv_machine_sse_control@@@Z 000000014003c430 f   libucrtd:_fenvutils.obj
 0001:0003b490       ?to_machine_sse_control@@YA?AW4__acrt_fenv_machine_sse_control@@W4__acrt_fenv_abstract_control@@@Z 000000014003c490 f   libucrtd:_fenvutils.obj
 0001:0003b500       ?to_machine_sse_status@@YA?AW4__acrt_fenv_machine_sse_status@@W4__acrt_fenv_abstract_status@@@Z 000000014003c500 f   libucrtd:_fenvutils.obj
 0001:0003b520       ?translate_control_denormal_control_from_sse@@YA?AW4__acrt_fenv_abstract_control@@W4__acrt_fenv_machine_sse_control@@@Z 000000014003c520 f   libucrtd:_fenvutils.obj
 0001:0003b5a0       ?translate_control_denormal_control_to_sse@@YA?AW4__acrt_fenv_machine_sse_control@@W4__acrt_fenv_abstract_control@@@Z 000000014003c5a0 f   libucrtd:_fenvutils.obj
 0001:0003bb60       ?_fclose_internal@@YAHQEAU_iobuf@@AEAV__crt_cached_ptd_host@@@Z 000000014003cb60 f   libucrtd:fclose.obj
 0001:0003bcc0       ?_fclose_nolock_internal@@YAHQEAU_iobuf@@AEAV__crt_cached_ptd_host@@@Z 000000014003ccc0 f   libucrtd:fclose.obj
 0001:0003beb0       ??$common_lseek_nolock@_J@@YA_JH_JHAEAV__crt_cached_ptd_host@@@Z 000000014003ceb0 f   libucrtd:lseek.obj
 0001:0003bfe0       ?common_lseek_do_seek_nolock@@YA_JQEAX_JHAEAV__crt_cached_ptd_host@@@Z 000000014003cfe0 f   libucrtd:lseek.obj
 0001:0003c200       ?combine_second_surrogate@?A0xc60ee810@@YA_U_SPEAU_Mbstatet@@@Z 000000014003d200 f   libucrtd:c16rtomb.obj
 0001:0003c220       ?has_surrogate@?A0xc60ee810@@YA_NPEAU_Mbstatet@@@Z 000000014003d220 f   libucrtd:c16rtomb.obj
 0001:0003c250       ?is_first_surrogate@?A0xc60ee810@@YA_N_S@Z 000000014003d250 f   libucrtd:c16rtomb.obj
 0001:0003c290       ?is_second_surrogate@?A0xc60ee810@@YA_N_S@Z 000000014003d290 f   libucrtd:c16rtomb.obj
 0001:0003c2d0       ?store_first_surrogate@?A0xc60ee810@@YAX_SPEAU_Mbstatet@@@Z 000000014003d2d0 f   libucrtd:c16rtomb.obj
 0001:0003c410       _log_special_common        000000014003d410 f   libucrtd:log_special.obj
 0001:0003c530       _call_matherr              000000014003d530 f   libucrtd:libm_error.obj
 0001:0003c5c0       _exception_enabled         000000014003d5c0 f   libucrtd:libm_error.obj
 0001:0003c8e0       _abstract_cw               000000014003d8e0 f   libucrtd:ieee.obj
 0001:0003ca30       _abstract_sw               000000014003da30 f   libucrtd:ieee.obj
 0001:0003cb10       _hw_cw                     000000014003db10 f   libucrtd:ieee.obj
 0001:0003cc60       common_control87           000000014003dc60 f   libucrtd:ieee.obj
 0001:0003cd80       ??$?RV<lambda_19eaff14c5fe7be5b1b106a862eb1091>@@AEAV<lambda_af29824b49a67d335554598d6cad2be6>@@V<lambda_3ce37f5b621ab310299ea5f68cbdf3bb>@@@?$__crt_seh_guarded_call@H@@QEAAH$$QEAV<lambda_19eaff14c5fe7be5b1b106a862eb1091>@@AEAV<lambda_af29824b49a67d335554598d6cad2be6>@@$$QEAV<lambda_3ce37f5b621ab310299ea5f68cbdf3bb>@@@Z 000000014003dd80 f   libucrtd:close.obj
 0001:0003cdd0       ??$__acrt_lowio_lock_fh_and_call@V<lambda_af29824b49a67d335554598d6cad2be6>@@@@YAHH$$QEAV<lambda_af29824b49a67d335554598d6cad2be6>@@@Z 000000014003ddd0 f   libucrtd:close.obj
 0001:0003ce30       ??0<lambda_19eaff14c5fe7be5b1b106a862eb1091>@@QEAA@AEBH@Z 000000014003de30 f   libucrtd:close.obj
 0001:0003ce50       ??0<lambda_3ce37f5b621ab310299ea5f68cbdf3bb>@@QEAA@AEBH@Z 000000014003de50 f   libucrtd:close.obj
 0001:0003ce70       ??0<lambda_af29824b49a67d335554598d6cad2be6>@@QEAA@AEBHAEAV__crt_cached_ptd_host@@@Z 000000014003de70 f   libucrtd:close.obj
 0001:0003cea0       ??R<lambda_19eaff14c5fe7be5b1b106a862eb1091>@@QEBAXXZ 000000014003dea0 f   libucrtd:close.obj
 0001:0003cec0       ??R<lambda_3ce37f5b621ab310299ea5f68cbdf3bb>@@QEBAXXZ 000000014003dec0 f   libucrtd:close.obj
 0001:0003cee0       ??R<lambda_af29824b49a67d335554598d6cad2be6>@@QEBAHXZ 000000014003dee0 f   libucrtd:close.obj
 0001:0003cfb0       ?close_os_handle_nolock@@YAKH@Z 000000014003dfb0 f   libucrtd:close.obj
 0001:0003d480       ??$console_output_reopen_and_retry@V<lambda_61c1b8a38cedca4df5fdc542e6ccae6d>@@@@YAHAEBV<lambda_61c1b8a38cedca4df5fdc542e6ccae6d>@@@Z 000000014003e480 f   libucrtd:initcon.obj
 0001:0003d4e0       ??0<lambda_61c1b8a38cedca4df5fdc542e6ccae6d>@@QEAA@AEBQEBXAEBKAEBQEAK@Z 000000014003e4e0 f   libucrtd:initcon.obj
 0001:0003d530       ??R<lambda_61c1b8a38cedca4df5fdc542e6ccae6d>@@QEBAHXZ 000000014003e530 f   libucrtd:initcon.obj
 0001:0003d570       ?__dcrt_lowio_initialize_console_output@@YAXXZ 000000014003e570 f   libucrtd:initcon.obj
 0001:0003dee0       $$000000                   000000014003eee0     libucrtd:fpsr.obj
 0001:0003e240       $$000000                   000000014003f240     LIBCMTD:chkstk.obj
 0001:0003e380       $$000000                   000000014003f380     libvcruntimed:memcmp.obj
 0001:0003e8f0       $$000000                   000000014003f8f0     LIBCMTD:guard_dispatch.obj
 0001:0003e910       $$000000                   000000014003f910     libucrtd:guard_xfg_dispatch.obj
 0001:0003e930       ?filt$0@?0??__scrt_common_main_seh@@YAHXZ@4HA 000000014003f930 f   LIBCMTD:exe_winmain.obj
 0001:0003e960       __scrt_is_nonwritable_in_current_image$filt$0 000000014003f960 f   LIBCMTD:utility.obj
 0001:0003e9a0       __DestructExceptionObject$filt$0 000000014003f9a0 f   libvcruntimed:ehhelpers.obj
 0001:0003e9d0       ?filt$0@?0???$_CallSETranslator@V__FrameHandler3@@@@YAHPEAUEHExceptionRecord@@PEA_KPEAU_CONTEXT@@PEAU_xDISPATCHER_CONTEXT@@PEBU_s_FuncInfo@@K1@Z@4HA 000000014003f9d0 f   libvcruntimed:risctrnsctrl.obj
 0001:0003ea30       ?filt$0@?0???$BuildCatchObjectHelperInternal@V__FrameHandler3@@@@YAHPEAUEHExceptionRecord@@PEAXPEBU_s_HandlerType@@PEBU_s_CatchableType@@@Z@4HA 000000014003fa30 f   libvcruntimed:frame.obj
 0001:0003ea30       ?filt$0@?0??is_bad_read_pointer@@YA_NQEBX_K@Z@4HA 000000014003fa30 f   libucrtd:debug_heap.obj
 0001:0003ea30       ?filt$0@?0???$BuildCatchObjectInternal@V__FrameHandler3@@@@YAXPEAUEHExceptionRecord@@PEAXPEBU_s_HandlerType@@PEBU_s_CatchableType@@@Z@4HA 000000014003fa30 f   libvcruntimed:frame.obj
 0001:0003ea30       terminate$filt$0           000000014003fa30 f   libucrtd:terminate.obj
 0001:0003ea50       ?filt$0@?0??CxxCallCatchBlock@__FrameHandler3@@SAPEAXPEAU_EXCEPTION_RECORD@@@Z@4HA 000000014003fa50 f   libvcruntimed:frame.obj
 0001:0003ea79       ?fin$1@?0??CxxCallCatchBlock@__FrameHandler3@@SAPEAXPEAU_EXCEPTION_RECORD@@@Z@4HA 000000014003fa79 f   libvcruntimed:frame.obj
 0001:0003eb10       ?filt$0@?0??FrameUnwindToState@__FrameHandler3@@SAXPEA_KPEAU_xDISPATCHER_CONTEXT@@PEBU_s_FuncInfo@@H@Z@4HA 000000014003fb10 f   libvcruntimed:frame.obj
 0001:0003eb37       ?fin$1@?0??FrameUnwindToState@__FrameHandler3@@SAXPEA_KPEAU_xDISPATCHER_CONTEXT@@PEBU_s_FuncInfo@@H@Z@4HA 000000014003fb37 f   libvcruntimed:frame.obj
 0001:0003eb70       ?fin$0@?0???$?RV<lambda_d80eeec6fff315bfe5c115232f3240e3>@@AEAV<lambda_6e4b09c48022b2350581041d5f6b0c4c>@@V<lambda_2358e3775559c9db80273638284d5e45>@@@?$__crt_seh_guarded_call@X@@QEAAX$$QEAV<lambda_d80eeec6fff315bfe5c115232f3240e3>@@AEAV<lambda_6e4b09c48022b2350581041d5f6b0c4c>@@$$QEAV<lambda_2358e3775559c9db80273638284d5e45>@@@Z@4HA 000000014003fb70 f   libucrtd:exit.obj
 0001:0003eb90       ?filt$0@?0???R<lambda_6e4b09c48022b2350581041d5f6b0c4c>@@QEBA@XZ@4HA 000000014003fb90 f   libucrtd:exit.obj
 0001:0003ebc0       ?fin$0@?0???$?RV<lambda_410d79af7f07d98d83a3f525b3859a53>@@AEAV<lambda_3e16ef9562a7dcce91392c22ab16ea36>@@V<lambda_38119f0e861e05405d8a144b9b982f0a>@@@?$__crt_seh_guarded_call@X@@QEAAX$$QEAV<lambda_410d79af7f07d98d83a3f525b3859a53>@@AEAV<lambda_3e16ef9562a7dcce91392c22ab16ea36>@@$$QEAV<lambda_38119f0e861e05405d8a144b9b982f0a>@@@Z@4HA 000000014003fbc0 f   libucrtd:wsetlocale.obj
 0001:0003ebe0       ?fin$0@?0???$?RV<lambda_6a47f4c8fd0152770a780fc1d70204eb>@@AEAV<lambda_d121dba8a4adeaf3a9819e48611155df>@@V<lambda_6aaa2265f5b6a89667e7d7630012e97a>@@@?$__crt_seh_guarded_call@H@@QEAAH$$QEAV<lambda_6a47f4c8fd0152770a780fc1d70204eb>@@AEAV<lambda_d121dba8a4adeaf3a9819e48611155df>@@$$QEAV<lambda_6aaa2265f5b6a89667e7d7630012e97a>@@@Z@4HA 000000014003fbe0 f   libucrtd:onexit.obj
 0001:0003ec00       ?fin$0@?0???$?RV<lambda_80060f20ac3990516b753a27f211934c>@@AEAV<lambda_208ce30acdd7200aa596f2796f4d5154>@@V<lambda_fd91b99c0687e8936f1d70d7d9b78e69>@@@?$__crt_seh_guarded_call@H@@QEAAH$$QEAV<lambda_80060f20ac3990516b753a27f211934c>@@AEAV<lambda_208ce30acdd7200aa596f2796f4d5154>@@$$QEAV<lambda_fd91b99c0687e8936f1d70d7d9b78e69>@@@Z@4HA 000000014003fc00 f   libucrtd:onexit.obj
 0001:0003ec20       ?dtor$0@?0???R<lambda_d121dba8a4adeaf3a9819e48611155df>@@QEBAHXZ@4HA 000000014003fc20 f   libucrtd:onexit.obj
 0001:0003ec40       ?fin$0@?0??heap_alloc_dbg_internal@@YAPEAX_KHQEBDH@Z@4HA 000000014003fc40 f   libucrtd:debug_heap.obj
 0001:0003ec40       _CrtMemCheckpoint$fin$0    000000014003fc40 f   libucrtd:debug_heap.obj
 0001:0003ec60       ?fin$0@?0??validate_heap_if_required_nolock@@YAXXZ@4HA 000000014003fc60 f   libucrtd:debug_heap.obj
 0001:0003ec80       _CrtCheckMemory$fin$0      000000014003fc80 f   libucrtd:debug_heap.obj
 0001:0003ec80       _realloc_dbg$fin$0         000000014003fc80 f   libucrtd:debug_heap.obj
 0001:0003ec80       _msize_dbg$fin$0           000000014003fc80 f   libucrtd:debug_heap.obj
 0001:0003ec80       _CrtSetDbgFlag$fin$0       000000014003fc80 f   libucrtd:debug_heap.obj
 0001:0003ec80       _CrtMemDumpAllObjectsSince$fin$0 000000014003fc80 f   libucrtd:debug_heap.obj
 0001:0003eca0       _query_new_handler$fin$0   000000014003fca0 f   libucrtd:new_handler.obj
 0001:0003eca0       _free_dbg$fin$0            000000014003fca0 f   libucrtd:debug_heap.obj
 0001:0003ecc0       ?fin$0@?0???$?RV<lambda_0ae27a3a962d80f24befdcbee591983d>@@AEAV<lambda_8d0ee55de4b1038c4002e0adecdf1839>@@V<lambda_dc504788e8f1664fe9b84e20bfb512f2>@@@?$__crt_seh_guarded_call@X@@QEAAX$$QEAV<lambda_0ae27a3a962d80f24befdcbee591983d>@@AEAV<lambda_8d0ee55de4b1038c4002e0adecdf1839>@@$$QEAV<lambda_dc504788e8f1664fe9b84e20bfb512f2>@@@Z@4HA 000000014003fcc0 f   libucrtd:per_thread_data.obj
 0001:0003ece0       ?fin$0@?0???$?RV<lambda_2d41944a1d46af3157314b8a01080d33>@@AEAV<lambda_8f455de75cd7d7f24b4096f044d8b9e6>@@V<lambda_aa500f224e6afead328df44964fe2772>@@@?$__crt_seh_guarded_call@X@@QEAAX$$QEAV<lambda_2d41944a1d46af3157314b8a01080d33>@@AEAV<lambda_8f455de75cd7d7f24b4096f044d8b9e6>@@$$QEAV<lambda_aa500f224e6afead328df44964fe2772>@@@Z@4HA 000000014003fce0 f   libucrtd:per_thread_data.obj
 0001:0003ed00       ?fin$0@?0???$?RV<lambda_74a0ef281e44d15e1136f792f539efb3>@@AEAV<lambda_e157831efee4ea0afb0a2ace5dd5fd0d>@@V<lambda_04ddeca75b7c13fd67716e8dfcef87ee>@@@?$__crt_seh_guarded_call@X@@QEAAX$$QEAV<lambda_74a0ef281e44d15e1136f792f539efb3>@@AEAV<lambda_e157831efee4ea0afb0a2ace5dd5fd0d>@@$$QEAV<lambda_04ddeca75b7c13fd67716e8dfcef87ee>@@@Z@4HA 000000014003fd00 f   libucrtd:per_thread_data.obj
 0001:0003ed20       ?fin$0@?0???$?RV<lambda_aa87e3671a710a21b5dc78c0bdf72e11>@@AEAV<lambda_92619d2358a28f41a33ba319515a20b9>@@V<lambda_6992ecaafeb10aed2b74cb1fae11a551>@@@?$__crt_seh_guarded_call@X@@QEAAX$$QEAV<lambda_aa87e3671a710a21b5dc78c0bdf72e11>@@AEAV<lambda_92619d2358a28f41a33ba319515a20b9>@@$$QEAV<lambda_6992ecaafeb10aed2b74cb1fae11a551>@@@Z@4HA 000000014003fd20 f   libucrtd:per_thread_data.obj
 0001:0003ed40       ?fin$0@?0???$?RV<lambda_efa02eb69bf647d2f7ff0dd6f1103f72>@@AEAV<lambda_bd5a608237428601b7e45fbdc72b1ae8>@@V<lambda_728235dc0fc2b1f82d1fa5b3e7102d8f>@@@?$__crt_seh_guarded_call@X@@QEAAX$$QEAV<lambda_efa02eb69bf647d2f7ff0dd6f1103f72>@@AEAV<lambda_bd5a608237428601b7e45fbdc72b1ae8>@@$$QEAV<lambda_728235dc0fc2b1f82d1fa5b3e7102d8f>@@@Z@4HA 000000014003fd40 f   libucrtd:mbctype.obj
 0001:0003ed60       ?fin$0@?0??update_thread_multibyte_data_internal@@YAPEAU__crt_multibyte_data@@QEAU__acrt_ptd@@QEAPEAU1@@Z@4HA 000000014003fd60 f   libucrtd:mbctype.obj
 0001:0003ed80       __acrt_lowio_ensure_fh_exists$fin$0 000000014003fd80 f   libucrtd:osfinfo.obj
 0001:0003eda0       __acrt_initialize_lowio$fin$0 000000014003fda0 f   libucrtd:ioinit.obj
 0001:0003edc0       __acrt_update_thread_locale_data$fin$0 000000014003fdc0 f   libucrtd:locale_refcounting.obj
 0001:0003ede0       ?fin$0@?0???$?RV<lambda_450d765d439847d4c735a33c368b5fc0>@@AEAV<lambda_44731a7d0e6d81c3e6aa82d741081786>@@V<lambda_601a2a7da3b7a96e9554ac7215c4b07c>@@@?$__crt_seh_guarded_call@P6AXH@Z@@QEAAP6AXH@Z$$QEAV<lambda_450d765d439847d4c735a33c368b5fc0>@@AEAV<lambda_44731a7d0e6d81c3e6aa82d741081786>@@$$QEAV<lambda_601a2a7da3b7a96e9554ac7215c4b07c>@@@Z@4HA 000000014003fde0 f   libucrtd:signal.obj
 0001:0003ee00       raise$fin$0                000000014003fe00 f   libucrtd:signal.obj
 0001:0003ee30       _VCrtDbgReportA$fin$0      000000014003fe30 f   libucrtd:dbgrptt.obj
 0001:0003ee4b       _VCrtDbgReportA$fin$1      000000014003fe4b f   libucrtd:dbgrptt.obj
 0001:0003ee70       _VCrtDbgReportW$fin$0      000000014003fe70 f   libucrtd:dbgrptt.obj
 0001:0003ee8b       _VCrtDbgReportW$fin$1      000000014003fe8b f   libucrtd:dbgrptt.obj
 0001:0003eeb0       ?dtor$0@?0??shortsort@@YAXPEAD0_KP6AHPEBX2@Z@Z@4HA 000000014003feb0 f   libucrtd:qsort.obj
 0001:0003eed0       ?fin$0@?0???$?RV<lambda_842d9ff0dc9ef11c61343bbaebe7f885>@@AEAV<lambda_c5860995281e5c4ce005b3de8f5874ee>@@V<lambda_d90129c13df834fdcbf8d2b88dafcf2d>@@@?$__crt_seh_guarded_call@X@@QEAAX$$QEAV<lambda_842d9ff0dc9ef11c61343bbaebe7f885>@@AEAV<lambda_c5860995281e5c4ce005b3de8f5874ee>@@$$QEAV<lambda_d90129c13df834fdcbf8d2b88dafcf2d>@@@Z@4HA 000000014003fed0 f   libucrtd:fflush.obj
 0001:0003eef0       ?fin$0@?0???$?RV<lambda_886d6c58226a84441f68b9f2b8217b83>@@AEAV<lambda_ab61a845afdef5b7c387490eaf3616ee>@@V<lambda_f7f22ab5edc0698d5f6905b0d3f44752>@@@?$__crt_seh_guarded_call@X@@QEAAX$$QEAV<lambda_886d6c58226a84441f68b9f2b8217b83>@@AEAV<lambda_ab61a845afdef5b7c387490eaf3616ee>@@$$QEAV<lambda_f7f22ab5edc0698d5f6905b0d3f44752>@@@Z@4HA 000000014003fef0 f   libucrtd:fflush.obj
 0001:0003ef10       _fcloseall$fin$0           000000014003ff10 f   libucrtd:closeall.obj
 0001:0003ef30       ?fin$0@?0???$?RV<lambda_7d29013d608e9f25a034de83c9b9e983>@@AEAV<lambda_3e4146214822e0ea86c47ff907aef2ff>@@V<lambda_b869e5a4e1069fcb5c3da79c0d999133>@@@?$__crt_seh_guarded_call@H@@QEAAH$$QEAV<lambda_7d29013d608e9f25a034de83c9b9e983>@@AEAV<lambda_3e4146214822e0ea86c47ff907aef2ff>@@$$QEAV<lambda_b869e5a4e1069fcb5c3da79c0d999133>@@@Z@4HA 000000014003ff30 f   libucrtd:commit.obj
 0001:0003ef50       _write_internal$fin$0      000000014003ff50 f   libucrtd:write.obj
 0001:0003ef70       ?fin$0@?0??_fclose_internal@@YAHQEAU_iobuf@@AEAV__crt_cached_ptd_host@@@Z@4HA 000000014003ff70 f   libucrtd:fclose.obj
 0001:0003efa0       common_control87$filt$0    000000014003ffa0 f   libucrtd:ieee.obj
 0001:0003eff0       ?fin$0@?0???$?RV<lambda_19eaff14c5fe7be5b1b106a862eb1091>@@AEAV<lambda_af29824b49a67d335554598d6cad2be6>@@V<lambda_3ce37f5b621ab310299ea5f68cbdf3bb>@@@?$__crt_seh_guarded_call@H@@QEAAH$$QEAV<lambda_19eaff14c5fe7be5b1b106a862eb1091>@@AEAV<lambda_af29824b49a67d335554598d6cad2be6>@@$$QEAV<lambda_3ce37f5b621ab310299ea5f68cbdf3bb>@@@Z@4HA 000000014003fff0 f   libucrtd:close.obj
 0001:0003f010       _ctrlfp$filt$0             0000000140040010 f   libucrtd:fpctrl.obj
 0001:0003f060       _IsNonwritableInCurrentImage$filt$0 0000000140040060 f   LIBCMTD:pesect.obj
 0002:00000328       ?pre_cpp_initializer@@3P6AXXZEA 0000000140041328     LIBCMTD:exe_winmain.obj
 0002:00000340       ?pre_c_initializer@@3P6AHXZEA 0000000140041340     LIBCMTD:exe_winmain.obj
 0002:00000348       ?post_pgo_initializer@@3P6AHXZEA 0000000140041348     LIBCMTD:exe_winmain.obj
 0002:000003b0       $SG145936                  00000001400413b0     win32_main.obj
 0002:000003c8       $SG145937                  00000001400413c8     win32_main.obj
 0002:000003d8       $SG145940                  00000001400413d8     win32_main.obj
 0002:000003f0       $SG145941                  00000001400413f0     win32_main.obj
 0002:00000400       $SG145944                  0000000140041400     win32_main.obj
 0002:00000418       $SG145946                  0000000140041418     win32_main.obj
 0002:00000440       $SG145947                  0000000140041440     win32_main.obj
 0002:00000470       $SG145948                  0000000140041470     win32_main.obj
 0002:00000488       $SG145949                  0000000140041488     win32_main.obj
 0002:00000498       $SG145952                  0000000140041498     win32_main.obj
 0002:00000508       GS_ExceptionPointers       0000000140041508     LIBCMTD:gs_report.obj
 0002:00000570       ?module_names@?A0xbfd18cd1@@3QBQEB_WB 0000000140041570     libvcruntimed:winapi_downlevel.obj
 0002:00000800       ?candidate_modules@?1??try_get_FlsAlloc@@YAP6AKP6AXPEAX@Z@ZXZ@4QBW4module_id@?A0xbfd18cd1@@B 0000000140041800     libvcruntimed:winapi_downlevel.obj
 0002:00000818       ?candidate_modules@?1??try_get_FlsFree@@YAP6AHK@ZXZ@4QBW4module_id@?A0xbfd18cd1@@B 0000000140041818     libvcruntimed:winapi_downlevel.obj
 0002:00000828       ?candidate_modules@?1??try_get_FlsGetValue@@YAP6APEAXK@ZXZ@4QBW4module_id@?A0xbfd18cd1@@B 0000000140041828     libvcruntimed:winapi_downlevel.obj
 0002:00000840       ?candidate_modules@?1??try_get_FlsSetValue@@YAP6AHKPEAX@ZXZ@4QBW4module_id@?A0xbfd18cd1@@B 0000000140041840     libvcruntimed:winapi_downlevel.obj
 0002:00000858       ?candidate_modules@?1??try_get_InitializeCriticalSectionEx@@YAP6AHPEAU_RTL_CRITICAL_SECTION@@KK@ZXZ@4QBW4module_id@?A0xbfd18cd1@@B 0000000140041858     libvcruntimed:winapi_downlevel.obj
 0002:00000880       ?tokenTable@@3QBQEBDB      0000000140041880     libvcruntimed:undname.obj
 0002:00000900       ?nameTable@@3QBQEBDB       0000000140041900     libvcruntimed:undname.obj
 0002:00000b90       ?rttiTable@@3QBQEBDB       0000000140041b90     libvcruntimed:undname.obj
 0002:00001250       ?ExceptionTemplate@?1??UnwindNestedFrames@__FrameHandler3@@SAXPEA_KPEAUEHExceptionRecord@@PEAU_CONTEXT@@0PEAXPEBU_s_FuncInfo@@HHPEBU_s_HandlerType@@PEAU_xDISPATCHER_CONTEXT@@E@Z@4U_EXCEPTION_RECORD@@B 0000000140042250     libvcruntimed:risctrnsctrl.obj
 0002:00001430       ?ExceptionTemplate@?1??_CxxThrowException@@9@4UEHExceptionRecord@@B 0000000140042430     libvcruntimed:throw.obj
 0002:000019a0       $cppxdata$??$common_configure_argv@D@@YAHW4_crt_argv_mode@@@Z 00000001400429a0     libucrtd:argv_parsing.obj
 0002:00001b40       $cppxdata$??$uninitialize@A6AXAEAPEAPEAD@_E@?$dual_state_global@PEAPEAD@__crt_state_management@@QEAAXA6AXAEAPEAPEAD@_E@Z 0000000140042b40     libucrtd:environment_initialization.obj
 0002:00001b68       $cppxdata$??$uninitialize@A6AXAEAPEAPEA_W@_E@?$dual_state_global@PEAPEA_W@__crt_state_management@@QEAAXA6AXAEAPEAPEA_W@_E@Z 0000000140042b68     libucrtd:environment_initialization.obj
 0002:00001d18       $cppxdata$?try_cor_exit_process@@YAXI@Z 0000000140042d18     libucrtd:exit.obj
 0002:00001d40       $cppxdata$?common_exit@@YAXHW4_crt_exit_cleanup_mode@@W4_crt_exit_return_mode@@@Z 0000000140042d40     libucrtd:exit.obj
 0002:00001d68       $cppxdata$??$__acrt_lock_and_call@V<lambda_6e4b09c48022b2350581041d5f6b0c4c>@@@@YAXW4__acrt_lock_id@@$$QEAV<lambda_6e4b09c48022b2350581041d5f6b0c4c>@@@Z 0000000140042d68     libucrtd:exit.obj
 0002:00001ff0       $cppxdata$??$uninitialize@V<lambda_363eea9039da1e8169e2d060c7fe5cbc>@@@?$dual_state_global@PEAU__crt_locale_data@@@__crt_state_management@@QEAAX$$QEAV<lambda_363eea9039da1e8169e2d060c7fe5cbc>@@@Z 0000000140042ff0     libucrtd:wsetlocale.obj
 0002:00002018       $cppxdata$??$__acrt_lock_and_call@V<lambda_3e16ef9562a7dcce91392c22ab16ea36>@@@@YAXW4__acrt_lock_id@@$$QEAV<lambda_3e16ef9562a7dcce91392c22ab16ea36>@@@Z 0000000140043018     libucrtd:wsetlocale.obj
 0002:000021f8       $cppxdata$??$__acrt_lock_and_call@V<lambda_208ce30acdd7200aa596f2796f4d5154>@@@@YAHW4__acrt_lock_id@@$$QEAV<lambda_208ce30acdd7200aa596f2796f4d5154>@@@Z 00000001400431f8     libucrtd:onexit.obj
 0002:00002220       $cppxdata$??R<lambda_d121dba8a4adeaf3a9819e48611155df>@@QEBAHXZ 0000000140043220     libucrtd:onexit.obj
 0002:00002248       $cppxdata$??$__acrt_lock_and_call@V<lambda_d121dba8a4adeaf3a9819e48611155df>@@@@YAHW4__acrt_lock_id@@$$QEAV<lambda_d121dba8a4adeaf3a9819e48611155df>@@@Z 0000000140043248     libucrtd:onexit.obj
 0002:000022b0       __acrt_initializers        00000001400432b0     libucrtd:initialization.obj
 0002:000023b0       $cppxdata$??$uninitialize@V<lambda_af27fe6ede5d83bbdbd622796c194e9c>@@@?$dual_state_global@PEAU__crt_multibyte_data@@@__crt_state_management@@QEAAX$$QEAV<lambda_af27fe6ede5d83bbdbd622796c194e9c>@@@Z 00000001400433b0     libucrtd:initialization.obj
 0002:000023d8       ?block_use_names@@3QBQEBDB 00000001400433d8     libucrtd:debug_heap.obj
 0002:00002428       $cppxdata$?realloc_dbg_nolock@@YAPEAXQEAXQEA_KHQEBDH_N@Z 0000000140043428     libucrtd:debug_heap.obj
 0002:00002450       $cppxdata$?free_dbg_nolock@@YAXQEAXH@Z 0000000140043450     libucrtd:debug_heap.obj
 0002:00002478       $cppxdata$?dump_all_object_since_nolock@@YAXQEBU_CrtMemState@@@Z 0000000140043478     libucrtd:debug_heap.obj
 0002:000035c0       ?report_type_messages@@3QBQEB_WB 00000001400445c0     libucrtd:dbgrpt.obj
 0002:00003620       ?more_info_string@@3QEB_WEB 0000000140044620     libucrtd:dbgrpt.obj
 0002:0000392e       ?empty_string@?1???$common_message_window@D@@YAHHQEAXQEBD111@Z@4QBDB 000000014004492e     libucrtd:dbgrpt.obj
 0002:00003ba8       ?empty_string@?1???$common_message_window@_W@@YAHHQEAXQEB_W111@Z@4QB_WB 0000000140044ba8     libucrtd:dbgrpt.obj
 0002:00003cb0       $cppxdata$??0?$output_adapter_data@DV?$string_output_adapter@D@__crt_stdio_output@@@__crt_stdio_output@@IEAA@AEBV?$string_output_adapter@D@1@_KQEBDAEAV__crt_cached_ptd_host@@QEAD@Z 0000000140044cb0     libucrtd:output.obj
 0002:00003cd8       $cppxdata$??0?$output_adapter_data@_WV?$string_output_adapter@_W@__crt_stdio_output@@@__crt_stdio_output@@IEAA@AEBV?$string_output_adapter@_W@1@_KQEB_WAEAV__crt_cached_ptd_host@@QEAD@Z 0000000140044cd8     libucrtd:output.obj
 0002:00003d00       $cppxdata$?find_next_state@?$output_processor@DV?$string_output_adapter@D@__crt_stdio_output@@V?$format_validation_base@DV?$string_output_adapter@D@__crt_stdio_output@@@2@@__crt_stdio_output@@AEBA?AW4state@2@DW432@@Z 0000000140044d00     libucrtd:output.obj
 0002:00003d28       $cppxdata$?find_next_state@?$output_processor@_WV?$string_output_adapter@_W@__crt_stdio_output@@V?$format_validation_base@_WV?$string_output_adapter@_W@__crt_stdio_output@@@2@@__crt_stdio_output@@AEBA?AW4state@2@_WW432@@Z 0000000140044d28     libucrtd:output.obj
 0002:00005d88       $cppxdata$?construct_ptd@@YAXQEAU__acrt_ptd@@QEAPEAU__crt_locale_data@@@Z 0000000140046d88     libucrtd:per_thread_data.obj
 0002:00005db0       $cppxdata$??$__acrt_lock_and_call@V<lambda_8d0ee55de4b1038c4002e0adecdf1839>@@@@YAXW4__acrt_lock_id@@$$QEAV<lambda_8d0ee55de4b1038c4002e0adecdf1839>@@@Z 0000000140046db0     libucrtd:per_thread_data.obj
 0002:00005dd8       $cppxdata$??$__acrt_lock_and_call@V<lambda_92619d2358a28f41a33ba319515a20b9>@@@@YAXW4__acrt_lock_id@@$$QEAV<lambda_92619d2358a28f41a33ba319515a20b9>@@@Z 0000000140046dd8     libucrtd:per_thread_data.obj
 0002:00005e00       $cppxdata$?destroy_ptd@@YAXQEAU__acrt_ptd@@@Z 0000000140046e00     libucrtd:per_thread_data.obj
 0002:00005e28       $cppxdata$??$__acrt_lock_and_call@V<lambda_e157831efee4ea0afb0a2ace5dd5fd0d>@@@@YAXW4__acrt_lock_id@@$$QEAV<lambda_e157831efee4ea0afb0a2ace5dd5fd0d>@@@Z 0000000140046e28     libucrtd:per_thread_data.obj
 0002:00005e50       $cppxdata$??$__acrt_lock_and_call@V<lambda_8f455de75cd7d7f24b4096f044d8b9e6>@@@@YAXW4__acrt_lock_id@@$$QEAV<lambda_8f455de75cd7d7f24b4096f044d8b9e6>@@@Z 0000000140046e50     libucrtd:per_thread_data.obj
 0002:00006060       ?errtable@@3QBUerrentry@?A0x31fdb9ec@@B 0000000140047060     libucrtd:errno.obj
 0002:000061f0       $cppxdata$??1?$__crt_win32_buffer@_WU__crt_win32_buffer_internal_dynamic_resizing@@@@QEAA@XZ 00000001400471f0     libucrtd:argv_wildcards.obj
 0002:00006218       $cppxdata$??1?$__crt_win32_buffer@DU__crt_win32_buffer_internal_dynamic_resizing@@@@QEAA@XZ 0000000140047218     libucrtd:argv_wildcards.obj
 0002:00006240       $cppxdata$??$tcspbrk@AEAPEADAEAY02$$CBD@?$__crt_char_traits@D@@SAPEADAEAPEADAEAY02$$CBD@Z 0000000140047240     libucrtd:argv_wildcards.obj
 0002:00006268       $cppxdata$??$expand_argument_wildcards@D@@YAHQEAD0AEAV?$argument_list@D@?A0x5f5c8891@@@Z 0000000140047268     libucrtd:argv_wildcards.obj
 0002:00006688       $cppxdata$??1?$__crt_win32_buffer@DU__crt_win32_buffer_no_resizing@@@@QEAA@XZ 0000000140047688     libucrtd:getmodulefilenamea.obj
 0002:000066b0       ?_mb_locale_names@@3QBQEB_WB 00000001400476b0     libucrtd:mbctype.obj
 0002:00006710       $cppxdata$?setmbcp_internal@@YAHH_NQEAU__acrt_ptd@@QEAPEAU__crt_multibyte_data@@@Z 0000000140047710     libucrtd:mbctype.obj
 0002:00006738       $cppxdata$??$__acrt_lock_and_call@V<lambda_bd5a608237428601b7e45fbdc72b1ae8>@@@@YAXW4__acrt_lock_id@@$$QEAV<lambda_bd5a608237428601b7e45fbdc72b1ae8>@@@Z 0000000140047738     libucrtd:mbctype.obj
 0002:00007b00       ?module_names@?A0x391cf84c@@3QBQEB_WB 0000000140048b00     libucrtd:winapi_thunks.obj
 0002:00008074       ?candidate_modules@?1??try_get_AreFileApisANSI@@YAP6AHXZXZ@4QBW4module_id@?A0x391cf84c@@B 0000000140049074     libucrtd:winapi_thunks.obj
 0002:00008088       ?candidate_modules@?1??try_get_GetActiveWindow@@YAP6APEAUHWND__@@XZXZ@4QBW4module_id@?A0x391cf84c@@B 0000000140049088     libucrtd:winapi_thunks.obj
 0002:000080a0       ?candidate_modules@?1??try_get_GetLastActivePopup@@YAP6APEAUHWND__@@PEAU2@@ZXZ@4QBW4module_id@?A0x391cf84c@@B 00000001400490a0     libucrtd:winapi_thunks.obj
 0002:000080c0       ?candidate_modules@?1??try_get_GetProcessWindowStation@@YAP6APEAUHWINSTA__@@XZXZ@4QBW4module_id@?A0x391cf84c@@B 00000001400490c0     libucrtd:winapi_thunks.obj
 0002:000080e0       ?candidate_modules@?1??try_get_GetUserObjectInformationW@@YAP6AHPEAXH0KPEAK@ZXZ@4QBW4module_id@?A0x391cf84c@@B 00000001400490e0     libucrtd:winapi_thunks.obj
 0002:00008108       ?candidate_modules@?1??try_get_InitializeCriticalSectionEx@@YAP6AHPEAU_RTL_CRITICAL_SECTION@@KK@ZXZ@4QBW4module_id@?A0x391cf84c@@B 0000000140049108     libucrtd:winapi_thunks.obj
 0002:00008110       ?candidate_modules@?1??try_get_LCMapStringEx@@YAP6AHPEB_WK0HPEA_WHPEAU_nlsversioninfo@@PEAX_J@ZXZ@4QBW4module_id@?A0x391cf84c@@B 0000000140049110     libucrtd:winapi_thunks.obj
 0002:00008128       ?candidate_modules@?1??try_get_LocaleNameToLCID@@YAP6AKPEB_WK@ZXZ@4QBW4module_id@?A0x391cf84c@@B 0000000140049128     libucrtd:winapi_thunks.obj
 0002:00008148       ?candidate_modules@?1??try_get_MessageBoxA@@YAP6AHPEAUHWND__@@PEBD1I@ZXZ@4QBW4module_id@?A0x391cf84c@@B 0000000140049148     libucrtd:winapi_thunks.obj
 0002:00008160       ?candidate_modules@?1??try_get_MessageBoxW@@YAP6AHPEAUHWND__@@PEB_W1I@ZXZ@4QBW4module_id@?A0x391cf84c@@B 0000000140049160     libucrtd:winapi_thunks.obj
 0002:00008174       ?candidate_modules@?1??try_get_AppPolicyGetProcessTerminationMethod@@YAP6AJPEAXPEAW4AppPolicyProcessTerminationMethod@@@ZXZ@4QBW4module_id@?A0x391cf84c@@B 0000000140049174     libucrtd:winapi_thunks.obj
 0002:000081a0       ?candidate_modules@?1??try_get_AppPolicyGetShowDeveloperDiagnostic@@YAP6AJPEAXPEAW4AppPolicyShowDeveloperDiagnostic@@@ZXZ@4QBW4module_id@?A0x391cf84c@@B 00000001400491a0     libucrtd:winapi_thunks.obj
 0002:000081cc       ?candidate_modules@?1??try_get_AppPolicyGetWindowingModel@@YAP6AJPEAXPEAW4AppPolicyWindowingModel@@@ZXZ@4QBW4module_id@?A0x391cf84c@@B 00000001400491cc     libucrtd:winapi_thunks.obj
 0002:000081f0       $cppxdata$??$__acrt_lock_and_call@V<lambda_44731a7d0e6d81c3e6aa82d741081786>@@@@YAP6AXH@ZW4__acrt_lock_id@@$$QEAV<lambda_44731a7d0e6d81c3e6aa82d741081786>@@@Z 00000001400491f0     libucrtd:signal.obj
 0002:00009160       ?strings@?1??fp_format_nan_or_infinity@@YAHW4__acrt_fp_class@@_NPEAD_K1@Z@4QAY03QEBDA 000000014004a160     libucrtd:cvt.obj
 0002:00009c40       $cppxdata$?shortsort@@YAXPEAD0_KP6AHPEBX2@Z@Z 000000014004ac40     libucrtd:qsort.obj
 0002:0000a020       ?LcidToLocaleNameTable@?A0x881e4c05@@3QBULcidToLocaleName@1@B 000000014004b020     libucrtd:lcidtoname_downlevel.obj
 0002:0000ba70       ?LocaleNameToIndexTable@?A0x881e4c05@@3QBULocaleNameIndex@1@B 000000014004ca70     libucrtd:lcidtoname_downlevel.obj
 0002:0000d380       $cppxdata$?common_flush_all@@YAH_N@Z 000000014004e380     libucrtd:fflush.obj
 0002:0000d3a8       $cppxdata$??$__acrt_lock_stream_and_call@V<lambda_c5860995281e5c4ce005b3de8f5874ee>@@@@YAXQEAU_iobuf@@$$QEAV<lambda_c5860995281e5c4ce005b3de8f5874ee>@@@Z 000000014004e3a8     libucrtd:fflush.obj
 0002:0000d3d0       $cppxdata$??$__acrt_lock_and_call@V<lambda_ab61a845afdef5b7c387490eaf3616ee>@@@@YAXW4__acrt_lock_id@@$$QEAV<lambda_ab61a845afdef5b7c387490eaf3616ee>@@@Z 000000014004e3d0     libucrtd:fflush.obj
 0002:0000d3f8       $cppxdata$?_mbstowcs_l_helper@@YA_KPEA_WPEBD_KAEAV__crt_cached_ptd_host@@@Z 000000014004e3f8     libucrtd:mbstowcs.obj
 0002:0000e8f8       $cppxdata$??$__acrt_lowio_lock_fh_and_call@V<lambda_3e4146214822e0ea86c47ff907aef2ff>@@@@YAHH$$QEAV<lambda_3e4146214822e0ea86c47ff907aef2ff>@@@Z 000000014004f8f8     libucrtd:commit.obj
 0002:0000e990       $cppxdata$?write_double_translated_ansi_nolock@@YA?AUwrite_result@?A0x17268360@@HQEBDIAEAV__crt_cached_ptd_host@@@Z 000000014004f990     libucrtd:write.obj
 0002:0000ec40       __real_ninf                000000014004fc40     libucrtd:log10.obj
 0002:0000ec50       __real_inf                 000000014004fc50     libucrtd:log10.obj
 0002:0000ec60       __real_neg_qnan            000000014004fc60     libucrtd:log10.obj
 0002:0000ec70       __real_qnanbit             000000014004fc70     libucrtd:log10.obj
 0002:0000ec80       __int_1023                 000000014004fc80     libucrtd:log10.obj
 0002:0000ec90       __mask_001                 000000014004fc90     libucrtd:log10.obj
 0002:0000eca0       __mask_mant                000000014004fca0     libucrtd:log10.obj
 0002:0000ecb0       __mask_mant_top8           000000014004fcb0     libucrtd:log10.obj
 0002:0000ecc0       __mask_mant9               000000014004fcc0     libucrtd:log10.obj
 0002:0000ecd0       __real_log10_e             000000014004fcd0     libucrtd:log10.obj
 0002:0000ece0       __real_log10_e_lead        000000014004fce0     libucrtd:log10.obj
 0002:0000ecf0       __real_log10_e_tail        000000014004fcf0     libucrtd:log10.obj
 0002:0000ed00       __real_log10_2_lead        000000014004fd00     libucrtd:log10.obj
 0002:0000ed10       __real_log10_2_tail        000000014004fd10     libucrtd:log10.obj
 0002:0000ed20       __real_two                 000000014004fd20     libucrtd:log10.obj
 0002:0000ed30       __real_one                 000000014004fd30     libucrtd:log10.obj
 0002:0000ed40       __real_half                000000014004fd40     libucrtd:log10.obj
 0002:0000ed50       __mask_100                 000000014004fd50     libucrtd:log10.obj
 0002:0000ed60       __real_1_over_512          000000014004fd60     libucrtd:log10.obj
 0002:0000ed70       __real_1_over_2            000000014004fd70     libucrtd:log10.obj
 0002:0000ed80       __real_1_over_3            000000014004fd80     libucrtd:log10.obj
 0002:0000ed90       __real_1_over_4            000000014004fd90     libucrtd:log10.obj
 0002:0000eda0       __real_1_over_5            000000014004fda0     libucrtd:log10.obj
 0002:0000edb0       __real_1_over_6            000000014004fdb0     libucrtd:log10.obj
 0002:0000edc0       __real_neg_1023            000000014004fdc0     libucrtd:log10.obj
 0002:0000edd0       __mask_2045                000000014004fdd0     libucrtd:log10.obj
 0002:0000ede0       __real_threshold           000000014004fde0     libucrtd:log10.obj
 0002:0000edf0       __real_near_one_lt         000000014004fdf0     libucrtd:log10.obj
 0002:0000ee00       __real_near_one_gt         000000014004fe00     libucrtd:log10.obj
 0002:0000ee10       __real_min_norm            000000014004fe10     libucrtd:log10.obj
 0002:0000ee20       __real_notsign             000000014004fe20     libucrtd:log10.obj
 0002:0000ee30       __real_ca1                 000000014004fe30     libucrtd:log10.obj
 0002:0000ee40       __real_ca2                 000000014004fe40     libucrtd:log10.obj
 0002:0000ee50       __real_ca3                 000000014004fe50     libucrtd:log10.obj
 0002:0000ee60       __real_ca4                 000000014004fe60     libucrtd:log10.obj
 0002:0000ee70       __mask_lower               000000014004fe70     libucrtd:log10.obj
 0002:0000ee80       __flag_x_zero              000000014004fe80     libucrtd:log10.obj
 0002:0000ee84       __flag_x_neg               000000014004fe84     libucrtd:log10.obj
 0002:0000ee88       __flag_x_nan               000000014004fe88     libucrtd:log10.obj
 0002:000109a8       $cppxdata$??$__acrt_lowio_lock_fh_and_call@V<lambda_af29824b49a67d335554598d6cad2be6>@@@@YAHH$$QEAV<lambda_af29824b49a67d335554598d6cad2be6>@@@Z 00000001400519a8     libucrtd:close.obj
 0002:00010a50       $cppxdata$??$console_output_reopen_and_retry@V<lambda_61c1b8a38cedca4df5fdc542e6ccae6d>@@@@YAHAEBV<lambda_61c1b8a38cedca4df5fdc542e6ccae6d>@@@Z 0000000140051a50     libucrtd:initcon.obj
 0002:00010a90       __real@433fffffffffffff    0000000140051a90     libucrtd:fpsr.obj
 0002:00010a98       __real@c33fffffffffffff    0000000140051a98     libucrtd:fpsr.obj
 0002:000110f0       $unwind$WinMain            00000001400520f0     win32_main.obj
 0002:00011104       $unwind$?Win32MainWindowCallBack@@YA_JPEAUHWND__@@I_K_J@Z 0000000140052104     win32_main.obj
 0002:00011114       $unwind$?V2i@@YA?ATv2i@@HH@Z 0000000140052114     win32_main.obj
 0002:00011124       $unwind$_errno             0000000140052124     libucrtd:errno.obj
 0002:00011124       $unwind$?internal_getptd_noexit@@YAPEAU__acrt_ptd@@XZ 0000000140052124     libucrtd:per_thread_data.obj
 0002:00011124       $unwind$__acrt_initialize_locks 0000000140052124     libucrtd:locks.obj
 0002:00011124       $unwind$__vcrt_initialize_locks 0000000140052124     libvcruntimed:locks.obj
 0002:00011124       $unwind$__acrt_can_show_message_box 0000000140052124     libucrtd:winapi_thunks.obj
 0002:00011124       $unwind$__doserrno         0000000140052124     libucrtd:errno.obj
 0002:00011124       $unwind$__vcrt_uninitialize_locks 0000000140052124     libvcruntimed:locks.obj
 0002:00011124       $unwind$__scrt_is_managed_app 0000000140052124     LIBCMTD:utility_desktop.obj
 0002:00011124       $unwind$?invoke_main@@YAHXZ 0000000140052124     LIBCMTD:exe_winmain.obj
 0002:00011124       $unwind$?try_get_ptd_head@@YAPEAU__acrt_ptd@@XZ 0000000140052124     libucrtd:per_thread_data.obj
 0002:00011124       $unwind$?get_machine_sse_control@@YA?AW4__acrt_fenv_machine_sse_control@@XZ 0000000140052124     libucrtd:_fenvutils.obj
 0002:00011124       $unwind$?set_commode@__scrt_file_policy@@SAXXZ 0000000140052124     LIBCMTD:exe_winmain.obj
 0002:00011124       $unwind$__vcrt_getptd      0000000140052124     libvcruntimed:per_thread_data.obj
 0002:00011124       $unwind$_guard_icall_checks_enforced 0000000140052124     LIBCMTD:guard_support.obj
 0002:00011124       $unwind$?should_call_terminate_process@@YA_NXZ 0000000140052124     libucrtd:exit.obj
 0002:00011124       $unwind$_clearfp           0000000140052124     libucrtd:ieee.obj
 0002:00011124       $unwind$_statfp            0000000140052124     libucrtd:fpctrl.obj
 0002:00011124       $unwind$__acrt_getptd_head 0000000140052124     libucrtd:per_thread_data.obj
 0002:00011124       $unwind$__acrt_getptd      0000000140052124     libucrtd:per_thread_data.obj
 0002:00011124       $unwind$__acrt_initialize_multibyte 0000000140052124     libucrtd:mbctype.obj
 0002:00011124       $unwind$?Win32GetClock@@YA?AT_LARGE_INTEGER@@XZ 0000000140052124     win32_main.obj
 0002:00011124       $unwind$__acrt_uninitialize_stdio 0000000140052124     libucrtd:_file.obj
 0002:00011124       $unwind$__scrt_initialize_default_local_stdio_options 0000000140052124     LIBCMTD:default_local_stdio_options.obj
 0002:00011124       $unwind$?initialize_multibyte@@YAHXZ 0000000140052124     libucrtd:multibyte_initializer.obj
 0002:00011124       $unwind$?is_managed_app@@YA_NXZ 0000000140052124     libucrtd:exit.obj
 0002:00011124       $unwind$initialize_pointers 0000000140052124     libucrtd:initialization.obj
 0002:00011124       $unwind$__acrt_fenv_get_status 0000000140052124     libucrtd:_fenvutils.obj
 0002:00011124       $unwind$__security_init_cookie 0000000140052124     LIBCMTD:gs_support.obj
 0002:00011124       $unwind$__acrt_fenv_get_control 0000000140052124     libucrtd:_fenvutils.obj
 0002:00011124       $unwind$abort              0000000140052124     libucrtd:abort.obj
 0002:00011124       $unwind$?should_write_error_to_console@@YA_NXZ 0000000140052124     libucrtd:report_runtime_error.obj
 0002:00011124       $unwind$__acrt_update_thread_multibyte_data 0000000140052124     libucrtd:mbctype.obj
 0002:00011124       $unwind$__acrt_has_user_matherr 0000000140052124     libucrtd:matherr.obj
 0002:00011124       $unwind$__acrt_AreFileApisANSI 0000000140052124     libucrtd:winapi_thunks.obj
 0002:00011124       $unwind$_invalid_parameter_noinfo 0000000140052124     libucrtd:invalid_parameter.obj
 0002:00011124       $unwind$_clrfp             0000000140052124     libucrtd:fpctrl.obj
 0002:00011124       $unwind$?get_machine_sse_status@@YA?AW4__acrt_fenv_machine_sse_status@@XZ 0000000140052124     libucrtd:_fenvutils.obj
 0002:00011124       $unwind$__vcrt_initialize_pure_virtual_call_handler 0000000140052124     libvcruntimed:purevirt_data.obj
 0002:0001112c       $unwind$?Win32GetLastFileTime@@YA?AU_FILETIME@@PEAD@Z 000000014005212c     win32_main.obj
 0002:0001113c       $unwind$?Win32LoadDemoCode@@YAXPEAUprog_demo_code@@@Z 000000014005213c     win32_main.obj
 0002:0001114c       $unwind$??$TypeMatchHelper@V__FrameHandler3@@@@YAHPEBU_s_HandlerType@@PEBU_s_CatchableType@@PEBU_s_ThrowInfo@@@Z 000000014005214c     libvcruntimed:frame.obj
 0002:0001114c       $unwind$__ascii_wcsnicmp   000000014005214c     libucrtd:wcsnicmp.obj
 0002:0001114c       $unwind$__GSHandlerCheckCommon 000000014005214c     LIBCMTD:gshandler.obj
 0002:0001114c       $unwind$??$ensure_buffer_is_big_enough@D@formatting_buffer@__crt_stdio_output@@QEAA_N_KAEAV__crt_cached_ptd_host@@@Z 000000014005214c     libucrtd:output.obj
 0002:0001114c       $unwind$??$ensure_buffer_is_big_enough@_W@formatting_buffer@__crt_stdio_output@@QEAA_N_KAEAV__crt_cached_ptd_host@@@Z 000000014005214c     libucrtd:output.obj
 0002:00011154       $unwind$strncpy_s          0000000140052154     libucrtd:strncpy_s.obj
 0002:00011154       $unwind$??$tcsncpy_s@PEAD_KAEBQEBDAEB_K@?$__crt_char_traits@D@@SAH$$QEAPEAD$$QEA_KAEBQEBDAEB_K@Z 0000000140052154     libucrtd:argv_wildcards.obj
 0002:00011154       $unwind$??$message_box@PEAUHWND__@@AEBQEB_WAEBQEB_WAEBI@?$__crt_char_traits@_W@@SAH$$QEAPEAUHWND__@@AEBQEB_W1AEBI@Z 0000000140052154     libucrtd:crtmbox.obj
 0002:00011154       $unwind$??$tcsncpy_s@AEAPEAD_KAEAPEADAEB_K@?$__crt_char_traits@D@@SAHAEAPEAD$$QEA_K0AEB_K@Z 0000000140052154     libucrtd:argv_wildcards.obj
 0002:00011154       $unwind$_invoke_watson     0000000140052154     libucrtd:invalid_parameter.obj
 0002:00011154       $unwind$__GSHandlerCheck   0000000140052154     LIBCMTD:gshandler.obj
 0002:00011154       $unwind$??$message_box@$$TAEBQEB_WAEBQEB_WK@?$__crt_char_traits@_W@@SAH$$QEA$$TAEBQEB_W1$$QEAK@Z 0000000140052154     libucrtd:crtmbox.obj
 0002:00011154       $unwind$?BuildCatchObject@__FrameHandler3@@SAXPEAUEHExceptionRecord@@PEAXPEBU_s_HandlerType@@PEBU_s_CatchableType@@@Z 0000000140052154     libvcruntimed:frame.obj
 0002:00011154       $unwind$?shift_bytes@@YAXQEAD_K0H@Z 0000000140052154     libucrtd:cvt.obj
 0002:00011154       $unwind$wcsncpy_s          0000000140052154     libucrtd:wcsncpy_s.obj
 0002:00011154       $unwind$??$tcsncpy_s@PEADAEB_KAEBQEBDAEB_K@?$__crt_char_traits@D@@SAH$$QEAPEADAEB_KAEBQEBD1@Z 0000000140052154     libucrtd:argv_wildcards.obj
 0002:00011160       $xdatasym                  0000000140052160     LIBCMTD:amdsecgs.obj
 0002:00011164       $unwind$__fpecode          0000000140052164     libucrtd:signal.obj
 0002:00011164       $unwind$__acrt_initialize_ptd 0000000140052164     libucrtd:per_thread_data.obj
 0002:00011164       $unwind$initialize_c       0000000140052164     libucrtd:initialization.obj
 0002:00011164       $unwind$__acrt_get_windowing_model_policy 0000000140052164     libucrtd:win_policies.obj
 0002:00011164       $unwind$__acrt_get_developer_information_policy 0000000140052164     libucrtd:win_policies.obj
 0002:00011164       $unwind$__acrt_getptd_noexit 0000000140052164     libucrtd:per_thread_data.obj
 0002:00011164       $unwind$__acrt_get_process_end_policy 0000000140052164     libucrtd:win_policies.obj
 0002:00011164       $unwind$initialize_global_variables 0000000140052164     libucrtd:initialization.obj
 0002:00011164       $unwind$__acrt_initialize_heap 0000000140052164     libucrtd:heap_handle.obj
 0002:00011164       $unwind$__dcrt_uninitialize_environments_nolock 0000000140052164     libucrtd:environment_initialization.obj
 0002:00011164       $unwind$?try_get_AppPolicyGetWindowingModel@@YAP6AJPEAXPEAW4AppPolicyWindowingModel@@@ZXZ 0000000140052164     libucrtd:winapi_thunks.obj
 0002:00011164       $unwind$__scrt_initialize_mta 0000000140052164     LIBCMTD:utility_desktop.obj
 0002:00011164       $unwind$?try_get_AppPolicyGetShowDeveloperDiagnostic@@YAP6AJPEAXPEAW4AppPolicyShowDeveloperDiagnostic@@@ZXZ 0000000140052164     libucrtd:winapi_thunks.obj
 0002:00011164       $unwind$?__scrt_initialize_type_info@@YAXXZ 0000000140052164     LIBCMTD:tncleanup.obj
 0002:00011164       $unwind$?try_get_AppPolicyGetProcessTerminationMethod@@YAP6AJPEAXPEAW4AppPolicyProcessTerminationMethod@@@ZXZ 0000000140052164     libucrtd:winapi_thunks.obj
 0002:00011164       $unwind$__scrt_set_unhandled_exception_filter 0000000140052164     LIBCMTD:utility_desktop.obj
 0002:00011164       $unwind$_get_narrow_winmain_command_line 0000000140052164     libucrtd:argv_winmain.obj
 0002:00011164       $unwind$__report_rangecheckfailure 0000000140052164     LIBCMTD:gs_report.obj
 0002:00011164       $unwind$__dcrt_lowio_ensure_console_output_initialized 0000000140052164     libucrtd:initcon.obj
 0002:00011164       $unwind$_GetImageBase      0000000140052164     libvcruntimed:risctrnsctrl.obj
 0002:00011164       $unwind$?try_get_MessageBoxW@@YAP6AHPEAUHWND__@@PEB_W1I@ZXZ 0000000140052164     libucrtd:winapi_thunks.obj
 0002:00011164       $unwind$?try_get_MessageBoxA@@YAP6AHPEAUHWND__@@PEBD1I@ZXZ 0000000140052164     libucrtd:winapi_thunks.obj
 0002:00011164       $unwind$?try_get_LocaleNameToLCID@@YAP6AKPEB_WK@ZXZ 0000000140052164     libucrtd:winapi_thunks.obj
 0002:00011164       $unwind$?try_get_LCMapStringEx@@YAP6AHPEB_WK0HPEA_WHPEAU_nlsversioninfo@@PEAX_J@ZXZ 0000000140052164     libucrtd:winapi_thunks.obj
 0002:00011164       $unwind$?try_get_InitializeCriticalSectionEx@@YAP6AHPEAU_RTL_CRITICAL_SECTION@@KK@ZXZ 0000000140052164     libucrtd:winapi_thunks.obj
 0002:00011164       $unwind$?try_get_FlsAlloc@@YAP6AKP6AXPEAX@Z@ZXZ 0000000140052164     libvcruntimed:winapi_downlevel.obj
 0002:00011164       $unwind$?try_get_GetUserObjectInformationW@@YAP6AHPEAXH0KPEAK@ZXZ 0000000140052164     libucrtd:winapi_thunks.obj
 0002:00011164       $unwind$__acrt_initialize  0000000140052164     libucrtd:initialization.obj
 0002:00011164       $unwind$?try_get_GetProcessWindowStation@@YAP6APEAUHWINSTA__@@XZXZ 0000000140052164     libucrtd:winapi_thunks.obj
 0002:00011164       $unwind$WinMainCRTStartup  0000000140052164     LIBCMTD:exe_winmain.obj
 0002:00011164       $unwind$?try_get_FlsFree@@YAP6AHK@ZXZ 0000000140052164     libvcruntimed:winapi_downlevel.obj
 0002:00011164       $unwind$_flushall          0000000140052164     libucrtd:fflush.obj
 0002:00011164       $unwind$?try_get_GetLastActivePopup@@YAP6APEAUHWND__@@PEAU1@@ZXZ 0000000140052164     libucrtd:winapi_thunks.obj
 0002:00011164       $unwind$?__scrt_common_main@@YAHXZ 0000000140052164     LIBCMTD:exe_winmain.obj
 0002:00011164       $unwind$_initialize_narrow_environment 0000000140052164     libucrtd:environment_initialization.obj
 0002:00011164       $unwind$?try_get_FlsGetValue@@YAP6APEAXK@ZXZ 0000000140052164     libvcruntimed:winapi_downlevel.obj
 0002:00011164       $unwind$fegetround         0000000140052164     libucrtd:fegetround.obj
 0002:00011164       $unwind$?try_get_GetActiveWindow@@YAP6APEAUHWND__@@XZXZ 0000000140052164     libucrtd:winapi_thunks.obj
 0002:00011164       $unwind$_query_new_mode    0000000140052164     libucrtd:new_mode.obj
 0002:00011164       $unwind$?try_get_AreFileApisANSI@@YAP6AHXZXZ 0000000140052164     libucrtd:winapi_thunks.obj
 0002:00011164       $unwind$__acrt_initialize_command_line 0000000140052164     libucrtd:argv_data.obj
 0002:00011164       $unwind$?pre_cpp_initialization@@YAXXZ 0000000140052164     LIBCMTD:exe_winmain.obj
 0002:00011164       $unwind$?post_pgo_initialization@@YAHXZ 0000000140052164     LIBCMTD:exe_winmain.obj
 0002:00011164       $unwind$?pre_c_initialization@@YAHXZ 0000000140052164     LIBCMTD:exe_winmain.obj
 0002:00011164       $unwind$?set_fmode@__scrt_file_policy@@SAXXZ 0000000140052164     LIBCMTD:exe_winmain.obj
 0002:00011164       $unwind$__vcrt_uninitialize_ptd 0000000140052164     libvcruntimed:per_thread_data.obj
 0002:00011164       $unwind$__vcrt_initialize_ptd 0000000140052164     libvcruntimed:per_thread_data.obj
 0002:00011164       $unwind$__dcrt_terminate_console_output 0000000140052164     libucrtd:initcon.obj
 0002:00011164       $unwind$?set_app_type@__scrt_winmain_policy@@SAXXZ 0000000140052164     LIBCMTD:exe_winmain.obj
 0002:00011164       $unwind$??$get_environment_from_os@$$V@?$__crt_char_traits@D@@SAPEADXZ 0000000140052164     libucrtd:environment_initialization.obj
 0002:00011164       $unwind$?try_get_FlsSetValue@@YAP6AHKPEAX@ZXZ 0000000140052164     libvcruntimed:winapi_downlevel.obj
 0002:00011164       $unwind$?initialize_environment@__scrt_narrow_environment_policy@@SAHXZ 0000000140052164     LIBCMTD:exe_winmain.obj
 0002:00011164       $unwind$?try_get_InitializeCriticalSectionEx@@YAP6AHPEAU_RTL_CRITICAL_SECTION@@KK@ZXZ 0000000140052164     libvcruntimed:winapi_downlevel.obj
 0002:00011164       $unwind$_cexit             0000000140052164     libucrtd:exit.obj
 0002:00011164       $unwind$_c_exit            0000000140052164     libucrtd:exit.obj
 0002:00011164       $unwind$__vcrt_initialize  0000000140052164     libvcruntimed:initialization.obj
 0002:00011164       $unwind$_GetThrowImageBase 0000000140052164     libvcruntimed:risctrnsctrl.obj
 0002:00011164       $unwind$?configure_argv@__scrt_narrow_argv_policy@@SAHXZ 0000000140052164     LIBCMTD:exe_winmain.obj
 0002:0001116c       $unwind$?__scrt_common_main_seh@@YAHXZ 000000014005216c     LIBCMTD:exe_winmain.obj
 0002:0001118c       $unwind$?fin$0@?0???$?RV<lambda_842d9ff0dc9ef11c61343bbaebe7f885>@@AEAV<lambda_c5860995281e5c4ce005b3de8f5874ee>@@V<lambda_d90129c13df834fdcbf8d2b88dafcf2d>@@@?$__crt_seh_guarded_call@X@@QEAAX$$QEAV<lambda_842d9ff0dc9ef11c61343bbaebe7f885>@@AEAV<lambda_c5860995281e5c4ce005b3de8f5874ee>@@$$QEAV<lambda_d90129c13df834fdcbf8d2b88dafcf2d>@@@Z@4HA 000000014005218c     libucrtd:fflush.obj
 0002:0001118c       $unwind$?fin$0@?0???$?RV<lambda_efa02eb69bf647d2f7ff0dd6f1103f72>@@AEAV<lambda_bd5a608237428601b7e45fbdc72b1ae8>@@V<lambda_728235dc0fc2b1f82d1fa5b3e7102d8f>@@@?$__crt_seh_guarded_call@X@@QEAAX$$QEAV<lambda_efa02eb69bf647d2f7ff0dd6f1103f72>@@AEAV<lambda_bd5a608237428601b7e45fbdc72b1ae8>@@$$QEAV<lambda_728235dc0fc2b1f82d1fa5b3e7102d8f>@@@Z@4HA 000000014005218c     libucrtd:mbctype.obj
 0002:0001118c       $unwind$?fin$1@?0??FrameUnwindToState@__FrameHandler3@@SAXPEA_KPEAU_xDISPATCHER_CONTEXT@@PEBU_s_FuncInfo@@H@Z@4HA 000000014005218c     libvcruntimed:frame.obj
 0002:0001118c       $unwind$?fin$0@?0???$?RV<lambda_80060f20ac3990516b753a27f211934c>@@AEAV<lambda_208ce30acdd7200aa596f2796f4d5154>@@V<lambda_fd91b99c0687e8936f1d70d7d9b78e69>@@@?$__crt_seh_guarded_call@H@@QEAAH$$QEAV<lambda_80060f20ac3990516b753a27f211934c>@@AEAV<lambda_208ce30acdd7200aa596f2796f4d5154>@@$$QEAV<lambda_fd91b99c0687e8936f1d70d7d9b78e69>@@@Z@4HA 000000014005218c     libucrtd:onexit.obj
 0002:0001118c       $unwind$__scrt_is_nonwritable_in_current_image$filt$0 000000014005218c     LIBCMTD:utility.obj
 0002:0001118c       $unwind$?fin$0@?0???$?RV<lambda_19eaff14c5fe7be5b1b106a862eb1091>@@AEAV<lambda_af29824b49a67d335554598d6cad2be6>@@V<lambda_3ce37f5b621ab310299ea5f68cbdf3bb>@@@?$__crt_seh_guarded_call@H@@QEAAH$$QEAV<lambda_19eaff14c5fe7be5b1b106a862eb1091>@@AEAV<lambda_af29824b49a67d335554598d6cad2be6>@@$$QEAV<lambda_3ce37f5b621ab310299ea5f68cbdf3bb>@@@Z@4HA 000000014005218c     libucrtd:close.obj
 0002:0001118c       $unwind$_query_new_handler$fin$0 000000014005218c     libucrtd:new_handler.obj
 0002:0001118c       $unwind$?fin$0@?0???$?RV<lambda_d80eeec6fff315bfe5c115232f3240e3>@@AEAV<lambda_6e4b09c48022b2350581041d5f6b0c4c>@@V<lambda_2358e3775559c9db80273638284d5e45>@@@?$__crt_seh_guarded_call@X@@QEAAX$$QEAV<lambda_d80eeec6fff315bfe5c115232f3240e3>@@AEAV<lambda_6e4b09c48022b2350581041d5f6b0c4c>@@$$QEAV<lambda_2358e3775559c9db80273638284d5e45>@@@Z@4HA 000000014005218c     libucrtd:exit.obj
 0002:0001118c       $unwind$?fin$1@?0??CxxCallCatchBlock@__FrameHandler3@@SAPEAXPEAU_EXCEPTION_RECORD@@@Z@4HA 000000014005218c     libvcruntimed:frame.obj
 0002:0001118c       $unwind$?dtor$0@?0???R<lambda_d121dba8a4adeaf3a9819e48611155df>@@QEBAHXZ@4HA 000000014005218c     libucrtd:onexit.obj
 0002:0001118c       $unwind$terminate$filt$0   000000014005218c     libucrtd:terminate.obj
 0002:0001118c       $unwind$?fin$0@?0??update_thread_multibyte_data_internal@@YAPEAU__crt_multibyte_data@@QEAU__acrt_ptd@@QEAPEAU1@@Z@4HA 000000014005218c     libucrtd:mbctype.obj
 0002:0001118c       $unwind$?fin$0@?0???$?RV<lambda_410d79af7f07d98d83a3f525b3859a53>@@AEAV<lambda_3e16ef9562a7dcce91392c22ab16ea36>@@V<lambda_38119f0e861e05405d8a144b9b982f0a>@@@?$__crt_seh_guarded_call@X@@QEAAX$$QEAV<lambda_410d79af7f07d98d83a3f525b3859a53>@@AEAV<lambda_3e16ef9562a7dcce91392c22ab16ea36>@@$$QEAV<lambda_38119f0e861e05405d8a144b9b982f0a>@@@Z@4HA 000000014005218c     libucrtd:wsetlocale.obj
 0002:0001118c       $unwind$?fin$0@?0???$?RV<lambda_450d765d439847d4c735a33c368b5fc0>@@AEAV<lambda_44731a7d0e6d81c3e6aa82d741081786>@@V<lambda_601a2a7da3b7a96e9554ac7215c4b07c>@@@?$__crt_seh_guarded_call@P6AXH@Z@@QEAAP6AXH@Z$$QEAV<lambda_450d765d439847d4c735a33c368b5fc0>@@AEAV<lambda_44731a7d0e6d81c3e6aa82d741081786>@@$$QEAV<lambda_601a2a7da3b7a96e9554ac7215c4b07c>@@@Z@4HA 000000014005218c     libucrtd:signal.obj
 0002:0001118c       $unwind$?fin$0@?0???$?RV<lambda_7d29013d608e9f25a034de83c9b9e983>@@AEAV<lambda_3e4146214822e0ea86c47ff907aef2ff>@@V<lambda_b869e5a4e1069fcb5c3da79c0d999133>@@@?$__crt_seh_guarded_call@H@@QEAAH$$QEAV<lambda_7d29013d608e9f25a034de83c9b9e983>@@AEAV<lambda_3e4146214822e0ea86c47ff907aef2ff>@@$$QEAV<lambda_b869e5a4e1069fcb5c3da79c0d999133>@@@Z@4HA 000000014005218c     libucrtd:commit.obj
 0002:0001118c       $unwind$?filt$0@?0???$BuildCatchObjectHelperInternal@V__FrameHandler3@@@@YAHPEAUEHExceptionRecord@@PEAXPEBU_s_HandlerType@@PEBU_s_CatchableType@@@Z@4HA 000000014005218c     libvcruntimed:frame.obj
 0002:0001118c       $unwind$_IsNonwritableInCurrentImage$filt$0 000000014005218c     LIBCMTD:pesect.obj
 0002:0001118c       $unwind$?filt$0@?0???$BuildCatchObjectInternal@V__FrameHandler3@@@@YAXPEAUEHExceptionRecord@@PEAXPEBU_s_HandlerType@@PEBU_s_CatchableType@@@Z@4HA 000000014005218c     libvcruntimed:frame.obj
 0002:0001118c       $unwind$__acrt_update_thread_locale_data$fin$0 000000014005218c     libucrtd:locale_refcounting.obj
 0002:0001118c       $unwind$?filt$0@?0??FrameUnwindToState@__FrameHandler3@@SAXPEA_KPEAU_xDISPATCHER_CONTEXT@@PEBU_s_FuncInfo@@H@Z@4HA 000000014005218c     libvcruntimed:frame.obj
 0002:0001118c       $unwind$?fin$0@?0???$?RV<lambda_0ae27a3a962d80f24befdcbee591983d>@@AEAV<lambda_8d0ee55de4b1038c4002e0adecdf1839>@@V<lambda_dc504788e8f1664fe9b84e20bfb512f2>@@@?$__crt_seh_guarded_call@X@@QEAAX$$QEAV<lambda_0ae27a3a962d80f24befdcbee591983d>@@AEAV<lambda_8d0ee55de4b1038c4002e0adecdf1839>@@$$QEAV<lambda_dc504788e8f1664fe9b84e20bfb512f2>@@@Z@4HA 000000014005218c     libucrtd:per_thread_data.obj
 0002:0001118c       $unwind$_fcloseall$fin$0   000000014005218c     libucrtd:closeall.obj
 0002:0001118c       $unwind$_free_dbg$fin$0    000000014005218c     libucrtd:debug_heap.obj
 0002:0001118c       $unwind$?fin$0@?0???$?RV<lambda_886d6c58226a84441f68b9f2b8217b83>@@AEAV<lambda_ab61a845afdef5b7c387490eaf3616ee>@@V<lambda_f7f22ab5edc0698d5f6905b0d3f44752>@@@?$__crt_seh_guarded_call@X@@QEAAX$$QEAV<lambda_886d6c58226a84441f68b9f2b8217b83>@@AEAV<lambda_ab61a845afdef5b7c387490eaf3616ee>@@$$QEAV<lambda_f7f22ab5edc0698d5f6905b0d3f44752>@@@Z@4HA 000000014005218c     libucrtd:fflush.obj
 0002:0001118c       $unwind$?fin$0@?0???$?RV<lambda_aa87e3671a710a21b5dc78c0bdf72e11>@@AEAV<lambda_92619d2358a28f41a33ba319515a20b9>@@V<lambda_6992ecaafeb10aed2b74cb1fae11a551>@@@?$__crt_seh_guarded_call@X@@QEAAX$$QEAV<lambda_aa87e3671a710a21b5dc78c0bdf72e11>@@AEAV<lambda_92619d2358a28f41a33ba319515a20b9>@@$$QEAV<lambda_6992ecaafeb10aed2b74cb1fae11a551>@@@Z@4HA 000000014005218c     libucrtd:per_thread_data.obj
 0002:0001118c       $unwind$?fin$0@?0???$?RV<lambda_74a0ef281e44d15e1136f792f539efb3>@@AEAV<lambda_e157831efee4ea0afb0a2ace5dd5fd0d>@@V<lambda_04ddeca75b7c13fd67716e8dfcef87ee>@@@?$__crt_seh_guarded_call@X@@QEAAX$$QEAV<lambda_74a0ef281e44d15e1136f792f539efb3>@@AEAV<lambda_e157831efee4ea0afb0a2ace5dd5fd0d>@@$$QEAV<lambda_04ddeca75b7c13fd67716e8dfcef87ee>@@@Z@4HA 000000014005218c     libucrtd:per_thread_data.obj
 0002:0001118c       $unwind$?filt$0@?0???R<lambda_6e4b09c48022b2350581041d5f6b0c4c>@@QEBA@XZ@4HA 000000014005218c     libucrtd:exit.obj
 0002:0001118c       $unwind$__DestructExceptionObject$filt$0 000000014005218c     libvcruntimed:ehhelpers.obj
 0002:0001118c       $unwind$?fin$0@?0???$?RV<lambda_2d41944a1d46af3157314b8a01080d33>@@AEAV<lambda_8f455de75cd7d7f24b4096f044d8b9e6>@@V<lambda_aa500f224e6afead328df44964fe2772>@@@?$__crt_seh_guarded_call@X@@QEAAX$$QEAV<lambda_2d41944a1d46af3157314b8a01080d33>@@AEAV<lambda_8f455de75cd7d7f24b4096f044d8b9e6>@@$$QEAV<lambda_aa500f224e6afead328df44964fe2772>@@@Z@4HA 000000014005218c     libucrtd:per_thread_data.obj
 0002:0001118c       $unwind$?filt$0@?0??__scrt_common_main_seh@@YAHXZ@4HA 000000014005218c     LIBCMTD:exe_winmain.obj
 0002:0001118c       $unwind$?filt$0@?0??is_bad_read_pointer@@YA_NQEBX_K@Z@4HA 000000014005218c     libucrtd:debug_heap.obj
 0002:0001118c       $unwind$_ctrlfp$filt$0     000000014005218c     libucrtd:fpctrl.obj
 0002:0001118c       $unwind$?fin$0@?0???$?RV<lambda_6a47f4c8fd0152770a780fc1d70204eb>@@AEAV<lambda_d121dba8a4adeaf3a9819e48611155df>@@V<lambda_6aaa2265f5b6a89667e7d7630012e97a>@@@?$__crt_seh_guarded_call@H@@QEAAH$$QEAV<lambda_6a47f4c8fd0152770a780fc1d70204eb>@@AEAV<lambda_d121dba8a4adeaf3a9819e48611155df>@@$$QEAV<lambda_6aaa2265f5b6a89667e7d7630012e97a>@@@Z@4HA 000000014005218c     libucrtd:onexit.obj
 0002:0001118c       $unwind$?filt$0@?0??CxxCallCatchBlock@__FrameHandler3@@SAPEAXPEAU_EXCEPTION_RECORD@@@Z@4HA 000000014005218c     libvcruntimed:frame.obj
 0002:0001118c       $unwind$?dtor$0@?0??shortsort@@YAXPEAD0_KP6AHPEBX2@Z@Z@4HA 000000014005218c     libucrtd:qsort.obj
 0002:0001118c       $unwind$__acrt_initialize_lowio$fin$0 000000014005218c     libucrtd:ioinit.obj
 0002:00011194       $unwind$?pre_initialize@@YAXD@Z 0000000140052194     libucrtd:environment_initialization.obj
 0002:00011194       $unwind$__acrt_lowio_unlock_fh 0000000140052194     libucrtd:osfinfo.obj
 0002:00011194       $unwind$_configure_narrow_argv 0000000140052194     libucrtd:argv_parsing.obj
 0002:00011194       $unwind$__acrt_lowio_lock_fh 0000000140052194     libucrtd:osfinfo.obj
 0002:00011194       $unwind$__ascii_towupper   0000000140052194     libucrtd:output.obj
 0002:00011194       $unwind$?do_locale_initialization@@YAXE@Z 0000000140052194     libucrtd:argv_winmain.obj
 0002:00011194       $unwind$?__acrt_fenv_shift_abstract_sse_status@@YA?AW4__acrt_fenv_abstract_status@@W41@@Z 0000000140052194     libucrtd:_fenvutils.obj
 0002:00011194       $unwind$?__acrt_fenv_unshift_abstract_sse_status@@YA?AW4__acrt_fenv_abstract_status@@W41@@Z 0000000140052194     libucrtd:_fenvutils.obj
 0002:00011194       $unwind$__report_securityfailure 0000000140052194     LIBCMTD:gs_report.obj
 0002:00011194       $unwind$_ismbblead         0000000140052194     libucrtd:ismbbyte.obj
 0002:00011194       $unwind$__scrt_release_startup_lock 0000000140052194     LIBCMTD:utility.obj
 0002:00011194       $unwind$__acrt_uninitialize_ptd 0000000140052194     libucrtd:per_thread_data.obj
 0002:00011194       $unwind$__scrt_initialize_crt 0000000140052194     LIBCMTD:utility.obj
 0002:00011194       $unwind$exit               0000000140052194     libucrtd:exit.obj
 0002:00011194       $unwind$__acrt_FlsGetValue 0000000140052194     libucrtd:winapi_thunks.obj
 0002:00011194       $unwind$report_memory_leaks 0000000140052194     libucrtd:initialization.obj
 0002:00011194       $unwind$__acrt_FlsFree     0000000140052194     libucrtd:winapi_thunks.obj
 0002:00011194       $unwind$_exit              0000000140052194     libucrtd:exit.obj
 0002:00011194       $unwind$__acrt_fenv_set_status 0000000140052194     libucrtd:_fenvutils.obj
 0002:00011194       $unwind$uninitialize_allocated_io_buffers 0000000140052194     libucrtd:initialization.obj
 0002:00011194       $unwind$__acrt_fenv_set_control 0000000140052194     libucrtd:_fenvutils.obj
 0002:00011194       $unwind$?is_stream_flushable_or_commitable@@YA_NJ@Z 0000000140052194     libucrtd:fflush.obj
 0002:00011194       $unwind$__acrt_fenv_get_common_round_control 0000000140052194     libucrtd:_fenvutils.obj
 0002:00011194       $unwind$?to_machine_sse_status@@YA?AW4__acrt_fenv_machine_sse_status@@W4__acrt_fenv_abstract_status@@@Z 0000000140052194     libucrtd:_fenvutils.obj
 0002:00011194       $unwind$__vcrt_uninitialize 0000000140052194     libvcruntimed:initialization.obj
 0002:00011194       $unwind$??$to_abstract_status@W4__acrt_fenv_machine_sse_status@@@@YA?AW4__acrt_fenv_abstract_status@@W4__acrt_fenv_machine_sse_status@@@Z 0000000140052194     libucrtd:_fenvutils.obj
 0002:00011194       $unwind$__acrt_lock        0000000140052194     libucrtd:locks.obj
 0002:00011194       $unwind$__acrt_unlock      0000000140052194     libucrtd:locks.obj
 0002:00011194       $unwind$uninitialize_environment 0000000140052194     libucrtd:initialization.obj
 0002:00011194       $unwind$uninitialize_vcruntime 0000000140052194     libucrtd:initialization.obj
 0002:00011194       $unwind$?exit_or_terminate_process@@YAXI@Z 0000000140052194     libucrtd:exit.obj
 0002:00011194       $unwind$__ascii_towlower   0000000140052194     libucrtd:wsetlocale.obj
 0002:00011194       $unwind$?get_environment_nolock@@YAAEAPEAPEADD@Z 0000000140052194     libucrtd:environment_initialization.obj
 0002:00011194       $unwind$?do_locale_initialization@@YAXD@Z 0000000140052194     libucrtd:argv_parsing.obj
 0002:00011194       $unwind$__acrt_uninitialize 0000000140052194     libucrtd:initialization.obj
 0002:0001119c       $unwind$?check_synchronize_global_state_index@__crt_cached_ptd_host@@AEAA_KXZ 000000014005219c     libucrtd:invalid_parameter.obj
 0002:0001119c       $unwind$?try_load_library_from_system_directory@@YAPEAUHINSTANCE__@@QEB_W@Z 000000014005219c     libucrtd:winapi_thunks.obj
 0002:0001119c       $unwind$?_deallocate@?$__crt_win32_buffer@DU__crt_win32_buffer_no_resizing@@@@AEAAXXZ 000000014005219c     libucrtd:getmodulefilenamea.obj
 0002:0001119c       $unwind$?release@?$__crt_unique_heap_ptr@PEADU__crt_internal_free_policy@@@@QEAAXXZ 000000014005219c     libucrtd:argv_parsing.obj
 0002:0001119c       $unwind$??1?$argument_list@D@?A0x5f5c8891@@QEAA@XZ 000000014005219c     libucrtd:argv_wildcards.obj
 0002:0001119c       $unwind$_set_statfp        000000014005219c     libucrtd:fpctrl.obj
 0002:0001119c       $unwind$atexit             000000014005219c     LIBCMTD:utility.obj
 0002:0001119c       $unwind$?state_case_flag@?$output_processor@DV?$string_output_adapter@D@__crt_stdio_output@@V?$format_validation_base@DV?$string_output_adapter@D@__crt_stdio_output@@@2@@__crt_stdio_output@@AEAA_NXZ 000000014005219c     libucrtd:output.obj
 0002:0001119c       $unwind$_unlock_file       000000014005219c     libucrtd:_file.obj
 0002:0001119c       $unwind$?state_case_normal_common@?$output_processor@DV?$string_output_adapter@D@__crt_stdio_output@@V?$format_validation_base@DV?$string_output_adapter@D@__crt_stdio_output@@@2@@__crt_stdio_output@@AEAA_NXZ 000000014005219c     libucrtd:output.obj
 0002:0001119c       $unwind$__report_gsfailure 000000014005219c     LIBCMTD:gs_report.obj
 0002:0001119c       $unwind$_lock_file         000000014005219c     libucrtd:_file.obj
 0002:0001119c       $unwind$_CrtIsValidHeapPointer 000000014005219c     libucrtd:debug_heap.obj
 0002:0001119c       $unwind$?release@?$__crt_unique_heap_ptr@EU__crt_internal_free_policy@@@@QEAAXXZ 000000014005219c     libucrtd:argv_parsing.obj
 0002:0001119c       $unwind$__except_validate_context_record 000000014005219c     libvcruntimed:jbcxrval.obj
 0002:0001119c       $unwind$?type_case_Z@?$output_processor@DV?$string_output_adapter@D@__crt_stdio_output@@V?$format_validation_base@DV?$string_output_adapter@D@__crt_stdio_output@@@2@@__crt_stdio_output@@AEAA_NXZ 000000014005219c     libucrtd:output.obj
 0002:0001119c       $unwind$??R<lambda_c5860995281e5c4ce005b3de8f5874ee>@@QEBAXXZ 000000014005219c     libucrtd:fflush.obj
 0002:0001119c       $unwind$?getESTypes@__FrameHandler3@@SAPEBU_s_ESTypeList@@PEBU_s_FuncInfo@@@Z 000000014005219c     libvcruntimed:frame.obj
 0002:0001119c       $unwind$?close@__crt_findfile_traits@@SA_NPEAX@Z 000000014005219c     libucrtd:argv_wildcards.obj
 0002:0001119c       $unwind$??R<lambda_61c1b8a38cedca4df5fdc542e6ccae6d>@@QEBAHXZ 000000014005219c     libucrtd:initcon.obj
 0002:0001119c       $unwind$__setusermatherr   000000014005219c     libucrtd:matherr.obj
 0002:0001119c       $unwind$?destroy_ptd_array@@YAXQEAU__acrt_ptd@@@Z 000000014005219c     libucrtd:per_thread_data.obj
 0002:0001119c       $unwind$?type_case_s@?$output_processor@_WV?$string_output_adapter@_W@__crt_stdio_output@@V?$format_validation_base@_WV?$string_output_adapter@_W@__crt_stdio_output@@@2@@__crt_stdio_output@@AEAA_NXZ 000000014005219c     libucrtd:output.obj
 0002:0001119c       $unwind$?type_case_s@?$output_processor@DV?$string_output_adapter@D@__crt_stdio_output@@V?$format_validation_base@DV?$string_output_adapter@D@__crt_stdio_output@@@2@@__crt_stdio_output@@AEAA_NXZ 000000014005219c     libucrtd:output.obj
 0002:0001119c       $unwind$_FindAndUnlinkFrame 000000014005219c     libvcruntimed:risctrnsctrl.obj
 0002:0001119c       $unwind$?release@?$__crt_unique_heap_ptr@DU__crt_internal_free_policy@@@@QEAAXXZ 000000014005219c     libvcruntimed:std_type_info.obj
 0002:0001119c       $unwind$?is_string_backed@__crt_stdio_stream@@QEBA_NXZ 000000014005219c     libucrtd:output.obj
 0002:0001119c       $unwind$feholdexcept       000000014005219c     libucrtd:feholdexcept.obj
 0002:0001119c       $unwind$?release@?$__crt_unique_heap_ptr@U__vcrt_ptd@@U__crt_internal_free_policy@@@@QEAAXXZ 000000014005219c     libvcruntimed:per_thread_data.obj
 0002:0001119c       $unwind$??R<lambda_df1553121bfa390f1154bd84936f2730>@@QEBAHXZ 000000014005219c     libucrtd:argv_parsing.obj
 0002:0001119c       $unwind$?type_case_Z@?$output_processor@_WV?$string_output_adapter@_W@__crt_stdio_output@@V?$format_validation_base@_WV?$string_output_adapter@_W@__crt_stdio_output@@@2@@__crt_stdio_output@@AEAA_NXZ 000000014005219c     libucrtd:output.obj
 0002:0001119c       $unwind$_putwch_nolock     000000014005219c     libucrtd:putwch.obj
 0002:0001119c       $unwind$??1__crt_cached_ptd_host@@QEAA@XZ 000000014005219c     libucrtd:output.obj
 0002:0001119c       $unwind$_IsExceptionObjectToBeDestroyed 000000014005219c     libvcruntimed:ehhelpers.obj
 0002:0001119c       $unwind$??$free_environment@_W@@YAXQEAPEA_W@Z 000000014005219c     libucrtd:environment_initialization.obj
 0002:0001119c       $unwind$?find_end_of_double_null_terminated_sequence@@YAPEB_WQEB_W@Z 000000014005219c     libucrtd:get_environment_from_os.obj
 0002:0001119c       $unwind$_initialize_onexit_table 000000014005219c     libucrtd:onexit.obj
 0002:0001119c       $unwind$??$free_environment@D@@YAXQEAPEAD@Z 000000014005219c     libucrtd:environment_initialization.obj
 0002:0001119c       $unwind$?release@?$__crt_unique_heap_ptr@P6AXXZU__crt_internal_free_policy@@@@QEAAXXZ 000000014005219c     libucrtd:onexit.obj
 0002:0001119c       $unwind$?is_block_an_aligned_allocation@@YA_NQEBX@Z 000000014005219c     libucrtd:debug_heap.obj
 0002:0001119c       $unwind$?set_machine_sse_control@@YAXW4__acrt_fenv_machine_sse_control@@@Z 000000014005219c     libucrtd:_fenvutils.obj
 0002:0001119c       $unwind$?update_locale_slow@__crt_cached_ptd_host@@AEAAXXZ 000000014005219c     libucrtd:output.obj
 0002:0001119c       $unwind$?release@?$__crt_unique_heap_ptr@U__acrt_ptd@@U__crt_internal_free_policy@@@@QEAAXXZ 000000014005219c     libucrtd:per_thread_data.obj
 0002:0001119c       $unwind$?release@?$__crt_unique_heap_ptr@U__crt_multibyte_data@@U__crt_internal_free_policy@@@@QEAAXXZ 000000014005219c     libucrtd:wsetlocale.obj
 0002:0001119c       $unwind$?release@?$__crt_unique_heap_ptr@U__crt_lowio_handle_data@@U__crt_internal_free_policy@@@@QEAAXXZ 000000014005219c     libucrtd:osfinfo.obj
 0002:0001119c       $unwind$?is_valid@?$__crt_unique_handle_t@Uenvironment_strings_traits@?A0x1bf47908@@@@QEBA_NXZ 000000014005219c     libucrtd:get_environment_from_os.obj
 0002:0001119c       $unwind$?translate_control_denormal_control_from_sse@@YA?AW4__acrt_fenv_abstract_control@@W4__acrt_fenv_machine_sse_control@@@Z 000000014005219c     libucrtd:_fenvutils.obj
 0002:0001119c       $unwind$__acrt_DownlevelLocaleNameToLCID 000000014005219c     libucrtd:lcidtoname_downlevel.obj
 0002:0001119c       $unwind$?to_abstract_control@@YA?AW4__acrt_fenv_abstract_control@@W4__acrt_fenv_machine_sse_control@@@Z 000000014005219c     libucrtd:_fenvutils.obj
 0002:0001119c       $unwind$?__acrt_stdio_reset_buffer@@YAXV__crt_stdio_stream@@@Z 000000014005219c     libucrtd:fflush.obj
 0002:0001119c       $unwind$?state_case_normal_common@?$output_processor@_WV?$string_output_adapter@_W@__crt_stdio_output@@V?$format_validation_base@_WV?$string_output_adapter@_W@__crt_stdio_output@@@2@@__crt_stdio_output@@AEAA_NXZ 000000014005219c     libucrtd:output.obj
 0002:0001119c       $unwind$?_deallocate@?$__crt_win32_buffer@DU__crt_win32_buffer_internal_dynamic_resizing@@@@AEAAXXZ 000000014005219c     libucrtd:argv_wildcards.obj
 0002:0001119c       $unwind$?construct_ptd_array@@YAXQEAU__acrt_ptd@@@Z 000000014005219c     libucrtd:per_thread_data.obj
 0002:0001119c       $unwind$__scrt_unhandled_exception_filter 000000014005219c     LIBCMTD:utility_desktop.obj
 0002:0001119c       $unwind$__acrt_initialize_invalid_parameter_handler 000000014005219c     libucrtd:invalid_parameter.obj
 0002:0001119c       $unwind$_free_base         000000014005219c     libucrtd:free_base.obj
 0002:0001119c       $unwind$??R<lambda_e157831efee4ea0afb0a2ace5dd5fd0d>@@QEBAXXZ 000000014005219c     libucrtd:per_thread_data.obj
 0002:0001119c       $unwind$??$translate_control_exception_mask@W4__acrt_fenv_abstract_control@@W4__acrt_fenv_machine_sse_control@@@@YA?AW4__acrt_fenv_abstract_control@@W4__acrt_fenv_machine_sse_control@@@Z 000000014005219c     libucrtd:_fenvutils.obj
 0002:0001119c       $unwind$?parse_digit@__crt_strtox@@YAI_W@Z 000000014005219c     libucrtd:output.obj
 0002:0001119c       $unwind$?is_in_use@__crt_stdio_stream@@QEBA_NXZ 000000014005219c     libucrtd:closeall.obj
 0002:0001119c       $unwind$??$translate_control_rounding_control@W4__acrt_fenv_abstract_control@@W4__acrt_fenv_machine_sse_control@@@@YA?AW4__acrt_fenv_abstract_control@@W4__acrt_fenv_machine_sse_control@@@Z 000000014005219c     libucrtd:_fenvutils.obj
 0002:0001119c       $unwind$??0formatting_buffer@__crt_stdio_output@@QEAA@XZ 000000014005219c     libucrtd:output.obj
 0002:0001119c       $unwind$_register_thread_local_exe_atexit_callback 000000014005219c     libucrtd:exit.obj
 0002:0001119c       $unwind$__vcrt_FlsAlloc    000000014005219c     libvcruntimed:winapi_downlevel.obj
 0002:0001119c       $unwind$??$scratch_data@D@formatting_buffer@__crt_stdio_output@@QEAAPEADXZ 000000014005219c     libucrtd:output.obj
 0002:0001119c       $unwind$free               000000014005219c     libucrtd:free.obj
 0002:0001119c       $unwind$?close@__crt_hmodule_traits@@SA_NPEAUHINSTANCE__@@@Z 000000014005219c     libucrtd:exit.obj
 0002:0001119c       $unwind$?state_case_flag@?$output_processor@_WV?$string_output_adapter@_W@__crt_stdio_output@@V?$format_validation_base@_WV?$string_output_adapter@_W@__crt_stdio_output@@@2@@__crt_stdio_output@@AEAA_NXZ 000000014005219c     libucrtd:output.obj
 0002:0001119c       $unwind$?try_load_library_from_system_directory@@YAPEAUHINSTANCE__@@QEB_W@Z 000000014005219c     libvcruntimed:winapi_downlevel.obj
 0002:0001119c       $unwind$__acrt_release_locale_ref 000000014005219c     libucrtd:locale_refcounting.obj
 0002:0001119c       $unwind$__acrt_add_locale_ref 000000014005219c     libucrtd:locale_refcounting.obj
 0002:0001119c       $unwind$?_deallocate@?$__crt_win32_buffer@_WU__crt_win32_buffer_internal_dynamic_resizing@@@@AEAAXXZ 000000014005219c     libucrtd:argv_wildcards.obj
 0002:0001119c       $unwind$?release@?$__crt_unique_heap_ptr@DU__crt_public_free_policy@@@@QEAAXXZ 000000014005219c     libvcruntimed:std_exception.obj
 0002:0001119c       $unwind$?release@?$__crt_unique_heap_ptr@PEAU__crt_stdio_stream_data@@U__crt_internal_free_policy@@@@QEAAXXZ 000000014005219c     libucrtd:_file.obj
 0002:000111a4       $unwind$capture_current_context 00000001400521a4     LIBCMTD:gs_report.obj
 0002:000111a4       $unwind$fclose             00000001400521a4     libucrtd:fclose.obj
 0002:000111a4       $unwind$capture_previous_context 00000001400521a4     LIBCMTD:gs_report.obj
 0002:000111a4       $unwind$?capture_current_context@@YAXQEAU_CONTEXT@@@Z 00000001400521a4     libucrtd:invalid_parameter.obj
 0002:000111a4       $unwind$_fflush_nolock     00000001400521a4     libucrtd:fflush.obj
 0002:000111ac       $unwind$??$scratch_count@D@formatting_buffer@__crt_stdio_output@@QEBA_KXZ 00000001400521ac     libucrtd:output.obj
 0002:000111ac       $unwind$??R<lambda_aa87e3671a710a21b5dc78c0bdf72e11>@@QEBAXXZ 00000001400521ac     libucrtd:per_thread_data.obj
 0002:000111ac       $unwind$??R<lambda_b869e5a4e1069fcb5c3da79c0d999133>@@QEBAXXZ 00000001400521ac     libucrtd:commit.obj
 0002:000111ac       $unwind$??1?$common_data@D@__crt_stdio_output@@QEAA@XZ 00000001400521ac     libucrtd:output.obj
 0002:000111ac       $unwind$??1?$__crt_unique_handle_t@U__crt_findfile_traits@@@@QEAA@XZ 00000001400521ac     libucrtd:argv_wildcards.obj
 0002:000111ac       $unwind$??3@YAXPEAX@Z      00000001400521ac     LIBCMTD:delete_scalar.obj
 0002:000111ac       $unwind$??$?BX@__crt_fast_encoded_nullptr_t@@QEBAPEAXXZ 00000001400521ac     libvcruntimed:winapi_downlevel.obj
 0002:000111ac       $unwind$?type_case_X@?$output_processor@_WV?$string_output_adapter@_W@__crt_stdio_output@@V?$format_validation_base@_WV?$string_output_adapter@_W@__crt_stdio_output@@@2@@__crt_stdio_output@@AEAA_NXZ 00000001400521ac     libucrtd:output.obj
 0002:000111ac       $unwind$??R<lambda_fd91b99c0687e8936f1d70d7d9b78e69>@@QEBAXXZ 00000001400521ac     libucrtd:onexit.obj
 0002:000111ac       $unwind$??$output_debug_string@AEBQEB_W@?$__crt_char_traits@_W@@SAXAEBQEB_W@Z 00000001400521ac     libucrtd:crtmbox.obj
 0002:000111ac       $unwind$??$?BP6AXXZ@__crt_fast_encoded_nullptr_t@@QEBAPEAP6AXXZXZ 00000001400521ac     libucrtd:onexit.obj
 0002:000111ac       $unwind$?close@?$__crt_unique_handle_t@U__crt_hmodule_traits@@@@QEAAXXZ 00000001400521ac     libucrtd:exit.obj
 0002:000111ac       $unwind$??1?$__crt_unique_heap_ptr@DU__crt_public_free_policy@@@@QEAA@XZ 00000001400521ac     libvcruntimed:std_exception.obj
 0002:000111ac       $unwind$?value@?$dual_state_global@PEAE@__crt_state_management@@QEAAAEAPEAEXZ 00000001400521ac     libucrtd:mbctype.obj
 0002:000111ac       $unwind$??1?$__crt_unique_handle_t@U__crt_hmodule_traits@@@@QEAA@XZ 00000001400521ac     libucrtd:exit.obj
 0002:000111ac       $unwind$??$tcslen@AEBQEB_W@?$__crt_char_traits@_W@@SA_KAEBQEB_W@Z 00000001400521ac     libucrtd:dbgrpt.obj
 0002:000111ac       $unwind$??$__crt_interlocked_read_pointer@UHINSTANCE__@@@@YAPEAUHINSTANCE__@@PEDSEAU0@@Z 00000001400521ac     libvcruntimed:winapi_downlevel.obj
 0002:000111ac       $unwind$?value@?$dual_state_global@PEAU__crt_multibyte_data@@@__crt_state_management@@QEAAAEAPEAU__crt_multibyte_data@@XZ 00000001400521ac     libucrtd:mbctype.obj
 0002:000111ac       $unwind$?type_case_o@?$output_processor@DV?$string_output_adapter@D@__crt_stdio_output@@V?$format_validation_base@DV?$string_output_adapter@D@__crt_stdio_output@@@2@@__crt_stdio_output@@AEAA_NXZ 00000001400521ac     libucrtd:output.obj
 0002:000111ac       $unwind$__std_exception_destroy 00000001400521ac     libvcruntimed:std_exception.obj
 0002:000111ac       $unwind$?value@?$dual_state_global@J@__crt_state_management@@QEAAAEAJXZ 00000001400521ac     libucrtd:new_mode.obj
 0002:000111ac       $unwind$__acrt_locale_free_lc_time_if_unreferenced 00000001400521ac     libucrtd:locale_refcounting.obj
 0002:000111ac       $unwind$??1_LocaleUpdate@@QEAA@XZ 00000001400521ac     libucrtd:debug_heap.obj
 0002:000111ac       $unwind$??0big_integer@__crt_strtox@@QEAA@XZ 00000001400521ac     libucrtd:cfout.obj
 0002:000111ac       $unwind$??R<lambda_dc504788e8f1664fe9b84e20bfb512f2>@@QEBAXXZ 00000001400521ac     libucrtd:per_thread_data.obj
 0002:000111ac       $unwind$??R<lambda_6992ecaafeb10aed2b74cb1fae11a551>@@QEBAXXZ 00000001400521ac     libucrtd:per_thread_data.obj
 0002:000111ac       $unwind$??$tcslen@AEAPEAD@?$__crt_char_traits@D@@SA_KAEAPEAD@Z 00000001400521ac     libucrtd:environment_initialization.obj
 0002:000111ac       $unwind$??B?$__crt_unique_heap_ptr@U__crt_lowio_handle_data@@U__crt_internal_free_policy@@@@QEBA_NXZ 00000001400521ac     libucrtd:osfinfo.obj
 0002:000111ac       $unwind$??$__crt_interlocked_read_pointer@X@@YAPEAXPEDSEAX@Z 00000001400521ac     libvcruntimed:winapi_downlevel.obj
 0002:000111ac       $unwind$??1?$__crt_unique_heap_ptr@DU__crt_internal_free_policy@@@@QEAA@XZ 00000001400521ac     libvcruntimed:std_type_info.obj
 0002:000111ac       $unwind$?type_case_u@?$output_processor@DV?$string_output_adapter@D@__crt_stdio_output@@V?$format_validation_base@DV?$string_output_adapter@D@__crt_stdio_output@@@2@@__crt_stdio_output@@AEAA_NXZ 00000001400521ac     libucrtd:output.obj
 0002:000111ac       $unwind$?type_case_X@?$output_processor@DV?$string_output_adapter@D@__crt_stdio_output@@V?$format_validation_base@DV?$string_output_adapter@D@__crt_stdio_output@@@2@@__crt_stdio_output@@AEAA_NXZ 00000001400521ac     libucrtd:output.obj
 0002:000111ac       $unwind$??$__crt_fast_decode_pointer@PEAX@@YAPEAXQEAX@Z 00000001400521ac     libvcruntimed:winapi_downlevel.obj
 0002:000111ac       $unwind$??R<lambda_0ae27a3a962d80f24befdcbee591983d>@@QEBAXXZ 00000001400521ac     libucrtd:per_thread_data.obj
 0002:000111ac       $unwind$??$__crt_fast_encode_pointer@PEAX@@YAPEAXQEAX@Z 00000001400521ac     libvcruntimed:winapi_downlevel.obj
 0002:000111ac       $unwind$malloc             00000001400521ac     libucrtd:malloc.obj
 0002:000111ac       $unwind$??1?$output_adapter_data@_WV?$string_output_adapter@_W@__crt_stdio_output@@@__crt_stdio_output@@QEAA@XZ 00000001400521ac     libucrtd:output.obj
 0002:000111ac       $unwind$?set_to_nullptr@?$__crt_win32_buffer@DU__crt_win32_buffer_internal_dynamic_resizing@@@@QEAAXXZ 00000001400521ac     libucrtd:argv_wildcards.obj
 0002:000111ac       $unwind$??1formatting_buffer@__crt_stdio_output@@QEAA@XZ 00000001400521ac     libucrtd:output.obj
 0002:000111ac       $unwind$?type_case_u@?$output_processor@_WV?$string_output_adapter@_W@__crt_stdio_output@@V?$format_validation_base@_WV?$string_output_adapter@_W@__crt_stdio_output@@@2@@__crt_stdio_output@@AEAA_NXZ 00000001400521ac     libucrtd:output.obj
 0002:000111ac       $unwind$?type_case_x@?$output_processor@_WV?$string_output_adapter@_W@__crt_stdio_output@@V?$format_validation_base@_WV?$string_output_adapter@_W@__crt_stdio_output@@@2@@__crt_stdio_output@@AEAA_NXZ 00000001400521ac     libucrtd:output.obj
 0002:000111ac       $unwind$??1?$output_processor@DV?$string_output_adapter@D@__crt_stdio_output@@V?$format_validation_base@DV?$string_output_adapter@D@__crt_stdio_output@@@2@@__crt_stdio_output@@QEAA@XZ 00000001400521ac     libucrtd:output.obj
 0002:000111ac       $unwind$?state_case_width@?$output_processor@_WV?$string_output_adapter@_W@__crt_stdio_output@@V?$format_validation_base@_WV?$string_output_adapter@_W@__crt_stdio_output@@@2@@__crt_stdio_output@@AEAA_NXZ 00000001400521ac     libucrtd:output.obj
 0002:000111ac       $unwind$fegetenv           00000001400521ac     libucrtd:fegetenv.obj
 0002:000111ac       $unwind$?set_to_nullptr@?$__crt_win32_buffer@DU__crt_win32_buffer_no_resizing@@@@QEAAXXZ 00000001400521ac     libucrtd:getmodulefilenamea.obj
 0002:000111ac       $unwind$??1?$__crt_unique_heap_ptr@P6AXXZU__crt_internal_free_policy@@@@QEAA@XZ 00000001400521ac     libucrtd:onexit.obj
 0002:000111ac       $unwind$?type_case_p@?$output_processor@DV?$string_output_adapter@D@__crt_stdio_output@@V?$format_validation_base@DV?$string_output_adapter@D@__crt_stdio_output@@@2@@__crt_stdio_output@@AEAA_NXZ 00000001400521ac     libucrtd:output.obj
 0002:000111ac       $unwind$?tchar_string@?$common_data@_W@__crt_stdio_output@@IEAAAEAPEA_WXZ 00000001400521ac     libucrtd:output.obj
 0002:000111ac       $unwind$??$tcslen@AEAY0BAF@_W@?$__crt_char_traits@_W@@SA_KAEAY0BAF@_W@Z 00000001400521ac     libucrtd:dbgrpt.obj
 0002:000111ac       $unwind$??R<lambda_2358e3775559c9db80273638284d5e45>@@QEBAXXZ 00000001400521ac     libucrtd:exit.obj
 0002:000111ac       $unwind$_crt_atexit        00000001400521ac     libucrtd:onexit.obj
 0002:000111ac       $unwind$??1?$__crt_unique_heap_ptr@EU__crt_internal_free_policy@@@@QEAA@XZ 00000001400521ac     libucrtd:argv_parsing.obj
 0002:000111ac       $unwind$??1?$common_data@_W@__crt_stdio_output@@QEAA@XZ 00000001400521ac     libucrtd:output.obj
 0002:000111ac       $unwind$?value@?$dual_state_global@PEAPEAD@__crt_state_management@@QEAAAEAPEAPEADXZ 00000001400521ac     libucrtd:environment_initialization.obj
 0002:000111ac       $unwind$?type_case_d@?$output_processor@DV?$string_output_adapter@D@__crt_stdio_output@@V?$format_validation_base@DV?$string_output_adapter@D@__crt_stdio_output@@@2@@__crt_stdio_output@@AEAA_NXZ 00000001400521ac     libucrtd:output.obj
 0002:000111ac       $unwind$??$uninitialize_environment_internal@D@@YAXAEAPEAPEAD@Z 00000001400521ac     libucrtd:environment_initialization.obj
 0002:000111ac       $unwind$?value@?$dual_state_global@PEAU__crt_locale_data@@@__crt_state_management@@QEAAAEAPEAU__crt_locale_data@@XZ 00000001400521ac     libucrtd:wsetlocale.obj
 0002:000111ac       $unwind$?close@?$__crt_unique_handle_t@U__crt_findfile_traits@@@@QEAAXXZ 00000001400521ac     libucrtd:argv_wildcards.obj
 0002:000111ac       $unwind$??$__crt_fast_encode_pointer@PEAP6AXXZ@@YAPEAP6AXXZQEAP6AXXZ@Z 00000001400521ac     LIBCMTD:utility.obj
 0002:000111ac       $unwind$??1?$format_validation_base@_WV?$string_output_adapter@_W@__crt_stdio_output@@@__crt_stdio_output@@QEAA@XZ 00000001400521ac     libucrtd:output.obj
 0002:000111ac       $unwind$?appmodel_get_policy@process_end_policy_properties@?1??__acrt_get_process_end_policy@@YA?AW4process_end_policy@@XZ@SAJPEAW4AppPolicyProcessTerminationMethod@@@Z 00000001400521ac     libucrtd:win_policies.obj
 0002:000111ac       $unwind$?try_synchronize_per_thread_data@__crt_cached_ptd_host@@AEAAPEAU__acrt_ptd@@XZ 00000001400521ac     libucrtd:invalid_parameter.obj
 0002:000111ac       $unwind$??$__crt_fast_decode_pointer@PEAP6AXXZ@@YAPEAP6AXXZQEAP6AXXZ@Z 00000001400521ac     LIBCMTD:utility.obj
 0002:000111ac       $unwind$?value@?$dual_state_global@P6AHPEAU_exception@@@Z@__crt_state_management@@QEAAAEAP6AHPEAU_exception@@@ZXZ 00000001400521ac     libucrtd:matherr.obj
 0002:000111ac       $unwind$??$data@D@formatting_buffer@__crt_stdio_output@@QEAAPEADXZ 00000001400521ac     libucrtd:output.obj
 0002:000111ac       $unwind$??$?B$$A6AXXZ@__crt_fast_encoded_nullptr_t@@QEBAP6AXXZXZ 00000001400521ac     libvcruntimed:purevirt_data.obj
 0002:000111ac       $unwind$??$?B$$A6AXPEAXK0@Z@__crt_fast_encoded_nullptr_t@@QEBAP6AXPEAXK0@ZXZ 00000001400521ac     libucrtd:exit.obj
 0002:000111ac       $unwind$??$__crt_fast_decode_pointer@P6AXPEAXK0@Z@@YAP6AXPEAXK0@ZQ6AX0K0@Z@Z 00000001400521ac     libucrtd:exit.obj
 0002:000111ac       $unwind$??$__crt_fast_encode_pointer@P6AXXZ@@YAP6AXXZQ6AXXZ@Z 00000001400521ac     libvcruntimed:purevirt_data.obj
 0002:000111ac       $unwind$??B?$__crt_unique_heap_ptr@U__acrt_ptd@@U__crt_internal_free_policy@@@@QEBA_NXZ 00000001400521ac     libucrtd:per_thread_data.obj
 0002:000111ac       $unwind$_ValidateImageBase 00000001400521ac     LIBCMTD:pesect.obj
 0002:000111ac       $unwind$??R<lambda_74a0ef281e44d15e1136f792f539efb3>@@QEBAXXZ 00000001400521ac     libucrtd:per_thread_data.obj
 0002:000111ac       $unwind$?state_case_precision@?$output_processor@_WV?$string_output_adapter@_W@__crt_stdio_output@@V?$format_validation_base@_WV?$string_output_adapter@_W@__crt_stdio_output@@@2@@__crt_stdio_output@@AEAA_NXZ 00000001400521ac     libucrtd:output.obj
 0002:000111ac       $unwind$?__RethrowException@@YAXPEAUEHExceptionRecord@@@Z 00000001400521ac     libvcruntimed:frame.obj
 0002:000111ac       $unwind$??$__crt_fast_encode_pointer@P6AXPEAXK0@Z@@YAP6AXPEAXK0@ZQ6AX0K0@Z@Z 00000001400521ac     libucrtd:exit.obj
 0002:000111ac       $unwind$??$uninitialize_environment_internal@_W@@YAXAEAPEAPEA_W@Z 00000001400521ac     libucrtd:environment_initialization.obj
 0002:000111ac       $unwind$__acrt_locale_free_numeric 00000001400521ac     libucrtd:initnum.obj
 0002:000111ac       $unwind$??R<lambda_6aaa2265f5b6a89667e7d7630012e97a>@@QEBAXXZ 00000001400521ac     libucrtd:onexit.obj
 0002:000111ac       $unwind$?close@?$__crt_unique_handle_t@Uenvironment_strings_traits@?A0x1bf47908@@@@QEAAXXZ 00000001400521ac     libucrtd:get_environment_from_os.obj
 0002:000111ac       $unwind$?is_potentially_valid_image_base@@YA_NQEAX@Z 00000001400521ac     LIBCMTD:utility.obj
 0002:000111ac       $unwind$?appmodel_get_policy@developer_information_policy_properties@?1??__acrt_get_developer_information_policy@@YA?AW4developer_information_policy@@XZ@SAJPEAW4AppPolicyShowDeveloperDiagnostic@@@Z 00000001400521ac     libucrtd:win_policies.obj
 0002:000111ac       $unwind$??$count@D@formatting_buffer@__crt_stdio_output@@QEBA_KXZ 00000001400521ac     libucrtd:output.obj
 0002:000111ac       $unwind$??R<lambda_601a2a7da3b7a96e9554ac7215c4b07c>@@QEBAXXZ 00000001400521ac     libucrtd:signal.obj
 0002:000111ac       $unwind$??$free_crt_array@_W$01@@YAXAEAY01PEA_W@Z 00000001400521ac     libucrtd:inittime.obj
 0002:000111ac       $unwind$??R<lambda_7d29013d608e9f25a034de83c9b9e983>@@QEBAXXZ 00000001400521ac     libucrtd:commit.obj
 0002:000111ac       $unwind$?check_synchronize_per_thread_data@__crt_cached_ptd_host@@AEAAPEAU__acrt_ptd@@XZ 00000001400521ac     libucrtd:output.obj
 0002:000111ac       $unwind$??R<lambda_450d765d439847d4c735a33c368b5fc0>@@QEBAXXZ 00000001400521ac     libucrtd:signal.obj
 0002:000111ac       $unwind$??$__crt_fast_decode_pointer@P6AXXZ@@YAP6AXXZQ6AXXZ@Z 00000001400521ac     libvcruntimed:purevirt.obj
 0002:000111ac       $unwind$__acrt_locale_free_monetary 00000001400521ac     libucrtd:initmon.obj
 0002:000111ac       $unwind$?type_case_c@?$output_processor@DV?$string_output_adapter@D@__crt_stdio_output@@V?$format_validation_base@DV?$string_output_adapter@D@__crt_stdio_output@@@2@@__crt_stdio_output@@AEAA_NXZ 00000001400521ac     libucrtd:output.obj
 0002:000111ac       $unwind$?type_case_p@?$output_processor@_WV?$string_output_adapter@_W@__crt_stdio_output@@V?$format_validation_base@_WV?$string_output_adapter@_W@__crt_stdio_output@@@2@@__crt_stdio_output@@AEAA_NXZ 00000001400521ac     libucrtd:output.obj
 0002:000111ac       $unwind$??1?$__crt_scoped_stack_ptr@_W@@QEAA@XZ 00000001400521ac     libucrtd:getstringtypea.obj
 0002:000111ac       $unwind$??1?$__crt_unique_handle_t@Uenvironment_strings_traits@?A0x1bf47908@@@@QEAA@XZ 00000001400521ac     libucrtd:get_environment_from_os.obj
 0002:000111ac       $unwind$?__acrt_stdio_free_stream@@YAXV__crt_stdio_stream@@@Z 00000001400521ac     libucrtd:stream.obj
 0002:000111ac       $unwind$??R<lambda_44731a7d0e6d81c3e6aa82d741081786>@@QEBAP6AXH@ZXZ 00000001400521ac     libucrtd:signal.obj
 0002:000111ac       $unwind$??1?$output_adapter_data@DV?$string_output_adapter@D@__crt_stdio_output@@@__crt_stdio_output@@QEAA@XZ 00000001400521ac     libucrtd:output.obj
 0002:000111ac       $unwind$?update_locale@__crt_cached_ptd_host@@AEAAXXZ 00000001400521ac     libucrtd:output.obj
 0002:000111ac       $unwind$??$__crt_fast_encode_pointer@P6AXH@Z@@YAP6AXH@ZQ6AXH@Z@Z 00000001400521ac     libucrtd:signal.obj
 0002:000111ac       $unwind$__acrt_FlsAlloc    00000001400521ac     libucrtd:winapi_thunks.obj
 0002:000111ac       $unwind$??$free_crt_array@_W$0M@@@YAXAEAY0M@PEA_W@Z 00000001400521ac     libucrtd:inittime.obj
 0002:000111ac       $unwind$??$?B$$A6AXH@Z@__crt_fast_encoded_nullptr_t@@QEBAP6AXH@ZXZ 00000001400521ac     libucrtd:signal.obj
 0002:000111ac       $unwind$??R<lambda_92619d2358a28f41a33ba319515a20b9>@@QEBAXXZ 00000001400521ac     libucrtd:per_thread_data.obj
 0002:000111ac       $unwind$?get_raw_ptd@__crt_cached_ptd_host@@QEAAPEAU__acrt_ptd@@XZ 00000001400521ac     libucrtd:output.obj
 0002:000111ac       $unwind$??$__crt_fast_decode_pointer@P6AXH@Z@@YAP6AXH@ZQ6AXH@Z@Z 00000001400521ac     libucrtd:signal.obj
 0002:000111ac       $unwind$?update_field_width@?$standard_base@_WV?$string_output_adapter@_W@__crt_stdio_output@@@__crt_stdio_output@@IEAA_NXZ 00000001400521ac     libucrtd:output.obj
 0002:000111ac       $unwind$??$__crt_fast_encode_pointer@P6AHPEAU_exception@@@Z@@YAP6AHPEAU_exception@@@ZQ6AH0@Z@Z 00000001400521ac     libucrtd:matherr.obj
 0002:000111ac       $unwind$??R<lambda_04ddeca75b7c13fd67716e8dfcef87ee>@@QEBAXXZ 00000001400521ac     libucrtd:per_thread_data.obj
 0002:000111ac       $unwind$??R<lambda_f7f22ab5edc0698d5f6905b0d3f44752>@@QEBAXXZ 00000001400521ac     libucrtd:fflush.obj
 0002:000111ac       $unwind$?get_locale@__crt_cached_ptd_host@@QEAAPEAU__crt_locale_pointers@@XZ 00000001400521ac     libucrtd:output.obj
 0002:000111ac       $unwind$?update_precision@?$standard_base@_WV?$string_output_adapter@_W@__crt_stdio_output@@@__crt_stdio_output@@IEAA_NXZ 00000001400521ac     libucrtd:output.obj
 0002:000111ac       $unwind$??$__crt_fast_decode_pointer@P6AHPEAU_exception@@@Z@@YAP6AHPEAU_exception@@@ZQ6AH0@Z@Z 00000001400521ac     libucrtd:matherr.obj
 0002:000111ac       $unwind$?type_case_x@?$output_processor@DV?$string_output_adapter@D@__crt_stdio_output@@V?$format_validation_base@DV?$string_output_adapter@D@__crt_stdio_output@@@2@@__crt_stdio_output@@AEAA_NXZ 00000001400521ac     libucrtd:output.obj
 0002:000111ac       $unwind$??B?$__crt_unique_heap_ptr@U__vcrt_ptd@@U__crt_internal_free_policy@@@@QEBA_NXZ 00000001400521ac     libvcruntimed:per_thread_data.obj
 0002:000111ac       $unwind$??$free_crt_array@_W$06@@YAXAEAY06PEA_W@Z 00000001400521ac     libucrtd:inittime.obj
 0002:000111ac       $unwind$??$__crt_fast_decode_pointer@P6AXPEB_W00I_K@Z@@YAP6AXPEB_W00I_K@ZQ6AX000I1@Z@Z 00000001400521ac     libucrtd:invalid_parameter.obj
 0002:000111ac       $unwind$?value@?$dual_state_global@P6AXH@Z@__crt_state_management@@QEAAAEAP6AXH@ZXZ 00000001400521ac     libucrtd:signal.obj
 0002:000111ac       $unwind$_SetImageBase      00000001400521ac     libvcruntimed:risctrnsctrl.obj
 0002:000111ac       $unwind$??$free_crt_array@D$01@@YAXAEAY01PEAD@Z 00000001400521ac     libucrtd:inittime.obj
 0002:000111ac       $unwind$??1?$__crt_unique_heap_ptr@U__acrt_ptd@@U__crt_internal_free_policy@@@@QEAA@XZ 00000001400521ac     libucrtd:per_thread_data.obj
 0002:000111ac       $unwind$?close@environment_strings_traits@?A0x1bf47908@@SA_NPEA_W@Z 00000001400521ac     libucrtd:get_environment_from_os.obj
 0002:000111ac       $unwind$?type_case_c@?$output_processor@_WV?$string_output_adapter@_W@__crt_stdio_output@@V?$format_validation_base@_WV?$string_output_adapter@_W@__crt_stdio_output@@@2@@__crt_stdio_output@@AEAA_NXZ 00000001400521ac     libucrtd:output.obj
 0002:000111ac       $unwind$?get_flags@__crt_stdio_stream@@QEBAJXZ 00000001400521ac     libucrtd:output.obj
 0002:000111ac       $unwind$_SetThrowImageBase 00000001400521ac     libvcruntimed:risctrnsctrl.obj
 0002:000111ac       $unwind$??1?$standard_base@_WV?$string_output_adapter@_W@__crt_stdio_output@@@__crt_stdio_output@@QEAA@XZ 00000001400521ac     libucrtd:output.obj
 0002:000111ac       $unwind$??$__crt_fast_encode_pointer@P6AHXZ@@YAP6AHXZQ6AHXZ@Z 00000001400521ac     libucrtd:onexit.obj
 0002:000111ac       $unwind$??R<lambda_38119f0e861e05405d8a144b9b982f0a>@@QEBAXXZ 00000001400521ac     libucrtd:wsetlocale.obj
 0002:000111ac       $unwind$?update_field_width@?$standard_base@DV?$string_output_adapter@D@__crt_stdio_output@@@__crt_stdio_output@@IEAA_NXZ 00000001400521ac     libucrtd:output.obj
 0002:000111ac       $unwind$?update_precision@?$standard_base@DV?$string_output_adapter@D@__crt_stdio_output@@@__crt_stdio_output@@IEAA_NXZ 00000001400521ac     libucrtd:output.obj
 0002:000111ac       $unwind$??$free_crt_array@D$0M@@@YAXAEAY0M@PEAD@Z 00000001400521ac     libucrtd:inittime.obj
 0002:000111ac       $unwind$__acrt_initialize_signal_handlers 00000001400521ac     libucrtd:signal.obj
 0002:000111ac       $unwind$?has_crt_buffer@__crt_stdio_stream@@QEBA_NXZ 00000001400521ac     libucrtd:_freebuf.obj
 0002:000111ac       $unwind$??1?$standard_base@DV?$string_output_adapter@D@__crt_stdio_output@@@__crt_stdio_output@@QEAA@XZ 00000001400521ac     libucrtd:output.obj
 0002:000111ac       $unwind$??1?$__crt_unique_heap_ptr@U__vcrt_ptd@@U__crt_internal_free_policy@@@@QEAA@XZ 00000001400521ac     libvcruntimed:per_thread_data.obj
 0002:000111ac       $unwind$?value@?$dual_state_global@H@__crt_state_management@@QEAAAEAHXZ 00000001400521ac     libucrtd:setmode.obj
 0002:000111ac       $unwind$??R<lambda_6a47f4c8fd0152770a780fc1d70204eb>@@QEBAXXZ 00000001400521ac     libucrtd:onexit.obj
 0002:000111ac       $unwind$??1bad_exception@std@@UEAA@XZ 00000001400521ac     libvcruntimed:frame.obj
 0002:000111ac       $unwind$??$count@_W@formatting_buffer@__crt_stdio_output@@QEBA_KXZ 00000001400521ac     libucrtd:output.obj
 0002:000111ac       $unwind$?appmodel_get_policy@windowing_model_policy_properties@?1??__acrt_get_windowing_model_policy@@YA?AW4windowing_model_policy@@XZ@SAJPEAW4AppPolicyWindowingModel@@@Z 00000001400521ac     libucrtd:win_policies.obj
 0002:000111ac       $unwind$?store_and_initialize_ptd@@YA_NQEAU__vcrt_ptd@@@Z 00000001400521ac     libvcruntimed:per_thread_data.obj
 0002:000111ac       $unwind$??0bad_exception@std@@QEAA@XZ 00000001400521ac     libvcruntimed:frame.obj
 0002:000111ac       $unwind$??B?$__crt_unique_heap_ptr@DU__crt_internal_free_policy@@@@QEBA_NXZ 00000001400521ac     libvcruntimed:std_type_info.obj
 0002:000111ac       $unwind$??R<lambda_80060f20ac3990516b753a27f211934c>@@QEBAXXZ 00000001400521ac     libucrtd:onexit.obj
 0002:000111ac       $unwind$??1scoped_get_last_error_reset@?A0xef8ec17e@@QEAA@XZ 00000001400521ac     libvcruntimed:per_thread_data.obj
 0002:000111ac       $unwind$??R<lambda_410d79af7f07d98d83a3f525b3859a53>@@QEBAXXZ 00000001400521ac     libucrtd:wsetlocale.obj
 0002:000111ac       $unwind$??$__crt_interlocked_read@J@@YAJPEDJ@Z 00000001400521ac     libucrtd:exit.obj
 0002:000111ac       $unwind$?lowio_handle@__crt_stdio_stream@@QEBAHXZ 00000001400521ac     libucrtd:fileno.obj
 0002:000111ac       $unwind$??$__crt_fast_decode_pointer@P6AH_K@Z@@YAP6AH_K@ZQ6AH0@Z@Z 00000001400521ac     libucrtd:new_handler.obj
 0002:000111ac       $unwind$??$free_crt_array@D$06@@YAXAEAY06PEAD@Z 00000001400521ac     libucrtd:inittime.obj
 0002:000111ac       $unwind$??R<lambda_886d6c58226a84441f68b9f2b8217b83>@@QEBAXXZ 00000001400521ac     libucrtd:fflush.obj
 0002:000111ac       $unwind$??$tcslen@AEAY0BAF@D@?$__crt_char_traits@D@@SA_KAEAY0BAF@D@Z 00000001400521ac     libucrtd:dbgrpt.obj
 0002:000111ac       $unwind$??B?$__crt_unique_heap_ptr@U__crt_multibyte_data@@U__crt_internal_free_policy@@@@QEBA_NXZ 00000001400521ac     libucrtd:wsetlocale.obj
 0002:000111ac       $unwind$?tchar_string@?$common_data@D@__crt_stdio_output@@IEAAAEAPEADXZ 00000001400521ac     libucrtd:output.obj
 0002:000111ac       $unwind$?value@?$dual_state_global@P6AH_K@Z@__crt_state_management@@QEAAAEAP6AH_K@ZXZ 00000001400521ac     libucrtd:new_handler.obj
 0002:000111ac       $unwind$?destroy_fls@@YAXPEAX@Z 00000001400521ac     libucrtd:per_thread_data.obj
 0002:000111ac       $unwind$??0__crt_scoped_get_last_error_reset@@QEAA@XZ 00000001400521ac     libucrtd:output.obj
 0002:000111ac       $unwind$?get_raw_ptd_noexit@__crt_cached_ptd_host@@QEAAPEAU__acrt_ptd@@XZ 00000001400521ac     libucrtd:invalid_parameter.obj
 0002:000111ac       $unwind$??1exception@std@@UEAA@XZ 00000001400521ac     libvcruntimed:frame.obj
 0002:000111ac       $unwind$??R<lambda_8f455de75cd7d7f24b4096f044d8b9e6>@@QEBAXXZ 00000001400521ac     libucrtd:per_thread_data.obj
 0002:000111ac       $unwind$??R<lambda_efa02eb69bf647d2f7ff0dd6f1103f72>@@QEBAXXZ 00000001400521ac     libucrtd:mbctype.obj
 0002:000111ac       $unwind$??0scoped_get_last_error_reset@?A0xef8ec17e@@QEAA@XZ 00000001400521ac     libvcruntimed:per_thread_data.obj
 0002:000111ac       $unwind$__acrt_initialize_new_handler 00000001400521ac     libucrtd:new_handler.obj
 0002:000111ac       $unwind$??$tcslen@AEBQEBD@?$__crt_char_traits@D@@SA_KAEBQEBD@Z 00000001400521ac     libucrtd:dbgrpt.obj
 0002:000111ac       $unwind$??0scoped_fp_state_reset@?A0x71ca7cfb@@QEAA@XZ 00000001400521ac     libucrtd:cfout.obj
 0002:000111ac       $unwind$__acrt_initialize_user_matherr 00000001400521ac     libucrtd:matherr.obj
 0002:000111ac       $unwind$??R<lambda_728235dc0fc2b1f82d1fa5b3e7102d8f>@@QEBAXXZ 00000001400521ac     libucrtd:mbctype.obj
 0002:000111ac       $unwind$??1?$__crt_unique_heap_ptr@U__crt_lowio_handle_data@@U__crt_internal_free_policy@@@@QEAA@XZ 00000001400521ac     libucrtd:osfinfo.obj
 0002:000111ac       $unwind$??B?$__crt_unique_heap_ptr@EU__crt_internal_free_policy@@@@QEBA_NXZ 00000001400521ac     libucrtd:argv_parsing.obj
 0002:000111ac       $unwind$?type_case_d@?$output_processor@_WV?$string_output_adapter@_W@__crt_stdio_output@@V?$format_validation_base@_WV?$string_output_adapter@_W@__crt_stdio_output@@@2@@__crt_stdio_output@@AEAA_NXZ 00000001400521ac     libucrtd:output.obj
 0002:000111ac       $unwind$??R<lambda_3ce37f5b621ab310299ea5f68cbdf3bb>@@QEBAXXZ 00000001400521ac     libucrtd:close.obj
 0002:000111ac       $unwind$??R<lambda_19eaff14c5fe7be5b1b106a862eb1091>@@QEBAXXZ 00000001400521ac     libucrtd:close.obj
 0002:000111ac       $unwind$??1?$format_validation_base@DV?$string_output_adapter@D@__crt_stdio_output@@@__crt_stdio_output@@QEAA@XZ 00000001400521ac     libucrtd:output.obj
 0002:000111ac       $unwind$?set_to_nullptr@?$__crt_win32_buffer@_WU__crt_win32_buffer_internal_dynamic_resizing@@@@QEAAXXZ 00000001400521ac     libucrtd:argv_wildcards.obj
 0002:000111ac       $unwind$__vcrt_freefls     00000001400521ac     libvcruntimed:per_thread_data.obj
 0002:000111ac       $unwind$__vcrt_EncodePointer 00000001400521ac     libvcruntimed:frame.obj
 0002:000111ac       $unwind$??B?$__crt_unique_heap_ptr@PEADU__crt_internal_free_policy@@@@QEBA_NXZ 00000001400521ac     libucrtd:environment_initialization.obj
 0002:000111ac       $unwind$??1?$__crt_unique_heap_ptr@PEADU__crt_internal_free_policy@@@@QEAA@XZ 00000001400521ac     libucrtd:argv_parsing.obj
 0002:000111ac       $unwind$??1?$output_processor@_WV?$string_output_adapter@_W@__crt_stdio_output@@V?$format_validation_base@_WV?$string_output_adapter@_W@__crt_stdio_output@@@2@@__crt_stdio_output@@QEAA@XZ 00000001400521ac     libucrtd:output.obj
 0002:000111ac       $unwind$??$set_program_name@PEAD@?$__crt_char_traits@D@@SAX$$QEAPEAD@Z 00000001400521ac     libucrtd:argv_parsing.obj
 0002:000111ac       $unwind$?get_current_global_state_index@__crt_cached_ptd_host@@QEAA_KXZ 00000001400521ac     libucrtd:invalid_parameter.obj
 0002:000111ac       $unwind$wcslen             00000001400521ac     libucrtd:strnlen.obj
 0002:000111ac       $unwind$??R<lambda_2d41944a1d46af3157314b8a01080d33>@@QEBAXXZ 00000001400521ac     libucrtd:per_thread_data.obj
 0002:000111ac       $unwind$__acrt_locale_free_time 00000001400521ac     libucrtd:inittime.obj
 0002:000111ac       $unwind$??R<lambda_842d9ff0dc9ef11c61343bbaebe7f885>@@QEBAXXZ 00000001400521ac     libucrtd:fflush.obj
 0002:000111ac       $unwind$__raise_securityfailure 00000001400521ac     LIBCMTD:gs_report.obj
 0002:000111ac       $unwind$?type_case_o@?$output_processor@_WV?$string_output_adapter@_W@__crt_stdio_output@@V?$format_validation_base@_WV?$string_output_adapter@_W@__crt_stdio_output@@@2@@__crt_stdio_output@@AEAA_NXZ 00000001400521ac     libucrtd:output.obj
 0002:000111ac       $unwind$??R<lambda_d90129c13df834fdcbf8d2b88dafcf2d>@@QEBAXXZ 00000001400521ac     libucrtd:fflush.obj
 0002:000111ac       $unwind$ReadPointerNoFence 00000001400521ac     LIBCMTD:guard_support.obj
 0002:000111ac       $unwind$??1?$__crt_unique_heap_ptr@U__crt_multibyte_data@@U__crt_internal_free_policy@@@@QEAA@XZ 00000001400521ac     libucrtd:wsetlocale.obj
 0002:000111ac       $unwind$??B?$__crt_unique_heap_ptr@DU__crt_public_free_policy@@@@QEBA_NXZ 00000001400521ac     libvcruntimed:std_exception.obj
 0002:000111ac       $unwind$??R<lambda_d80eeec6fff315bfe5c115232f3240e3>@@QEBAXXZ 00000001400521ac     libucrtd:exit.obj
 0002:000111ac       $unwind$??1?$__crt_unique_heap_ptr@PEAU__crt_stdio_stream_data@@U__crt_internal_free_policy@@@@QEAA@XZ 00000001400521ac     libucrtd:_file.obj
 0002:000111ac       $unwind$??1scoped_fp_state_reset@?A0x71ca7cfb@@QEAA@XZ 00000001400521ac     libucrtd:cfout.obj
 0002:000111ac       $unwind$?state_case_width@?$output_processor@DV?$string_output_adapter@D@__crt_stdio_output@@V?$format_validation_base@DV?$string_output_adapter@D@__crt_stdio_output@@@2@@__crt_stdio_output@@AEAA_NXZ 00000001400521ac     libucrtd:output.obj
 0002:000111ac       $unwind$??$data@_W@formatting_buffer@__crt_stdio_output@@QEAAPEA_WXZ 00000001400521ac     libucrtd:output.obj
 0002:000111ac       $unwind$??R<lambda_aa500f224e6afead328df44964fe2772>@@QEBAXXZ 00000001400521ac     libucrtd:per_thread_data.obj
 0002:000111ac       $unwind$?state_case_precision@?$output_processor@DV?$string_output_adapter@D@__crt_stdio_output@@V?$format_validation_base@DV?$string_output_adapter@D@__crt_stdio_output@@@2@@__crt_stdio_output@@AEAA_NXZ 00000001400521ac     libucrtd:output.obj
 0002:000111ac       $unwind$??1__crt_scoped_get_last_error_reset@@QEAA@XZ 00000001400521ac     libucrtd:output.obj
 0002:000111b4       $unwind$_onexit            00000001400521b4     LIBCMTD:utility.obj
 0002:000111b4       $unwind$_callnewh          00000001400521b4     libucrtd:new_handler.obj
 0002:000111b4       $unwind$__acrt_stdio_free_buffer_nolock 00000001400521b4     libucrtd:_freebuf.obj
 0002:000111b4       $unwind$__acrt_AppPolicyGetWindowingModelInternal 00000001400521b4     libucrtd:winapi_thunks.obj
 0002:000111b4       $unwind$?state_case_normal@?$output_processor@DV?$string_output_adapter@D@__crt_stdio_output@@V?$format_validation_base@DV?$string_output_adapter@D@__crt_stdio_output@@@2@@__crt_stdio_output@@AEAA_NXZ 00000001400521b4     libucrtd:output.obj
 0002:000111b4       $unwind$__acrt_AppPolicyGetShowDeveloperDiagnosticInternal 00000001400521b4     libucrtd:winapi_thunks.obj
 0002:000111b4       $unwind$__acrt_AppPolicyGetProcessTerminationMethodInternal 00000001400521b4     libucrtd:winapi_thunks.obj
 0002:000111b4       $unwind$??R<lambda_bd5a608237428601b7e45fbdc72b1ae8>@@QEBAXXZ 00000001400521b4     libucrtd:mbctype.obj
 0002:000111b4       $unwind$?validate@?$c_string_character_source@_W@__crt_strtox@@QEBA_NXZ 00000001400521b4     libucrtd:output.obj
 0002:000111b4       $unwind$?force_synchronize_per_thread_data@__crt_cached_ptd_host@@AEAAPEAU__acrt_ptd@@XZ 00000001400521b4     libucrtd:output.obj
 0002:000111b4       $unwind$?is_contraction_possible@@YA_N_K@Z 00000001400521b4     libucrtd:expand.obj
 0002:000111b4       $unwind$?validate@?$c_string_character_source@D@__crt_strtox@@QEBA_NXZ 00000001400521b4     libucrtd:output.obj
 0002:000111b4       $unwind$__acrt_free_locale 00000001400521b4     libucrtd:locale_refcounting.obj
 0002:000111b4       $unwind$_freea_crt         00000001400521b4     libucrtd:getstringtypea.obj
 0002:000111b4       $unwind$??R<lambda_af29824b49a67d335554598d6cad2be6>@@QEBAHXZ 00000001400521b4     libucrtd:close.obj
 0002:000111b4       $unwind$?GetTableIndexFromLocaleName@@YAHPEB_W@Z 00000001400521b4     libucrtd:lcidtoname_downlevel.obj
 0002:000111b4       $unwind$?state_case_normal@?$output_processor@_WV?$string_output_adapter@_W@__crt_stdio_output@@V?$format_validation_base@_WV?$string_output_adapter@_W@__crt_stdio_output@@@2@@__crt_stdio_output@@AEAA_NXZ 00000001400521b4     libucrtd:output.obj
 0002:000111b4       $unwind$?issue_debug_notification@@YA_NQEB_W@Z 00000001400521b4     libucrtd:report_runtime_error.obj
 0002:000111b4       $unwind$_fileno            00000001400521b4     libucrtd:fileno.obj
 0002:000111b4       $unwind$__acrt_invoke_user_matherr 00000001400521b4     libucrtd:matherr.obj
 0002:000111b4       $unwind$__FrameUnwindFilter 00000001400521b4     libvcruntimed:ehhelpers.obj
 0002:000111b4       $unwind$??R<lambda_3e4146214822e0ea86c47ff907aef2ff>@@QEBAHXZ 00000001400521b4     libucrtd:commit.obj
 0002:000111b4       $unwind$_malloc_base       00000001400521b4     libucrtd:malloc_base.obj
 0002:000111b4       $unwind$?validate_and_update_state_at_end_of_format_string@?$format_validation_base@DV?$string_output_adapter@D@__crt_stdio_output@@@__crt_stdio_output@@IEAA_NXZ 00000001400521b4     libucrtd:output.obj
 0002:000111b4       $unwind$_execute_onexit_table 00000001400521b4     libucrtd:onexit.obj
 0002:000111b4       $unwind$?validate_and_update_state_at_end_of_format_string@?$format_validation_base@_WV?$string_output_adapter@_W@__crt_stdio_output@@@__crt_stdio_output@@IEAA_NXZ 00000001400521b4     libucrtd:output.obj
 0002:000111b4       $unwind$__acrt_lowio_destroy_handle_array 00000001400521b4     libucrtd:osfinfo.obj
 0002:000111b4       $unwind$??$count_variables_in_environment_block@D@@YA?B_KQEAD@Z 00000001400521b4     libucrtd:environment_initialization.obj
 0002:000111bc       $unwind$__scrt_is_nonwritable_in_current_image 00000001400521bc     LIBCMTD:utility.obj
 0002:000111dc       $unwind$?initialize_stdio_handles_nolock@@YAXXZ 00000001400521dc     libucrtd:ioinit.obj
 0002:000111dc       $unwind$??$common_wincmdln@E@@YAPEAEXZ 00000001400521dc     libucrtd:argv_winmain.obj
 0002:000111dc       $unwind$__scrt_acquire_startup_lock 00000001400521dc     LIBCMTD:utility.obj
 0002:000111dc       $unwind$?__dcrt_lowio_initialize_console_output@@YAXXZ 00000001400521dc     libucrtd:initcon.obj
 0002:000111dc       $unwind$__acrt_initialize_fmode 00000001400521dc     libucrtd:txtmode.obj
 0002:000111e4       $unwind$__scrt_uninitialize_crt 00000001400521e4     LIBCMTD:utility.obj
 0002:000111e4       $unwind$_control87         00000001400521e4     libucrtd:ieee.obj
 0002:000111e4       $unwind$??$is_overflow_condition@K@__crt_strtox@@YA_NIK@Z 00000001400521e4     libucrtd:output.obj
 0002:000111ec       $unwind$__scrt_initialize_onexit_tables 00000001400521ec     LIBCMTD:utility.obj
 0002:000111f8       $unwind$_updatetlocinfoEx_nolock 00000001400521f8     libucrtd:locale_refcounting.obj
 0002:000111f8       $unwind$?_CallMemberFunction0@@YAXQEAX0@Z 00000001400521f8     libvcruntimed:ehhelpers.obj
 0002:000111f8       $unwind$?try_get_first_available_module@@YAPEAUHINSTANCE__@@QEBW4module_id@?A0x391cf84c@@0@Z 00000001400521f8     libucrtd:winapi_thunks.obj
 0002:000111f8       $unwind$_CreateFrameInfo   00000001400521f8     libvcruntimed:risctrnsctrl.obj
 0002:000111f8       $unwind$?allocate@?$__crt_win32_buffer@DU__crt_win32_buffer_no_resizing@@@@QEAAH_K@Z 00000001400521f8     libucrtd:getmodulefilenamea.obj
 0002:000111f8       $unwind$?append@?$argument_list@D@?A0x5f5c8891@@QEAAHQEAD@Z 00000001400521f8     libucrtd:argv_wildcards.obj
 0002:000111f8       $unwind$??9iterator@HandlerMap@__FrameHandler3@@QEBA_NAEBV012@@Z 00000001400521f8     libvcruntimed:frame.obj
 0002:000111f8       $unwind$?allocate@?$__crt_win32_buffer@_WU__crt_win32_buffer_internal_dynamic_resizing@@@@QEAAH_K@Z 00000001400521f8     libucrtd:argv_wildcards.obj
 0002:000111f8       $unwind$??$extract_argument_from_va_list@U_CRT_DOUBLE@@U1@@?$standard_base@DV?$string_output_adapter@D@__crt_stdio_output@@@__crt_stdio_output@@IEAA_NAEAU_CRT_DOUBLE@@@Z 00000001400521f8     libucrtd:output.obj
 0002:000111f8       $unwind$?_fflush_nolock_internal@@YAHQEAU_iobuf@@AEAV__crt_cached_ptd_host@@@Z 00000001400521f8     libucrtd:fflush.obj
 0002:000111f8       $unwind$??$common_strnlen_c@$00G@@YA_KQEBG_K@Z 00000001400521f8     libucrtd:strnlen.obj
 0002:000111f8       $unwind$?free_crt_array_internal@@YAXQEAPEBX_K@Z 00000001400521f8     libucrtd:inittime.obj
 0002:000111f8       $unwind$??$extract_argument_from_va_list@U_CRT_DOUBLE@@U1@@?$standard_base@_WV?$string_output_adapter@_W@__crt_stdio_output@@@__crt_stdio_output@@IEAA_NAEAU_CRT_DOUBLE@@@Z 00000001400521f8     libucrtd:output.obj
 0002:000111f8       $unwind$??4big_integer@__crt_strtox@@QEAAAEAU01@AEBU01@@Z 00000001400521f8     libucrtd:cfout.obj
 0002:000111f8       $unwind$??$common_strnlen_c@$0A@G@@YA_KQEBG_K@Z 00000001400521f8     libucrtd:strnlen.obj
 0002:000111f8       $unwind$??9__crt_strtox@@YA_NAEBUbig_integer@0@0@Z 00000001400521f8     libucrtd:cfout.obj
 0002:000111f8       $unwind$_realloc_base      00000001400521f8     libucrtd:realloc_base.obj
 0002:000111f8       $unwind$?internal_getptd_noexit@@YAPEAU__acrt_ptd@@AEBV__crt_scoped_get_last_error_reset@@_K@Z 00000001400521f8     libucrtd:per_thread_data.obj
 0002:000111f8       $unwind$??8type_info@@QEBA_NAEBV0@@Z 00000001400521f8     libvcruntimed:frame.obj
 0002:000111f8       $unwind$_initterm          00000001400521f8     libucrtd:initterm.obj
 0002:000111f8       $unwind$??0big_integer@__crt_strtox@@QEAA@AEBU01@@Z 00000001400521f8     libucrtd:cfout.obj
 0002:000111f8       $unwind$?StateFromControlPc@__FrameHandler3@@SAHPEBU_s_FuncInfo@@PEAU_xDISPATCHER_CONTEXT@@@Z 00000001400521f8     libvcruntimed:ehstate.obj
 0002:000111f8       $unwind$?get_file_name@@YAPEADQEAV?$__crt_win32_buffer@DU__crt_win32_buffer_internal_dynamic_resizing@@@@QEA_W@Z 00000001400521f8     libucrtd:argv_wildcards.obj
 0002:000111f8       $unwind$?find_pe_section@@YAPEAU_IMAGE_SECTION_HEADER@@QEAE_K@Z 00000001400521f8     LIBCMTD:utility.obj
 0002:000111f8       $unwind$??$common_strnlen_c@$0A@E@@YA_KQEBE_K@Z 00000001400521f8     libucrtd:strnlen.obj
 0002:000111f8       $unwind$??$initialize_from_array@$$BY10BAB@E@?$dual_state_global@PEAE@__crt_state_management@@QEAAXAEAY10BAB@E@Z 00000001400521f8     libucrtd:mbctype.obj
 0002:000111f8       $unwind$??$initialize_from_array@$$BY10BAA@E@?$dual_state_global@PEAE@__crt_state_management@@QEAAXAEAY10BAA@E@Z 00000001400521f8     libucrtd:mbctype.obj
 0002:000111f8       $unwind$?ExecutionInCatch@__FrameHandler3@@SA_NPEAU_xDISPATCHER_CONTEXT@@PEBU_s_FuncInfo@@@Z 00000001400521f8     libvcruntimed:risctrnsctrl.obj
 0002:000111f8       $unwind$?try_get_first_available_module@@YAPEAUHINSTANCE__@@QEBW4module_id@?A0xbfd18cd1@@0@Z 00000001400521f8     libvcruntimed:winapi_downlevel.obj
 0002:000111f8       $unwind$?allocate@?$__crt_win32_buffer@DU__crt_win32_buffer_internal_dynamic_resizing@@@@QEAAH_K@Z 00000001400521f8     libucrtd:argv_wildcards.obj
 0002:000111f8       $unwind$?force_decimal_point@__crt_stdio_output@@YAXPEADQEAU__crt_locale_pointers@@@Z 00000001400521f8     libucrtd:output.obj
 0002:000111f8       $unwind$?common_flush_all_should_try_to_flush_stream@@YA_NV__crt_stdio_stream@@QEAH@Z 00000001400521f8     libucrtd:fflush.obj
 0002:000111f8       $unwind$??$initialize_from_array@$$BY00Q6AXPEB_W00I_K@Z@?$dual_state_global@P6AXPEB_W00I_K@Z@__crt_state_management@@QEAAXAEAY00Q6AXPEB_W00I_K@Z@Z 00000001400521f8     libucrtd:invalid_parameter.obj
 0002:000111f8       $unwind$?get_wide@@YAPEA_WQEAV?$__crt_win32_buffer@_WU__crt_win32_buffer_internal_dynamic_resizing@@@@QEAD@Z 00000001400521f8     libucrtd:argv_wildcards.obj
 0002:00011200       $unwind$__get_entropy      0000000140052200     LIBCMTD:gs_support.obj
 0002:00011208       $unwind$?get_zero_pack@?$__crt_simd_pack_traits@$0A@@@SA?AT__m128i@@XZ 0000000140052208     libucrtd:strnlen.obj
 0002:00011208       $unwind$_get_printf_count_output 0000000140052208     libucrtd:printf_count_output.obj
 0002:00011208       $unwind$__acrt_locale_changed 0000000140052208     libucrtd:debug_heap.obj
 0002:00011208       $unwind$__scrt_is_user_matherr_present 0000000140052208     LIBCMTD:matherr_detection.obj
 0002:00011208       $unwind$__scrt_is_ucrt_dll_in_use 0000000140052208     LIBCMTD:ucrt_detection.obj
 0002:00011210       $unwind$__scrt_get_show_window_mode 0000000140052210     LIBCMTD:utility_desktop.obj
 0002:0001121c       $unwind$__scrt_fastfail    000000014005221c     LIBCMTD:utility_desktop.obj
 0002:00011228       $unwind$_RTC_Initialize    0000000140052228     LIBCMTD:initsect.obj
 0002:00011228       $unwind$_RTC_Terminate     0000000140052228     LIBCMTD:initsect.obj
 0002:00011234       $unwind$?is_first_surrogate@?A0xc60ee810@@YA_N_S@Z 0000000140052234     libucrtd:c16rtomb.obj
 0002:00011234       $unwind$?valid@__crt_stdio_stream@@QEBA_NXZ 0000000140052234     libucrtd:output.obj
 0002:00011234       $unwind$?is_valid@?$__crt_unique_heap_ptr@U__vcrt_ptd@@U__crt_internal_free_policy@@@@QEBA_NXZ 0000000140052234     libvcruntimed:per_thread_data.obj
 0002:00011234       $unwind$??$read_va_arg@U_CRT_DOUBLE@@@__crt_stdio_output@@YA?AU_CRT_DOUBLE@@AEAPEAD@Z 0000000140052234     libucrtd:output.obj
 0002:00011234       $unwind$?detach@?$__crt_unique_heap_ptr@EU__crt_internal_free_policy@@@@QEAAPEAEXZ 0000000140052234     libucrtd:argv_parsing.obj
 0002:00011234       $unwind$?detach@?$__crt_unique_heap_ptr@PEAU__crt_stdio_stream_data@@U__crt_internal_free_policy@@@@QEAAPEAPEAU__crt_stdio_stream_data@@XZ 0000000140052234     libucrtd:_file.obj
 0002:00011234       $unwind$?detach@?$__crt_unique_heap_ptr@U__acrt_ptd@@U__crt_internal_free_policy@@@@QEAAPEAU__acrt_ptd@@XZ 0000000140052234     libucrtd:per_thread_data.obj
 0002:00011234       $unwind$?is_zero@__crt_strtox@@YA_NAEBUbig_integer@1@@Z 0000000140052234     libucrtd:cfout.obj
 0002:00011234       $unwind$?has_surrogate@?A0xc60ee810@@YA_NPEAU_Mbstatet@@@Z 0000000140052234     libucrtd:c16rtomb.obj
 0002:00011234       $unwind$??$read_va_arg@C@__crt_stdio_output@@YACAEAPEAD@Z 0000000140052234     libucrtd:output.obj
 0002:00011234       $unwind$?detach@?$__crt_unique_heap_ptr@P6AXXZU__crt_internal_free_policy@@@@QEAAPEAP6AXXZXZ 0000000140052234     libucrtd:onexit.obj
 0002:00011234       $unwind$??$read_va_arg@F@__crt_stdio_output@@YAFAEAPEAD@Z 0000000140052234     libucrtd:output.obj
 0002:00011234       $unwind$?advance_to_next_pass@?$standard_base@DV?$string_output_adapter@D@__crt_stdio_output@@@__crt_stdio_output@@IEAA_NXZ 0000000140052234     libucrtd:output.obj
 0002:00011234       $unwind$?is_valid@?$__crt_unique_heap_ptr@U__crt_lowio_handle_data@@U__crt_internal_free_policy@@@@QEBA_NXZ 0000000140052234     libucrtd:osfinfo.obj
 0002:00011234       $unwind$?get@?$c_string_character_source@_W@__crt_strtox@@QEAA_WXZ 0000000140052234     libucrtd:output.obj
 0002:00011234       $unwind$?detach@?$__crt_unique_heap_ptr@DU__crt_internal_free_policy@@@@QEAAPEADXZ 0000000140052234     libucrtd:environment_initialization.obj
 0002:00011234       $unwind$??$read_va_arg@I@__crt_stdio_output@@YAIAEAPEAD@Z 0000000140052234     libucrtd:output.obj
 0002:00011234       $unwind$??$read_va_arg@_K@__crt_stdio_output@@YA_KAEAPEAD@Z 0000000140052234     libucrtd:output.obj
 0002:00011234       $unwind$?is_valid@?$__crt_unique_heap_ptr@U__acrt_ptd@@U__crt_internal_free_policy@@@@QEBA_NXZ 0000000140052234     libucrtd:per_thread_data.obj
 0002:00011234       $unwind$ReadNoFence64      0000000140052234     LIBCMTD:guard_support.obj
 0002:00011234       $unwind$?__crt_interlocked_read_32@@YAHPEDH@Z 0000000140052234     libucrtd:exit.obj
 0002:00011234       $unwind$?what@exception@std@@UEBAPEBDXZ 0000000140052234     libvcruntimed:frame.obj
 0002:00011234       $unwind$?detach@?$__crt_unique_heap_ptr@U__vcrt_ptd@@U__crt_internal_free_policy@@@@QEAAPEAU__vcrt_ptd@@XZ 0000000140052234     libvcruntimed:per_thread_data.obj
 0002:00011234       $unwind$?is_valid@?$__crt_unique_heap_ptr@DU__crt_internal_free_policy@@@@QEBA_NXZ 0000000140052234     libvcruntimed:std_type_info.obj
 0002:00011234       $unwind$?setSBCS@@YAXPEAU__crt_multibyte_data@@@Z 0000000140052234     libucrtd:mbctype.obj
 0002:00011234       $unwind$??$read_va_arg@_W@__crt_stdio_output@@YA_WAEAPEAD@Z 0000000140052234     libucrtd:output.obj
 0002:00011234       $unwind$__acrt_get_locale_data_prefix 0000000140052234     libucrtd:debug_heap.obj
 0002:00011234       $unwind$?__crt_interlocked_read_64@@YA_JPED_J@Z 0000000140052234     libvcruntimed:std_type_info.obj
 0002:00011234       $unwind$?detach@?$__crt_unique_heap_ptr@U__crt_lowio_handle_data@@U__crt_internal_free_policy@@@@QEAAPEAU__crt_lowio_handle_data@@XZ 0000000140052234     libucrtd:osfinfo.obj
 0002:00011234       $unwind$?is_valid@?$__crt_unique_heap_ptr@PEADU__crt_internal_free_policy@@@@QEBA_NXZ 0000000140052234     libucrtd:environment_initialization.obj
 0002:00011234       $unwind$?is_valid@?$__crt_unique_heap_ptr@EU__crt_internal_free_policy@@@@QEBA_NXZ 0000000140052234     libucrtd:argv_parsing.obj
 0002:00011234       $unwind$_CrtSetDumpClient  0000000140052234     libucrtd:debug_heap.obj
 0002:00011234       $unwind$?is_second_surrogate@?A0xc60ee810@@YA_N_S@Z 0000000140052234     libucrtd:c16rtomb.obj
 0002:00011234       $unwind$?advance_to_next_pass@?$standard_base@_WV?$string_output_adapter@_W@__crt_stdio_output@@@__crt_stdio_output@@IEAA_NXZ 0000000140052234     libucrtd:output.obj
 0002:00011234       $unwind$??$read_va_arg@PEAX@__crt_stdio_output@@YAPEAXAEAPEAD@Z 0000000140052234     libucrtd:output.obj
 0002:00011234       $unwind$_MallocaComputeSize 0000000140052234     libucrtd:getstringtypea.obj
 0002:00011234       $unwind$?__crt_fast_encode_pointer@@YA?AU__crt_fast_encoded_nullptr_t@@$$T@Z 0000000140052234     libvcruntimed:winapi_downlevel.obj
 0002:00011234       $unwind$??$read_va_arg@H@__crt_stdio_output@@YAHAEAPEAD@Z 0000000140052234     libucrtd:output.obj
 0002:00011234       $unwind$?detach@?$__crt_unique_heap_ptr@U__crt_multibyte_data@@U__crt_internal_free_policy@@@@QEAAPEAU__crt_multibyte_data@@XZ 0000000140052234     libucrtd:wsetlocale.obj
 0002:00011234       $unwind$?detach@?$__crt_unique_heap_ptr@PEADU__crt_internal_free_policy@@@@QEAAPEAPEADXZ 0000000140052234     libucrtd:argv_parsing.obj
 0002:00011234       $unwind$??$read_va_arg@PEAD@__crt_stdio_output@@YAPEADAEAPEAD@Z 0000000140052234     libucrtd:output.obj
 0002:00011234       $unwind$?__acrt_fp_is_negative@@YA_NAEBN@Z 0000000140052234     libucrtd:cvt.obj
 0002:00011234       $unwind$??$read_va_arg@_J@__crt_stdio_output@@YA_JAEAPEAD@Z 0000000140052234     libucrtd:output.obj
 0002:00011234       $unwind$?__acrt_fp_classify@@YA?AW4__acrt_fp_class@@AEBN@Z 0000000140052234     libucrtd:cvt.obj
 0002:00011234       $unwind$??$read_va_arg@PEAUansi_string@?1??type_case_Z@?$output_processor@DV?$string_output_adapter@D@__crt_stdio_output@@V?$format_validation_base@DV?$string_output_adapter@D@__crt_stdio_output@@@2@@__crt_stdio_output@@AEAA_NXZ@@__crt_stdio_output@@YAPEAUansi_string@?1??type_case_Z@?$output_processor@DV?$string_output_adapter@D@__crt_stdio_output@@V?$format_validation_base@DV?$string_output_adapter@D@__crt_stdio_output@@@2@@0@AEAA_NXZ@AEAPEAD@Z 0000000140052234     libucrtd:output.obj
 0002:00011234       $unwind$?isEHs@__FrameHandler3@@SA_NPEBU_s_FuncInfo@@@Z 0000000140052234     libvcruntimed:frame.obj
 0002:00011234       $unwind$??$read_va_arg@G@__crt_stdio_output@@YAGAEAPEAD@Z 0000000140052234     libucrtd:output.obj
 0002:00011234       $unwind$??$read_va_arg@PEAUansi_string@?1??type_case_Z@?$output_processor@_WV?$string_output_adapter@_W@__crt_stdio_output@@V?$format_validation_base@_WV?$string_output_adapter@_W@__crt_stdio_output@@@2@@__crt_stdio_output@@AEAA_NXZ@@__crt_stdio_output@@YAPEAUansi_string@?1??type_case_Z@?$output_processor@_WV?$string_output_adapter@_W@__crt_stdio_output@@V?$format_validation_base@_WV?$string_output_adapter@_W@__crt_stdio_output@@@2@@0@AEAA_NXZ@AEAPEAD@Z 0000000140052234     libucrtd:output.obj
 0002:00011234       $unwind$?is_valid@?$__crt_unique_heap_ptr@DU__crt_public_free_policy@@@@QEBA_NXZ 0000000140052234     libvcruntimed:std_exception.obj
 0002:00011234       $unwind$??B?$__crt_scoped_stack_ptr@_W@@QEBA_NXZ 0000000140052234     libucrtd:lcmapstringa.obj
 0002:00011234       $unwind$?isNoExcept@__FrameHandler3@@SA_NPEBU_s_FuncInfo@@@Z 0000000140052234     libvcruntimed:frame.obj
 0002:00011234       $unwind$?is_valid@?$__crt_unique_heap_ptr@U__crt_multibyte_data@@U__crt_internal_free_policy@@@@QEBA_NXZ 0000000140052234     libucrtd:wsetlocale.obj
 0002:00011234       $unwind$_handle_nan        0000000140052234     libucrtd:libm_error.obj
 0002:00011234       $unwind$?get@?$c_string_character_source@D@__crt_strtox@@QEAADXZ 0000000140052234     libucrtd:output.obj
 0002:00011234       $unwind$??$read_va_arg@E@__crt_stdio_output@@YAEAEAPEAD@Z 0000000140052234     libucrtd:output.obj
 0002:00011234       $unwind$__acrt_should_sync_with_global_locale 0000000140052234     libucrtd:mbctype.obj
 0002:00011234       $unwind$?detach@?$__crt_unique_heap_ptr@DU__crt_public_free_policy@@@@QEAAPEADXZ 0000000140052234     libvcruntimed:std_exception.obj
 0002:0001123c       $unwind$__isa_available_init 000000014005223c     LIBCMTD:cpu_disp.obj
 0002:00011250       $xdatasym                  0000000140052250     LIBCMTD:guard_dispatch.obj
 0002:00011254       $unwind$??$common_vsprintf_s@D@@YAH_KQEAD0QEBDAEAV__crt_cached_ptd_host@@1@Z 0000000140052254     libucrtd:output.obj
 0002:00011254       $unwind$__stdio_common_vsnprintf_s 0000000140052254     libucrtd:output.obj
 0002:00011254       $unwind$__C_specific_handler 0000000140052254     libvcruntimed:riscchandler.obj
 0002:00011254       $unwind$??$__InternalCxxFrameHandler@V__FrameHandler3@@@@YA?AW4_EXCEPTION_DISPOSITION@@PEAUEHExceptionRecord@@PEA_KPEAU_CONTEXT@@PEAU_xDISPATCHER_CONTEXT@@PEBU_s_FuncInfo@@H1E@Z 0000000140052254     libvcruntimed:frame.obj
 0002:00011254       $unwind$__stdio_common_vsnwprintf_s 0000000140052254     libucrtd:output.obj
 0002:00011254       $unwind$??$parse_integer@KV?$c_string_character_source@D@__crt_strtox@@$0A@@__crt_strtox@@YAKAEAV__crt_cached_ptd_host@@V?$c_string_character_source@D@0@H_N@Z 0000000140052254     libucrtd:output.obj
 0002:0001125c       $unwind$??$?RP6AXXZ@__crt_internal_free_policy@@QEBAXQEBQ6AXXZ@Z 000000014005225c     libucrtd:onexit.obj
 0002:0001125c       $unwind$??3@YAXPEAX_K@Z    000000014005225c     LIBCMTD:delete_scalar_size.obj
 0002:0001125c       $unwind$??$?RD@__crt_public_free_policy@@QEBAXQEBD@Z 000000014005225c     libvcruntimed:std_exception.obj
 0002:0001125c       $unwind$?expand_argv_wildcards@@YAHQEAPEADQEAPEAPEAD@Z 000000014005225c     libucrtd:argv_parsing.obj
 0002:0001125c       $unwind$??0?$common_data@_W@__crt_stdio_output@@IEAA@AEAV__crt_cached_ptd_host@@@Z 000000014005225c     libucrtd:output.obj
 0002:0001125c       $unwind$??$extract_argument_from_va_list@H_J@?$standard_base@DV?$string_output_adapter@D@__crt_stdio_output@@@__crt_stdio_output@@IEAA_NAEA_J@Z 000000014005225c     libucrtd:output.obj
 0002:0001125c       $unwind$??$extract_argument_from_va_list@PEADPEAD@?$standard_base@_WV?$string_output_adapter@_W@__crt_stdio_output@@@__crt_stdio_output@@IEAA_NAEAPEAD@Z 000000014005225c     libucrtd:output.obj
 0002:0001125c       $unwind$__std_type_info_compare 000000014005225c     libvcruntimed:std_type_info.obj
 0002:0001125c       $unwind$??$extract_argument_from_va_list@PEAXPEAX@?$standard_base@DV?$string_output_adapter@D@__crt_stdio_output@@@__crt_stdio_output@@IEAA_NAEAPEAX@Z 000000014005225c     libucrtd:output.obj
 0002:0001125c       $unwind$??4?$__crt_unique_heap_ptr@DU__crt_internal_free_policy@@@@QEAAAEAV0@$$QEAV0@@Z 000000014005225c     libucrtd:output.obj
 0002:0001125c       $unwind$__acrt_update_multibyte_info 000000014005225c     libucrtd:locale_update.obj
 0002:0001125c       $unwind$??$extract_argument_from_va_list@I_J@?$standard_base@DV?$string_output_adapter@D@__crt_stdio_output@@@__crt_stdio_output@@IEAA_NAEA_J@Z 000000014005225c     libucrtd:output.obj
 0002:0001125c       $unwind$??$extract_argument_from_va_list@G_J@?$standard_base@DV?$string_output_adapter@D@__crt_stdio_output@@@__crt_stdio_output@@IEAA_NAEA_J@Z 000000014005225c     libucrtd:output.obj
 0002:0001125c       $unwind$??$?RU__acrt_ptd@@@__crt_internal_free_policy@@QEBAXQEBU__acrt_ptd@@@Z 000000014005225c     libucrtd:per_thread_data.obj
 0002:0001125c       $unwind$__acrt_update_locale_info 000000014005225c     libucrtd:locale_update.obj
 0002:0001125c       $unwind$??$extract_argument_from_va_list@PEADPEAD@?$standard_base@DV?$string_output_adapter@D@__crt_stdio_output@@@__crt_stdio_output@@IEAA_NAEAPEAD@Z 000000014005225c     libucrtd:output.obj
 0002:0001125c       $unwind$??$extract_argument_from_va_list@C_J@?$standard_base@_WV?$string_output_adapter@_W@__crt_stdio_output@@@__crt_stdio_output@@IEAA_NAEA_J@Z 000000014005225c     libucrtd:output.obj
 0002:0001125c       $unwind$?strpbrk@@YAPEADQEADQEBD@Z 000000014005225c     libucrtd:argv_wildcards.obj
 0002:0001125c       $unwind$?create_guard@?$cached@H@__crt_cached_ptd_host@@QEAA?AVguard@12@XZ 000000014005225c     libucrtd:output.obj
 0002:0001125c       $unwind$??R<lambda_af27fe6ede5d83bbdbd622796c194e9c>@@QEBAXAEAPEAU__crt_multibyte_data@@@Z 000000014005225c     libucrtd:initialization.obj
 0002:0001125c       $unwind$??$extract_argument_from_va_list@E_J@?$standard_base@_WV?$string_output_adapter@_W@__crt_stdio_output@@@__crt_stdio_output@@IEAA_NAEA_J@Z 000000014005225c     libucrtd:output.obj
 0002:0001125c       $unwind$??0?$common_data@D@__crt_stdio_output@@IEAA@AEAV__crt_cached_ptd_host@@@Z 000000014005225c     libucrtd:output.obj
 0002:0001125c       $unwind$??$extract_argument_from_va_list@_W_W@?$standard_base@_WV?$string_output_adapter@_W@__crt_stdio_output@@@__crt_stdio_output@@IEAA_NAEA_W@Z 000000014005225c     libucrtd:output.obj
 0002:0001125c       $unwind$?force_synchronize_global_state_index@__crt_cached_ptd_host@@AEAA_KAEBV__crt_scoped_get_last_error_reset@@@Z 000000014005225c     libucrtd:output.obj
 0002:0001125c       $unwind$??$extract_argument_from_va_list@F_J@?$standard_base@_WV?$string_output_adapter@_W@__crt_stdio_output@@@__crt_stdio_output@@IEAA_NAEA_J@Z 000000014005225c     libucrtd:output.obj
 0002:0001125c       $unwind$??$extract_argument_from_va_list@F_J@?$standard_base@DV?$string_output_adapter@D@__crt_stdio_output@@@__crt_stdio_output@@IEAA_NAEA_J@Z 000000014005225c     libucrtd:output.obj
 0002:0001125c       $unwind$??$?RU__vcrt_ptd@@@__crt_internal_free_policy@@QEBAXQEBU__vcrt_ptd@@@Z 000000014005225c     libvcruntimed:per_thread_data.obj
 0002:0001125c       $unwind$?check_synchronize_global_state_index@__crt_cached_ptd_host@@AEAA_KAEBV__crt_scoped_get_last_error_reset@@@Z 000000014005225c     libucrtd:output.obj
 0002:0001125c       $unwind$??$extract_argument_from_va_list@G_J@?$standard_base@_WV?$string_output_adapter@_W@__crt_stdio_output@@@__crt_stdio_output@@IEAA_NAEA_J@Z 000000014005225c     libucrtd:output.obj
 0002:0001125c       $unwind$??$extract_argument_from_va_list@_W_W@?$standard_base@DV?$string_output_adapter@D@__crt_stdio_output@@@__crt_stdio_output@@IEAA_NAEA_W@Z 000000014005225c     libucrtd:output.obj
 0002:0001125c       $unwind$??$extract_argument_from_va_list@_K_J@?$standard_base@_WV?$string_output_adapter@_W@__crt_stdio_output@@@__crt_stdio_output@@IEAA_NAEA_J@Z 000000014005225c     libucrtd:output.obj
 0002:0001125c       $unwind$??$?RPEAD@__crt_internal_free_policy@@QEBAXQEBQEAD@Z 000000014005225c     libucrtd:argv_parsing.obj
 0002:0001125c       $unwind$_mbsdec            000000014005225c     libucrtd:mbsdec.obj
 0002:0001125c       $unwind$??$extract_argument_from_va_list@GD@?$standard_base@DV?$string_output_adapter@D@__crt_stdio_output@@@__crt_stdio_output@@IEAA_NAEAD@Z 000000014005225c     libucrtd:output.obj
 0002:0001125c       $unwind$??R<lambda_363eea9039da1e8169e2d060c7fe5cbc>@@QEBAXAEAPEAU__crt_locale_data@@@Z 000000014005225c     libucrtd:wsetlocale.obj
 0002:0001125c       $unwind$??$extract_argument_from_va_list@E_J@?$standard_base@DV?$string_output_adapter@D@__crt_stdio_output@@@__crt_stdio_output@@IEAA_NAEA_J@Z 000000014005225c     libucrtd:output.obj
 0002:0001125c       $unwind$??$extract_argument_from_va_list@H_J@?$standard_base@_WV?$string_output_adapter@_W@__crt_stdio_output@@@__crt_stdio_output@@IEAA_NAEA_J@Z 000000014005225c     libucrtd:output.obj
 0002:0001125c       $unwind$__acrt_expand_narrow_argv_wildcards 000000014005225c     libucrtd:argv_wildcards.obj
 0002:0001125c       $unwind$??$extract_argument_from_va_list@PEAUansi_string@?1??type_case_Z@?$output_processor@DV?$string_output_adapter@D@__crt_stdio_output@@V?$format_validation_base@DV?$string_output_adapter@D@__crt_stdio_output@@@2@@__crt_stdio_output@@AEAA_NXZ@PEAU1?1??234@AEAA_NXZ@@?$standard_base@DV?$string_output_adapter@D@__crt_stdio_output@@@__crt_stdio_output@@IEAA_NAEAPEAUansi_string@?1??type_case_Z@?$output_processor@DV?$string_output_adapter@D@__crt_stdio_output@@V?$format_validation_base@DV?$string_output_adapter@D@__crt_stdio_output@@@2@@1@AEAA_NXZ@@Z 000000014005225c     libucrtd:output.obj
 0002:0001125c       $unwind$??$?RU__crt_lowio_handle_data@@@__crt_internal_free_policy@@QEBAXQEBU__crt_lowio_handle_data@@@Z 000000014005225c     libucrtd:osfinfo.obj
 0002:0001125c       $unwind$??$extract_argument_from_va_list@_J_J@?$standard_base@DV?$string_output_adapter@D@__crt_stdio_output@@@__crt_stdio_output@@IEAA_NAEA_J@Z 000000014005225c     libucrtd:output.obj
 0002:0001125c       $unwind$??$common_strnlen@$00G@@YA_KQEBG_K@Z 000000014005225c     libucrtd:strnlen.obj
 0002:0001125c       $unwind$??0bad_exception@std@@QEAA@AEBV01@@Z 000000014005225c     libvcruntimed:frame.obj
 0002:0001125c       $unwind$?previous_character@@YAPEADQEAD0@Z 000000014005225c     libucrtd:argv_wildcards.obj
 0002:0001125c       $unwind$??$extract_argument_from_va_list@I_J@?$standard_base@_WV?$string_output_adapter@_W@__crt_stdio_output@@@__crt_stdio_output@@IEAA_NAEA_J@Z 000000014005225c     libucrtd:output.obj
 0002:0001125c       $unwind$?crop_zeroes@__crt_stdio_output@@YAXPEADQEAU__crt_locale_pointers@@@Z 000000014005225c     libucrtd:output.obj
 0002:0001125c       $unwind$??$extract_argument_from_va_list@PEAXPEAX@?$standard_base@_WV?$string_output_adapter@_W@__crt_stdio_output@@@__crt_stdio_output@@IEAA_NAEAPEAX@Z 000000014005225c     libucrtd:output.obj
 0002:0001125c       $unwind$??$extract_argument_from_va_list@_J_J@?$standard_base@_WV?$string_output_adapter@_W@__crt_stdio_output@@@__crt_stdio_output@@IEAA_NAEA_J@Z 000000014005225c     libucrtd:output.obj
 0002:0001125c       $unwind$??$common_strnlen@$0A@G@@YA_KQEBG_K@Z 000000014005225c     libucrtd:strnlen.obj
 0002:0001125c       $unwind$_FindPESection     000000014005225c     LIBCMTD:pesect.obj
 0002:0001125c       $unwind$??$common_strnlen@$0A@E@@YA_KQEBE_K@Z 000000014005225c     libucrtd:strnlen.obj
 0002:0001125c       $unwind$?<lambda_invoker_cdecl>@<lambda_a1ce4c8ae42411fd470c77163914f50e>@@CAHPEBX0@Z 000000014005225c     libucrtd:argv_wildcards.obj
 0002:0001125c       $unwind$??$__crt_get_proc_address@P6AXI@Z@@YAP6AXI@ZQEAUHINSTANCE__@@QEBD@Z 000000014005225c     libucrtd:exit.obj
 0002:0001125c       $unwind$??$extract_argument_from_va_list@_K_J@?$standard_base@DV?$string_output_adapter@D@__crt_stdio_output@@@__crt_stdio_output@@IEAA_NAEA_J@Z 000000014005225c     libucrtd:output.obj
 0002:0001125c       $unwind$??$?RPEAU__crt_stdio_stream_data@@@__crt_internal_free_policy@@QEBAXQEBQEAU__crt_stdio_stream_data@@@Z 000000014005225c     libucrtd:_file.obj
 0002:0001125c       $unwind$__acrt_getptd_noexit_explicit 000000014005225c     libucrtd:per_thread_data.obj
 0002:0001125c       $unwind$??$extract_argument_from_va_list@C_J@?$standard_base@DV?$string_output_adapter@D@__crt_stdio_output@@@__crt_stdio_output@@IEAA_NAEA_J@Z 000000014005225c     libucrtd:output.obj
 0002:0001125c       $unwind$??$extract_argument_from_va_list@PEAUansi_string@?1??type_case_Z@?$output_processor@_WV?$string_output_adapter@_W@__crt_stdio_output@@V?$format_validation_base@_WV?$string_output_adapter@_W@__crt_stdio_output@@@2@@__crt_stdio_output@@AEAA_NXZ@PEAU1?1??234@AEAA_NXZ@@?$standard_base@_WV?$string_output_adapter@_W@__crt_stdio_output@@@__crt_stdio_output@@IEAA_NAEAPEAUansi_string@?1??type_case_Z@?$output_processor@_WV?$string_output_adapter@_W@__crt_stdio_output@@V?$format_validation_base@_WV?$string_output_adapter@_W@__crt_stdio_output@@@2@@1@AEAA_NXZ@@Z 000000014005225c     libucrtd:output.obj
 0002:0001125c       $unwind$??$?RU__crt_multibyte_data@@@__crt_internal_free_policy@@QEBAXQEBU__crt_multibyte_data@@@Z 000000014005225c     libucrtd:wsetlocale.obj
 0002:0001125c       $unwind$?replace_current_thread_locale_nolock@@YAXQEAU__acrt_ptd@@QEAU__crt_locale_data@@@Z 000000014005225c     libucrtd:per_thread_data.obj
 0002:0001125c       $unwind$??$?RE@__crt_internal_free_policy@@QEBAXQEBE@Z 000000014005225c     libucrtd:argv_parsing.obj
 0002:0001125c       $unwind$strnlen            000000014005225c     libucrtd:strnlen.obj
 0002:0001125c       $unwind$?end@HandlerMap@__FrameHandler3@@QEAA?AViterator@12@XZ 000000014005225c     libvcruntimed:frame.obj
 0002:0001125c       $unwind$??$?RD@__crt_internal_free_policy@@QEBAXQEBD@Z 000000014005225c     libvcruntimed:std_type_info.obj
 0002:0001125c       $unwind$?begin@HandlerMap@__FrameHandler3@@QEAA?AViterator@12@XZ 000000014005225c     libvcruntimed:frame.obj
 0002:0001125c       $unwind$?deallocate@__crt_win32_buffer_internal_dynamic_resizing@@SAXQEAXAEBV__crt_win32_buffer_empty_debug_info@@@Z 000000014005225c     libucrtd:argv_wildcards.obj
 0002:0001125c       $unwind$wcsnlen            000000014005225c     libucrtd:strnlen.obj
 0002:0001125c       $unwind$?value@?$dual_state_global@P6AXPEB_W00I_K@Z@__crt_state_management@@QEAAAEAP6AXPEB_W00I_K@ZAEAV__crt_cached_ptd_host@@@Z 000000014005225c     libucrtd:invalid_parameter.obj
 0002:00011268       $xdatasym                  0000000140052268     libvcruntimed:notify.obj
 0002:00011274       $unwind$??Miterator@TryBlockMap@__FrameHandler3@@QEBA_NAEBV012@@Z 0000000140052274     libvcruntimed:frame.obj
 0002:00011274       $unwind$??8iterator@HandlerMap@__FrameHandler3@@QEBA_NAEBV012@@Z 0000000140052274     libvcruntimed:frame.obj
 0002:00011274       $unwind$?compare_equals@?$__crt_simd_traits@$0A@E@@SA?AT__m128i@@T2@0@Z 0000000140052274     libucrtd:strnlen.obj
 0002:00011274       $unwind$__AdjustPointer    0000000140052274     libvcruntimed:ehhelpers.obj
 0002:00011274       $unwind$?compare_equals@?$__crt_simd_traits@$0A@G@@SA?AT__m128i@@T2@0@Z 0000000140052274     libucrtd:strnlen.obj
 0002:00011274       $unwind$?store_first_surrogate@?A0xc60ee810@@YAX_SPEAU_Mbstatet@@@Z 0000000140052274     libucrtd:c16rtomb.obj
 0002:00011274       $unwind$?initialize@?$dual_state_global@P6AHPEAU_exception@@@Z@__crt_state_management@@QEAAXQ6AHPEAU_exception@@@Z@Z 0000000140052274     libucrtd:matherr.obj
 0002:00011274       $unwind$?initialize@?$dual_state_global@P6AH_K@Z@__crt_state_management@@QEAAXQ6AH_K@Z@Z 0000000140052274     libucrtd:new_handler.obj
 0002:00011274       $unwind$?wcsncnt@@YA_KPEB_W_K@Z 0000000140052274     libucrtd:wcstombs.obj
 0002:00011274       $unwind$?initialize@?$dual_state_global@P6AXH@Z@__crt_state_management@@QEAAXQ6AXH@Z@Z 0000000140052274     libucrtd:signal.obj
 0002:00011274       $unwind$?initialize@?$dual_state_global@PEAU__crt_locale_data@@@__crt_state_management@@QEAAXQEAU__crt_locale_data@@@Z 0000000140052274     libucrtd:initialization.obj
 0002:00011274       $unwind$?initialize@?$dual_state_global@PEAPEAD@__crt_state_management@@QEAAXQEAPEAD@Z 0000000140052274     libucrtd:environment_initialization.obj
 0002:00011274       $unwind$??8__crt_strtox@@YA_NAEBUbig_integer@0@0@Z 0000000140052274     libucrtd:cfout.obj
 0002:00011274       $unwind$__strncnt          0000000140052274     libucrtd:strncnt.obj
 0002:00011274       $unwind$?initialize@?$dual_state_global@PEAU__crt_multibyte_data@@@__crt_state_management@@QEAAXQEAU__crt_multibyte_data@@@Z 0000000140052274     libucrtd:mbctype.obj
 0002:00011274       $unwind$??$last_reached@$0A@@@YA_NQEBX0@Z 0000000140052274     libucrtd:strnlen.obj
 0002:0001127c       $unwind$__DestructExceptionObject 000000014005227c     libvcruntimed:ehhelpers.obj
 0002:0001129c       $unwind$__vcrt_getptd_noexit 000000014005229c     libvcruntimed:per_thread_data.obj
 0002:000112a4       $unwind$?should_copy_another_character@@YA_ND@Z 00000001400522a4     libucrtd:argv_parsing.obj
 0002:000112a4       $unwind$?close_os_handle_nolock@@YAKH@Z 00000001400522a4     libucrtd:close.obj
 0002:000112a4       $unwind$?to_machine_sse_control@@YA?AW4__acrt_fenv_machine_sse_control@@W4__acrt_fenv_abstract_control@@@Z 00000001400522a4     libucrtd:_fenvutils.obj
 0002:000112a4       $unwind$__acrt_uninitialize_locks 00000001400522a4     libucrtd:locks.obj
 0002:000112a4       $unwind$__vcrt_FlsFree     00000001400522a4     libvcruntimed:winapi_downlevel.obj
 0002:000112a4       $unwind$??$translate_status@W4__acrt_fenv_machine_sse_status@@W4__acrt_fenv_abstract_status@@@@YA?AW4__acrt_fenv_machine_sse_status@@W4__acrt_fenv_abstract_status@@@Z 00000001400522a4     libucrtd:_fenvutils.obj
 0002:000112a4       $unwind$?get_global_action_nolock@@YAPEAP6AXH@ZH@Z 00000001400522a4     libucrtd:signal.obj
 0002:000112a4       $unwind$??$get_win_policy@Uprocess_end_policy_properties@?1??__acrt_get_process_end_policy@@YA?AW4process_end_policy@@XZ@@@YA?AW4process_end_policy@@W4AppPolicyProcessTerminationMethod@@@Z 00000001400522a4     libucrtd:win_policies.obj
 0002:000112a4       $unwind$?__acrt_fenv_unshift_abstract_sse_control@@YA?AW4__acrt_fenv_abstract_control@@W41@@Z 00000001400522a4     libucrtd:_fenvutils.obj
 0002:000112a4       $unwind$__vcrt_FlsGetValue 00000001400522a4     libvcruntimed:winapi_downlevel.obj
 0002:000112a4       $unwind$?translate_control_denormal_control_to_sse@@YA?AW4__acrt_fenv_machine_sse_control@@W4__acrt_fenv_abstract_control@@@Z 00000001400522a4     libucrtd:_fenvutils.obj
 0002:000112a4       $unwind$__acrt_errno_map_os_error 00000001400522a4     libucrtd:errno.obj
 0002:000112a4       $unwind$?__acrt_fenv_shift_abstract_sse_control@@YA?AW4__acrt_fenv_abstract_control@@W41@@Z 00000001400522a4     libucrtd:_fenvutils.obj
 0002:000112a4       $unwind$??$translate_status@W4__acrt_fenv_abstract_status@@W4__acrt_fenv_machine_sse_status@@@@YA?AW4__acrt_fenv_abstract_status@@W4__acrt_fenv_machine_sse_status@@@Z 00000001400522a4     libucrtd:_fenvutils.obj
 0002:000112a4       $unwind$??$translate_control_rounding_control@W4__acrt_fenv_machine_sse_control@@W4__acrt_fenv_abstract_control@@@@YA?AW4__acrt_fenv_machine_sse_control@@W4__acrt_fenv_abstract_control@@@Z 00000001400522a4     libucrtd:_fenvutils.obj
 0002:000112a4       $unwind$?should_copy_another_character@@YA_NE@Z 00000001400522a4     libucrtd:argv_winmain.obj
 0002:000112a4       $unwind$?set_machine_sse_status@@YAXW4__acrt_fenv_machine_sse_status@@@Z 00000001400522a4     libucrtd:_fenvutils.obj
 0002:000112a4       $unwind$_free_osfhnd       00000001400522a4     libucrtd:osfinfo.obj
 0002:000112a4       $unwind$_set_errno_from_matherr 00000001400522a4     libucrtd:fpexcept.obj
 0002:000112a4       $unwind$__acrt_uninitialize_lowio 00000001400522a4     libucrtd:ioinit.obj
 0002:000112a4       $unwind$??$translate_control_exception_mask@W4__acrt_fenv_machine_sse_control@@W4__acrt_fenv_abstract_control@@@@YA?AW4__acrt_fenv_machine_sse_control@@W4__acrt_fenv_abstract_control@@@Z 00000001400522a4     libucrtd:_fenvutils.obj
 0002:000112ac       $unwind$?has_all_of@__crt_stdio_stream@@QEBA_NJ@Z 00000001400522ac     libucrtd:fflush.obj
 0002:000112ac       $unwind$?write_requires_double_translation_nolock@@YA_NHAEAV__crt_cached_ptd_host@@@Z 00000001400522ac     libucrtd:write.obj
 0002:000112ac       $unwind$_close_nolock_internal 00000001400522ac     libucrtd:close.obj
 0002:000112ac       $unwind$_exception_enabled 00000001400522ac     libucrtd:libm_error.obj
 0002:000112ac       $unwind$?has_any_of@__crt_stdio_stream@@QEBA_NJ@Z 00000001400522ac     libucrtd:_sftbuf.obj
 0002:000112ac       $unwind$__vcrt_FlsSetValue 00000001400522ac     libvcruntimed:winapi_downlevel.obj
 0002:000112b4       $unwind$__vcrt_InitializeCriticalSectionEx 00000001400522b4     libvcruntimed:winapi_downlevel.obj
 0002:000112bc       $unwind$__vcrt_initialize_winapi_thunks 00000001400522bc     libvcruntimed:winapi_downlevel.obj
 0002:000112bc       $unwind$__acrt_get_parent_window 00000001400522bc     libucrtd:winapi_thunks.obj
 0002:000112bc       $unwind$__acrt_initialize_stdio 00000001400522bc     libucrtd:_file.obj
 0002:000112bc       $unwind$__acrt_initialize_winapi_thunks 00000001400522bc     libucrtd:winapi_thunks.obj
 0002:000112c4       $unwind$_set_error_mode    00000001400522c4     libucrtd:set_error_mode.obj
 0002:000112c4       $unwind$_isatty            00000001400522c4     libucrtd:isatty.obj
 0002:000112c4       $unwind$??$get_cached_win_policy@Udeveloper_information_policy_properties@?1??__acrt_get_developer_information_policy@@YA?AW4developer_information_policy@@XZ@@@YA?AW4developer_information_policy@@W4AppPolicyShowDeveloperDiagnostic@@@Z 00000001400522c4     libucrtd:win_policies.obj
 0002:000112c4       $unwind$_set_new_mode      00000001400522c4     libucrtd:new_mode.obj
 0002:000112c4       $unwind$__acrt_uninitialize_winapi_thunks 00000001400522c4     libucrtd:winapi_thunks.obj
 0002:000112c4       $unwind$_get_osfhandle     00000001400522c4     libucrtd:osfinfo.obj
 0002:000112c4       $unwind$_set_fmode         00000001400522c4     libucrtd:setmode.obj
 0002:000112c4       $unwind$__vcrt_uninitialize_winapi_thunks 00000001400522c4     libvcruntimed:winapi_downlevel.obj
 0002:000112c4       $unwind$??$get_cached_win_policy@Uwindowing_model_policy_properties@?1??__acrt_get_windowing_model_policy@@YA?AW4windowing_model_policy@@XZ@@@YA?AW4windowing_model_policy@@W4AppPolicyWindowingModel@@@Z 00000001400522c4     libucrtd:win_policies.obj
 0002:000112cc       $unwind$?try_get_module@@YAPEAUHINSTANCE__@@W4module_id@?A0xbfd18cd1@@@Z 00000001400522cc     libvcruntimed:winapi_downlevel.obj
 0002:000112cc       $unwind$?try_get_module@@YAPEAUHINSTANCE__@@W4module_id@?A0x391cf84c@@@Z 00000001400522cc     libucrtd:winapi_thunks.obj
 0002:000112cc       $unwind$_configthreadlocale 00000001400522cc     libucrtd:wsetlocale.obj
 0002:000112d4       $unwind$?allocate@__crt_win32_buffer_internal_dynamic_resizing@@SAHQEAPEAX_KAEBV__crt_win32_buffer_empty_debug_info@@@Z 00000001400522d4     libucrtd:argv_wildcards.obj
 0002:000112d4       $unwind$?try_get_proc_address_from_first_available_module@@YAPEAXQEBDQEBW4module_id@?A0x391cf84c@@1@Z 00000001400522d4     libucrtd:winapi_thunks.obj
 0002:000112d4       $unwind$?ExFilterRethrow@@YAHPEAU_EXCEPTION_POINTERS@@PEAUEHExceptionRecord@@PEAH@Z 00000001400522d4     libvcruntimed:frame.obj
 0002:000112d4       $unwind$?GetHandlerSearchState@__FrameHandler3@@SAHPEA_KPEAU_xDISPATCHER_CONTEXT@@PEBU_s_FuncInfo@@@Z 00000001400522d4     libvcruntimed:frame.obj
 0002:000112d4       $unwind$?_CallMemberFunction1@@YAXQEAX00@Z 00000001400522d4     libvcruntimed:frame.obj
 0002:000112d4       $unwind$?StateFromIp@__FrameHandler3@@SAHPEBU_s_FuncInfo@@PEAU_xDISPATCHER_CONTEXT@@_K@Z 00000001400522d4     libvcruntimed:ehstate.obj
 0002:000112d4       $unwind$?GetUnwindTryBlock@__FrameHandler3@@SAHPEA_KPEAU_xDISPATCHER_CONTEXT@@PEBU_s_FuncInfo@@@Z 00000001400522d4     libvcruntimed:ehstate.obj
 0002:000112d4       $unwind$?try_get_proc_address_from_first_available_module@@YAPEAXQEBDQEBW4module_id@?A0xbfd18cd1@@1@Z 00000001400522d4     libvcruntimed:winapi_downlevel.obj
 0002:000112dc       $unwind$?try_get_function@@YAPEAXW4function_id@?A0xbfd18cd1@@QEBDQEBW4module_id@2@2@Z 00000001400522dc     libvcruntimed:winapi_downlevel.obj
 0002:000112dc       $unwind$_CrtDbgReport      00000001400522dc     libucrtd:dbgrpt.obj
 0002:000112dc       $unwind$_call_matherr      00000001400522dc     libucrtd:libm_error.obj
 0002:000112dc       $unwind$?try_get_function@@YAPEAXW4function_id@?A0x391cf84c@@QEBDQEBW4module_id@2@2@Z 00000001400522dc     libucrtd:winapi_thunks.obj
 0002:000112dc       $unwind$??$common_lseek_nolock@_J@@YA_JH_JHAEAV__crt_cached_ptd_host@@@Z 00000001400522dc     libucrtd:lseek.obj
 0002:000112dc       $unwind$?x_ismbbtype_l@@YAHPEAU__crt_locale_pointers@@IHH@Z 00000001400522dc     libucrtd:ismbbyte.obj
 0002:000112dc       $unwind$_CrtDbgReportW     00000001400522dc     libucrtd:dbgrpt.obj
 0002:000112e4       $unwind$__GSHandlerCheck_SEH 00000001400522e4     LIBCMTD:gshandlerseh.obj
 0002:000112e4       $unwind$?__mbrtowc_utf8@__crt_mbstring@@YA_KPEA_WPEBD_KPEAU_Mbstatet@@AEAV__crt_cached_ptd_host@@@Z 00000001400522e4     libucrtd:mbrtowc.obj
 0002:000112e4       $unwind$?write_string@?$string_output_adapter@D@__crt_stdio_output@@QEBAXQEBDHQEAHAEAV__crt_cached_ptd_host@@@Z 00000001400522e4     libucrtd:output.obj
 0002:000112e4       $unwind$?write_string@?$string_output_adapter@_W@__crt_stdio_output@@QEBAXQEB_WHQEAHAEAV__crt_cached_ptd_host@@@Z 00000001400522e4     libucrtd:output.obj
 0002:000112e4       $unwind$?should_round_up@@YA_NQEBD0HW4__acrt_has_trailing_digits@@W4__acrt_rounding_mode@@@Z 00000001400522e4     libucrtd:_fptostr.obj
 0002:000112e4       $unwind$_snwprintf_s       00000001400522e4     libucrtd:dbgrpt.obj
 0002:000112e4       $unwind$memcpy_s           00000001400522e4     libucrtd:cfout.obj
 0002:000112e4       $unwind$sprintf_s          00000001400522e4     libvcruntimed:undname.obj
 0002:000112e4       $unwind$_snprintf_s        00000001400522e4     libucrtd:dbgrptt.obj
 0002:000112e4       $unwind$_vsprintf_s_l      00000001400522e4     libvcruntimed:undname.obj
 0002:000112e4       $unwind$_raise_exc         00000001400522e4     libucrtd:fpexcept.obj
 0002:000112e4       $unwind$memcpy_s           00000001400522e4     libucrtd:mbctype.obj
 0002:000112e4       $unwind$__GSHandlerCheck_EH 00000001400522e4     LIBCMTD:gshandlereh.obj
 0002:000112e4       $unwind$??$_tcstol_internal@_WPEAPEA_W$0A@@@YAJAEAV__crt_cached_ptd_host@@QEB_WQEAPEA_WH@Z 00000001400522e4     libucrtd:output.obj
 0002:000112e4       $unwind$??$_tcstol_internal@DPEAPEAD$0A@@@YAJAEAV__crt_cached_ptd_host@@QEBDQEAPEADH@Z 00000001400522e4     libucrtd:output.obj
 0002:000112f0       $xdatasym                  00000001400522f0     libvcruntimed:memcpy.obj
 0002:00011300       $unwind$__acrt_errno_map_os_error_ptd 0000000140052300     libucrtd:errno.obj
 0002:00011300       $unwind$?unget@?$c_string_character_source@D@__crt_strtox@@QEAAXD@Z 0000000140052300     libucrtd:output.obj
 0002:00011300       $unwind$?CatchTryBlock@__FrameHandler3@@SAPEBU_s_TryBlockMapEntry@@PEBU_s_FuncInfo@@H@Z 0000000140052300     libvcruntimed:risctrnsctrl.obj
 0002:00011300       $unwind$__acrt_LocaleNameToLCID 0000000140052300     libucrtd:winapi_thunks.obj
 0002:00011308       $unwind$??$type_case_integer_parse_into_buffer@_K$0BA@@?$output_processor@DV?$string_output_adapter@D@__crt_stdio_output@@V?$format_validation_base@DV?$string_output_adapter@D@__crt_stdio_output@@@2@@__crt_stdio_output@@AEAAX_K_N@Z 0000000140052308     libucrtd:output.obj
 0002:00011308       $unwind$?FrameUnwindToEmptyState@__FrameHandler3@@SAXPEA_KPEAU_xDISPATCHER_CONTEXT@@PEBU_s_FuncInfo@@@Z 0000000140052308     libvcruntimed:risctrnsctrl.obj
 0002:00011308       $unwind$??$type_case_integer_parse_into_buffer@_K$07@?$output_processor@DV?$string_output_adapter@D@__crt_stdio_output@@V?$format_validation_base@DV?$string_output_adapter@D@__crt_stdio_output@@@2@@__crt_stdio_output@@AEAAX_K_N@Z 0000000140052308     libucrtd:output.obj
 0002:00011308       $unwind$??$type_case_integer_parse_into_buffer@_K$07@?$output_processor@_WV?$string_output_adapter@_W@__crt_stdio_output@@V?$format_validation_base@_WV?$string_output_adapter@_W@__crt_stdio_output@@@2@@__crt_stdio_output@@AEAAX_K_N@Z 0000000140052308     libucrtd:output.obj
 0002:00011308       $unwind$?type_case_s_compute_narrow_string_length@?$output_processor@_WV?$string_output_adapter@_W@__crt_stdio_output@@V?$format_validation_base@_WV?$string_output_adapter@_W@__crt_stdio_output@@@2@@__crt_stdio_output@@AEAAHH_W@Z 0000000140052308     libucrtd:output.obj
 0002:00011308       $unwind$??$common_show_message_box@_W@@YAHQEB_W0I@Z 0000000140052308     libucrtd:crtmbox.obj
 0002:00011308       $unwind$??$type_case_integer_parse_into_buffer@_K$09@?$output_processor@_WV?$string_output_adapter@_W@__crt_stdio_output@@V?$format_validation_base@_WV?$string_output_adapter@_W@__crt_stdio_output@@@2@@__crt_stdio_output@@AEAAX_K_N@Z 0000000140052308     libucrtd:output.obj
 0002:00011308       $unwind$??$type_case_integer_parse_into_buffer@_K$0BA@@?$output_processor@_WV?$string_output_adapter@_W@__crt_stdio_output@@V?$format_validation_base@_WV?$string_output_adapter@_W@__crt_stdio_output@@@2@@__crt_stdio_output@@AEAAX_K_N@Z 0000000140052308     libucrtd:output.obj
 0002:00011308       $unwind$??$type_case_integer_parse_into_buffer@_K$09@?$output_processor@DV?$string_output_adapter@D@__crt_stdio_output@@V?$format_validation_base@DV?$string_output_adapter@D@__crt_stdio_output@@@2@@__crt_stdio_output@@AEAAX_K_N@Z 0000000140052308     libucrtd:output.obj
 0002:00011310       $unwind$__acrt_MessageBoxW 0000000140052310     libucrtd:winapi_thunks.obj
 0002:00011310       $unwind$_vsnprintf_s_l     0000000140052310     libucrtd:dbgrptt.obj
 0002:00011310       $unwind$_vsnwprintf_s_l    0000000140052310     libucrtd:dbgrpt.obj
 0002:00011310       $unwind$_raise_exc_ex      0000000140052310     libucrtd:fpexcept.obj
 0002:00011310       $unwind$??$SehTransFilter@V__FrameHandler3@@@@YAHPEAU_EXCEPTION_POINTERS@@PEAUEHExceptionRecord@@PEA_KPEAU_CONTEXT@@PEAU_xDISPATCHER_CONTEXT@@PEBU_s_FuncInfo@@PEAH@Z 0000000140052310     libvcruntimed:risctrnsctrl.obj
 0002:00011310       $unwind$?fp_format_f_internal@@YAHQEAD_KHQEAU_strflt@@_NAEAV__crt_cached_ptd_host@@@Z 0000000140052310     libucrtd:cvt.obj
 0002:00011310       $unwind$??$parse_command_line@D@@YAXPEADPEAPEAD0PEA_K2@Z 0000000140052310     libucrtd:argv_parsing.obj
 0002:00011310       $unwind$_recalloc_dbg      0000000140052310     libucrtd:debug_heap.obj
 0002:00011310       $unwind$?GetEstablisherFrame@__FrameHandler3@@SAPEA_KPEA_KPEAU_xDISPATCHER_CONTEXT@@PEBU_s_FuncInfo@@0@Z 0000000140052310     libvcruntimed:risctrnsctrl.obj
 0002:00011318       $unwind$?UnwindNestedFrames@__FrameHandler3@@SAXPEA_KPEAUEHExceptionRecord@@PEAU_CONTEXT@@0PEAXPEBU_s_FuncInfo@@HHPEBU_s_HandlerType@@PEAU_xDISPATCHER_CONTEXT@@E@Z 0000000140052318     libvcruntimed:risctrnsctrl.obj
 0002:0001132c       $unwind$mbstowcs_s         000000014005232c     libucrtd:mbstowcs.obj
 0002:0001132c       $unwind$?GetRangeOfTrysToCheck@__FrameHandler3@@SA?AU?$pair@Viterator@TryBlockMap@__FrameHandler3@@V123@@std@@AEAVTryBlockMap@1@HH@Z 000000014005232c     libvcruntimed:risctrnsctrl.obj
 0002:0001132c       $unwind$__acrt_LCMapStringA 000000014005232c     libucrtd:lcmapstringa.obj
 0002:0001132c       $unwind$wcstombs_s         000000014005232c     libucrtd:wcstombs.obj
 0002:0001132c       $unwind$__stdio_common_vsprintf_s 000000014005232c     libucrtd:output.obj
 0002:0001132c       $unwind$?fp_format_e@@YAHQEBNQEAD_K12H_NIW4__acrt_rounding_mode@@AEAV__crt_cached_ptd_host@@@Z 000000014005232c     libucrtd:cvt.obj
 0002:0001132c       $unwind$?fp_format_e_internal@@YAHQEAD_KH_NIQEAU_strflt@@2AEAV__crt_cached_ptd_host@@@Z 000000014005232c     libucrtd:cvt.obj
 0002:00011334       $unwind$??$__acrt_convert_wcs_mbs_cp@_WDV<lambda_f788ae46380686e8b737efdd8c720d07>@@U__crt_win32_buffer_no_resizing@@@@YAHQEB_WAEAV?$__crt_win32_buffer@DU__crt_win32_buffer_no_resizing@@@@AEBV<lambda_f788ae46380686e8b737efdd8c720d07>@@I@Z 0000000140052334     libucrtd:getmodulefilenamea.obj
 0002:00011334       $unwind$__CxxFrameHandler3 0000000140052334     libvcruntimed:risctrnsctrl.obj
 0002:00011334       $unwind$??$__acrt_convert_wcs_mbs_cp@D_WV<lambda_7c9dea7b4ca7285d2cdb541a38da6275>@@U__crt_win32_buffer_internal_dynamic_resizing@@@@YAHQEBDAEAV?$__crt_win32_buffer@_WU__crt_win32_buffer_internal_dynamic_resizing@@@@AEBV<lambda_7c9dea7b4ca7285d2cdb541a38da6275>@@I@Z 0000000140052334     libucrtd:argv_wildcards.obj
 0002:00011334       $unwind$_invalid_parameter_internal 0000000140052334     libucrtd:invalid_parameter.obj
 0002:00011334       $unwind$??$__acrt_convert_wcs_mbs_cp@_WDV<lambda_d8593a27d1aa8c02be35c86a17d324c4>@@U__crt_win32_buffer_internal_dynamic_resizing@@@@YAHQEB_WAEAV?$__crt_win32_buffer@DU__crt_win32_buffer_internal_dynamic_resizing@@@@AEBV<lambda_d8593a27d1aa8c02be35c86a17d324c4>@@I@Z 0000000140052334     libucrtd:argv_wildcards.obj
 0002:0001133c       $unwind$??$_CallSETranslator@V__FrameHandler3@@@@YAHPEAUEHExceptionRecord@@PEA_KPEAU_CONTEXT@@PEAU_xDISPATCHER_CONTEXT@@PEBU_s_FuncInfo@@K1@Z 000000014005233c     libvcruntimed:risctrnsctrl.obj
 0002:0001135c       $unwind$_VCrtDbgReportA$fin$0 000000014005235c     libucrtd:dbgrptt.obj
 0002:0001135c       $unwind$?fin$0@?0??heap_alloc_dbg_internal@@YAPEAX_KHQEBDH@Z@4HA 000000014005235c     libucrtd:debug_heap.obj
 0002:0001135c       $unwind$_VCrtDbgReportA$fin$1 000000014005235c     libucrtd:dbgrptt.obj
 0002:0001135c       $unwind$_VCrtDbgReportW$fin$0 000000014005235c     libucrtd:dbgrptt.obj
 0002:0001135c       $unwind$?filt$0@?0???$_CallSETranslator@V__FrameHandler3@@@@YAHPEAUEHExceptionRecord@@PEA_KPEAU_CONTEXT@@PEAU_xDISPATCHER_CONTEXT@@PEBU_s_FuncInfo@@K1@Z@4HA 000000014005235c     libvcruntimed:risctrnsctrl.obj
 0002:0001135c       $unwind$_CrtMemCheckpoint$fin$0 000000014005235c     libucrtd:debug_heap.obj
 0002:0001135c       $unwind$_VCrtDbgReportW$fin$1 000000014005235c     libucrtd:dbgrptt.obj
 0002:00011364       $unwind$??$?0AEAViterator@TryBlockMap@__FrameHandler3@@AEAV012@$0A@@?$pair@Viterator@TryBlockMap@__FrameHandler3@@V123@@std@@QEAA@AEAViterator@TryBlockMap@__FrameHandler3@@0@Z 0000000140052364     libvcruntimed:risctrnsctrl.obj
 0002:00011370       $unwind$??$get_module_file_name@$$TAEAY0BAF@DH@?$__crt_char_traits@D@@SAK$$QEA$$TAEAY0BAF@D$$QEAH@Z 0000000140052370     libucrtd:argv_parsing.obj
 0002:00011370       $unwind$wcscpy_s           0000000140052370     libucrtd:wcscpy_s.obj
 0002:00011370       $unwind$__acrt_update_multibyte_info_explicit 0000000140052370     libucrtd:locale_update.obj
 0002:00011370       $unwind$strcat_s           0000000140052370     libucrtd:strcat_s.obj
 0002:00011370       $unwind$??$make_c_string_character_source@DPEAPEAD@__crt_strtox@@YA?AV?$c_string_character_source@D@0@QEBDQEAPEAD@Z 0000000140052370     libucrtd:output.obj
 0002:00011370       $unwind$??$get_module_file_name@AEAPEAUHINSTANCE__@@AEAY0BAF@DK@?$__crt_char_traits@D@@SAKAEAPEAUHINSTANCE__@@AEAY0BAF@D$$QEAK@Z 0000000140052370     libucrtd:dbgrpt.obj
 0002:00011370       $unwind$?TypeMatch@__FrameHandler3@@SAHPEBU_s_HandlerType@@PEBU_s_CatchableType@@PEBU_s_ThrowInfo@@@Z 0000000140052370     libvcruntimed:frame.obj
 0002:00011370       $unwind$??$make_c_string_character_source@_WPEAPEA_W@__crt_strtox@@YA?AV?$c_string_character_source@_W@0@QEB_WQEAPEA_W@Z 0000000140052370     libucrtd:output.obj
 0002:00011370       $unwind$?GetCurrentState@__FrameHandler3@@SAHPEA_KPEAU_xDISPATCHER_CONTEXT@@PEBU_s_FuncInfo@@@Z 0000000140052370     libvcruntimed:ehstate.obj
 0002:00011370       $unwind$__TypeMatch        0000000140052370     libvcruntimed:frame.obj
 0002:00011370       $unwind$__acrt_update_locale_info_explicit 0000000140052370     libucrtd:locale_update.obj
 0002:00011370       $unwind$??$tcscpy_s@AEAY0BAF@D_KPEBD@?$__crt_char_traits@D@@SAHAEAY0BAF@D$$QEA_K$$QEAPEBD@Z 0000000140052370     libucrtd:dbgrpt.obj
 0002:00011370       $unwind$??$tcscpy_s@PEADAEB_KAEAPEAD@?$__crt_char_traits@D@@SAH$$QEAPEADAEB_KAEAPEAD@Z 0000000140052370     libucrtd:environment_initialization.obj
 0002:00011370       $unwind$strcpy_s           0000000140052370     libucrtd:strcpy_s.obj
 0002:00011370       $unwind$wcscat_s           0000000140052370     libucrtd:wcscat_s.obj
 0002:00011370       $unwind$??$get_module_file_name@AEAPEAUHINSTANCE__@@AEAY0BAF@_WK@?$__crt_char_traits@_W@@SAKAEAPEAUHINSTANCE__@@AEAY0BAF@_W$$QEAK@Z 0000000140052370     libucrtd:dbgrpt.obj
 0002:00011370       $unwind$__acrt_show_wide_message_box 0000000140052370     libucrtd:crtmbox.obj
 0002:00011370       $unwind$?allocate@__crt_win32_buffer_no_resizing@@SAHQEAPEAX_KAEBV__crt_win32_buffer_empty_debug_info@@@Z 0000000140052370     libucrtd:getmodulefilenamea.obj
 0002:00011370       $unwind$??$tcscpy_s@AEAY0BAF@_W_KPEB_W@?$__crt_char_traits@_W@@SAHAEAY0BAF@_W$$QEA_K$$QEAPEB_W@Z 0000000140052370     libucrtd:dbgrpt.obj
 0002:00011378       $unwind$??$?0AEBV?$string_output_adapter@_W@__crt_stdio_output@@AEB_KAEBQEB_WAEAV__crt_cached_ptd_host@@AEBQEAD@?$standard_base@_WV?$string_output_adapter@_W@__crt_stdio_output@@@__crt_stdio_output@@IEAA@AEBV?$string_output_adapter@_W@1@AEB_KAEBQEB_WAEAV__crt_cached_ptd_host@@AEBQEAD@Z 0000000140052378     libucrtd:output.obj
 0002:00011378       $unwind$??$?0AEBV?$string_output_adapter@D@__crt_stdio_output@@AEB_KAEBQEBDAEAV__crt_cached_ptd_host@@AEBQEAD@?$standard_base@DV?$string_output_adapter@D@__crt_stdio_output@@@__crt_stdio_output@@IEAA@AEBV?$string_output_adapter@D@1@AEB_KAEBQEBDAEAV__crt_cached_ptd_host@@AEBQEAD@Z 0000000140052378     libucrtd:output.obj
 0002:00011378       $unwind$?_CallMemberFunction2@@YAXQEAX00H@Z 0000000140052378     libvcruntimed:frame.obj
 0002:00011378       $unwind$??0?$output_processor@_WV?$string_output_adapter@_W@__crt_stdio_output@@V?$format_validation_base@_WV?$string_output_adapter@_W@__crt_stdio_output@@@2@@__crt_stdio_output@@QEAA@AEBV?$string_output_adapter@_W@1@_KQEB_WAEAV__crt_cached_ptd_host@@QEAD@Z 0000000140052378     libucrtd:output.obj
 0002:00011378       $unwind$??$?0AEBV?$string_output_adapter@D@__crt_stdio_output@@AEB_KAEBQEBDAEAV__crt_cached_ptd_host@@AEBQEAD@?$format_validation_base@DV?$string_output_adapter@D@__crt_stdio_output@@@__crt_stdio_output@@IEAA@AEBV?$string_output_adapter@D@1@AEB_KAEBQEBDAEAV__crt_cached_ptd_host@@AEBQEAD@Z 0000000140052378     libucrtd:output.obj
 0002:00011378       $unwind$__C_specific_handler_noexcept 0000000140052378     libvcruntimed:chandler_noexcept.obj
 0002:00011378       $unwind$?SetUnwindTryBlock@__FrameHandler3@@SAXPEA_KPEAU_xDISPATCHER_CONTEXT@@PEBU_s_FuncInfo@@H@Z 0000000140052378     libvcruntimed:ehstate.obj
 0002:00011378       $unwind$??$?0AEBV?$string_output_adapter@_W@__crt_stdio_output@@AEB_KAEBQEB_WAEAV__crt_cached_ptd_host@@AEBQEAD@?$format_validation_base@_WV?$string_output_adapter@_W@__crt_stdio_output@@@__crt_stdio_output@@IEAA@AEBV?$string_output_adapter@_W@1@AEB_KAEBQEB_WAEAV__crt_cached_ptd_host@@AEBQEAD@Z 0000000140052378     libucrtd:output.obj
 0002:00011378       $unwind$??0?$output_processor@DV?$string_output_adapter@D@__crt_stdio_output@@V?$format_validation_base@DV?$string_output_adapter@D@__crt_stdio_output@@@2@@__crt_stdio_output@@QEAA@AEBV?$string_output_adapter@D@1@_KQEBDAEAV__crt_cached_ptd_host@@QEAD@Z 0000000140052378     libucrtd:output.obj
 0002:00011378       $unwind$_vsnprintf_s       0000000140052378     libucrtd:dbgrptt.obj
 0002:00011378       $unwind$?common_lseek_do_seek_nolock@@YA_JQEAX_JHAEAV__crt_cached_ptd_host@@@Z 0000000140052378     libucrtd:lseek.obj
 0002:00011378       $unwind$_calloc_dbg        0000000140052378     libucrtd:debug_heap.obj
 0002:00011378       $unwind$??$__acrt_fenv_translate_bit@W4__acrt_fenv_abstract_control@@W4__acrt_fenv_machine_sse_control@@@@YA?AW4__acrt_fenv_abstract_control@@W4__acrt_fenv_machine_sse_control@@0W40@1@Z 0000000140052378     libucrtd:_fenvutils.obj
 0002:00011378       $unwind$??$__acrt_fenv_translate_bit@W4__acrt_fenv_machine_sse_control@@W4__acrt_fenv_abstract_control@@@@YA?AW4__acrt_fenv_machine_sse_control@@W4__acrt_fenv_abstract_control@@0W40@1@Z 0000000140052378     libucrtd:_fenvutils.obj
 0002:00011380       $unwind$?FrameUnwindToState@__FrameHandler3@@SAXPEA_KPEAU_xDISPATCHER_CONTEXT@@PEBU_s_FuncInfo@@H@Z 0000000140052380     libvcruntimed:frame.obj
 0002:000113b0       $unwind$?CxxCallCatchBlock@__FrameHandler3@@SAPEAXPEAU_EXCEPTION_RECORD@@@Z 00000001400523b0     libvcruntimed:frame.obj
 0002:000113e0       $unwind$??0exception@std@@QEAA@QEBDH@Z 00000001400523e0     libvcruntimed:frame.obj
 0002:000113e8       $unwind$??0exception@std@@QEAA@AEBV01@@Z 00000001400523e8     libvcruntimed:frame.obj
 0002:000113f0       $unwind$??_Gtype_info@@UEAAPEAXI@Z 00000001400523f0     LIBCMTD:std_type_info_static.obj
 0002:000113f0       $unwind$??_Gexception@std@@UEAAPEAXI@Z 00000001400523f0     libvcruntimed:frame.obj
 0002:000113f0       $unwind$__acrt_FlsSetValue 00000001400523f0     libucrtd:winapi_thunks.obj
 0002:000113f0       $unwind$??_Gbad_exception@std@@UEAAPEAXI@Z 00000001400523f0     libvcruntimed:frame.obj
 0002:000113f0       $unwind$?strrchr@@YAPEADQEADH@Z 00000001400523f0     libucrtd:cvt.obj
 0002:000113f0       $unwind$?xcptlookup@@YAPEAU__crt_signal_action_t@@KQEAU1@@Z 00000001400523f0     libucrtd:exception_filter.obj
 0002:000113f0       $unwind$_isleadbyte_fast_internal 00000001400523f0     libucrtd:isctype.obj
 0002:000113f0       $unwind$__acrt_isleadbyte_l_noupdate 00000001400523f0     libucrtd:output.obj
 0002:000113f0       $unwind$_isdigit_fast_internal 00000001400523f0     libucrtd:output.obj
 0002:000113f8       $unwind$?IsInExceptionSpec@@YAEPEAUEHExceptionRecord@@PEBU_s_ESTypeList@@@Z 00000001400523f8     libvcruntimed:frame.obj
 0002:000113f8       $unwind$?type_case_c_tchar@?$output_processor@_WV?$string_output_adapter@_W@__crt_stdio_output@@V?$format_validation_base@_WV?$string_output_adapter@_W@__crt_stdio_output@@@2@@__crt_stdio_output@@AEAA_N_W@Z 00000001400523f8     libucrtd:output.obj
 0002:000113f8       $unwind$?_fclose_nolock_internal@@YAHQEAU_iobuf@@AEAV__crt_cached_ptd_host@@@Z 00000001400523f8     libucrtd:fclose.obj
 0002:000113f8       $unwind$__acrt_stdio_flush_nolock 00000001400523f8     libucrtd:fflush.obj
 0002:00011400       $unwind$__acrt_report_runtime_error 0000000140052400     libucrtd:report_runtime_error.obj
 0002:00011400       $unwind$?Is_bad_exception_allowed@@YAEPEBU_s_ESTypeList@@@Z 0000000140052400     libvcruntimed:frame.obj
 0002:00011408       $unwind$??$BuildCatchObjectHelperInternal@V__FrameHandler3@@@@YAHPEAUEHExceptionRecord@@PEAXPEBU_s_HandlerType@@PEBU_s_CatchableType@@@Z 0000000140052408     libvcruntimed:frame.obj
 0002:00011428       $unwind$??$BuildCatchObjectInternal@V__FrameHandler3@@@@YAXPEAUEHExceptionRecord@@PEAXPEBU_s_HandlerType@@PEBU_s_CatchableType@@@Z 0000000140052428     libvcruntimed:frame.obj
 0002:00011448       $unwind$??$FindHandler@V__FrameHandler3@@@@YAXPEAUEHExceptionRecord@@PEA_KPEAU_CONTEXT@@PEAU_xDISPATCHER_CONTEXT@@PEBU_s_FuncInfo@@EH1@Z 0000000140052448     libvcruntimed:frame.obj
 0002:00011454       $unwind$??$CatchIt@V__FrameHandler3@@@@YAXPEAUEHExceptionRecord@@PEA_KPEAU_CONTEXT@@PEAU_xDISPATCHER_CONTEXT@@PEBU_s_FuncInfo@@PEBU_s_HandlerType@@PEBU_s_CatchableType@@PEBU_s_TryBlockMapEntry@@H1EE@Z 0000000140052454     libvcruntimed:frame.obj
 0002:00011454       $unwind$_invalid_parameter 0000000140052454     libucrtd:invalid_parameter.obj
 0002:00011454       $unwind$??$copy_and_add_argument_to_buffer@D@@YAHQEBD0_KAEAV?$argument_list@D@?A0x5f5c8891@@@Z 0000000140052454     libucrtd:argv_wildcards.obj
 0002:0001145c       $unwind$??$FindHandlerForForeignException@V__FrameHandler3@@@@YAXPEAUEHExceptionRecord@@PEA_KPEAU_CONTEXT@@PEAU_xDISPATCHER_CONTEXT@@PEBU_s_FuncInfo@@HH1@Z 000000014005245c     libvcruntimed:frame.obj
 0002:00011468       $xdatasym                  0000000140052468     libvcruntimed:memset.obj
 0002:00011478       $xdatasym                  0000000140052478     libvcruntimed:handlers.obj
 0002:00011488       $unwind$?unget@?$c_string_character_source@_W@__crt_strtox@@QEAAX_W@Z 0000000140052488     libucrtd:output.obj
 0002:00011488       $unwind$__acrt_execute_initializers 0000000140052488     libucrtd:shared_initialization.obj
 0002:00011488       $unwind$__acrt_execute_uninitializers 0000000140052488     libucrtd:shared_initialization.obj
 0002:00011488       $unwind$?validate@?$string_output_adapter@_W@__crt_stdio_output@@QEBA_NAEAV__crt_cached_ptd_host@@@Z 0000000140052488     libucrtd:output.obj
 0002:00011488       $unwind$_register_onexit_function 0000000140052488     libucrtd:onexit.obj
 0002:00011488       $unwind$_initterm_e        0000000140052488     libucrtd:initterm.obj
 0002:00011488       $unwind$__std_exception_copy 0000000140052488     libvcruntimed:std_exception.obj
 0002:00011488       $unwind$?validate@?$string_output_adapter@D@__crt_stdio_output@@QEBA_NAEAV__crt_cached_ptd_host@@@Z 0000000140052488     libucrtd:output.obj
 0002:00011490       $unwind$_CxxThrowException 0000000140052490     libvcruntimed:throw.obj
 0002:0001149c       $unwind$_seh_filter_exe    000000014005249c     libucrtd:exception_filter.obj
 0002:0001149c       $unwind$strrchr            000000014005249c     libvcruntimed:strrchr.obj
 0002:0001149c       $unwind$_close_internal    000000014005249c     libucrtd:close.obj
 0002:000114a4       $unwind$__acrt_MessageWindowW 00000001400524a4     libucrtd:dbgrpt.obj
 0002:000114a4       $unwind$_invoke_watson_if_error 00000001400524a4     libucrtd:report_runtime_error.obj
 0002:000114a4       $unwind$??R<lambda_7c9dea7b4ca7285d2cdb541a38da6275>@@QEBAHIQEBDQEA_W_K@Z 00000001400524a4     libucrtd:argv_wildcards.obj
 0002:000114a4       $unwind$__acrt_MessageWindowA 00000001400524a4     libucrtd:dbgrpt.obj
 0002:000114a4       $unwind$??$write_multiple_characters@V?$string_output_adapter@_W@__crt_stdio_output@@D@__crt_stdio_output@@YAXAEBV?$string_output_adapter@_W@0@DHQEAHAEAV__crt_cached_ptd_host@@@Z 00000001400524a4     libucrtd:output.obj
 0002:000114a4       $unwind$??$write_multiple_characters@V?$string_output_adapter@D@__crt_stdio_output@@D@__crt_stdio_output@@YAXAEBV?$string_output_adapter@D@0@DHQEAHAEAV__crt_cached_ptd_host@@@Z 00000001400524a4     libucrtd:output.obj
 0002:000114ac       $unwind$?write_string_to_console@@YAXQEB_W@Z 00000001400524ac     libucrtd:report_runtime_error.obj
 0002:000114bc       $unwind$__acrt_allocate_buffer_for_argv 00000001400524bc     libucrtd:argv_parsing.obj
 0002:000114c4       $unwind$??$common_configure_argv@D@@YAHW4_crt_argv_mode@@@Z 00000001400524c4     libucrtd:argv_parsing.obj
 0002:000114d8       $ip2state$??$common_configure_argv@D@@YAHW4_crt_argv_mode@@@Z 00000001400524d8     libucrtd:argv_parsing.obj
 0002:000114e0       $unwind$??$common_initialize_environment_nolock@D@@YAHXZ 00000001400524e0     libucrtd:environment_initialization.obj
 0002:000114e0       $unwind$?__acrt_get_utf8_acp_compatibility_codepage@@YAIXZ 00000001400524e0     libucrtd:argv_wildcards.obj
 0002:000114e8       $unwind$??$uninitialize@A6AXAEAPEAPEAD@_E@?$dual_state_global@PEAPEAD@__crt_state_management@@QEAAXA6AXAEAPEAPEAD@_E@Z 00000001400524e8     libucrtd:environment_initialization.obj
 0002:000114f8       $ip2state$??$uninitialize@A6AXAEAPEAPEAD@_E@?$dual_state_global@PEAPEAD@__crt_state_management@@QEAAXA6AXAEAPEAPEAD@_E@Z 00000001400524f8     libucrtd:environment_initialization.obj
 0002:00011500       $unwind$??$uninitialize@A6AXAEAPEAPEA_W@_E@?$dual_state_global@PEAPEA_W@__crt_state_management@@QEAAXA6AXAEAPEAPEA_W@_E@Z 0000000140052500     libucrtd:environment_initialization.obj
 0002:00011510       $ip2state$??$uninitialize@A6AXAEAPEAPEA_W@_E@?$dual_state_global@PEAPEA_W@__crt_state_management@@QEAAXA6AXAEAPEAPEA_W@_E@Z 0000000140052510     libucrtd:environment_initialization.obj
 0002:00011518       $unwind$??$create_environment@D@@YAQEAPEADQEAD@Z 0000000140052518     libucrtd:environment_initialization.obj
 0002:00011518       $unwind$??R<lambda_ab61a845afdef5b7c387490eaf3616ee>@@QEBA@XZ 0000000140052518     libucrtd:fflush.obj
 0002:00011520       $unwind$?try_cor_exit_process@@YAXI@Z 0000000140052520     libucrtd:exit.obj
 0002:00011530       $ip2state$?try_cor_exit_process@@YAXI@Z 0000000140052530     libucrtd:exit.obj
 0002:00011538       $unwind$?common_exit@@YAXHW4_crt_exit_cleanup_mode@@W4_crt_exit_return_mode@@@Z 0000000140052538     libucrtd:exit.obj
 0002:00011548       $ip2state$?common_exit@@YAXHW4_crt_exit_cleanup_mode@@W4_crt_exit_return_mode@@@Z 0000000140052548     libucrtd:exit.obj
 0002:00011550       $unwind$??R<lambda_6e4b09c48022b2350581041d5f6b0c4c>@@QEBA@XZ 0000000140052550     libucrtd:exit.obj
 0002:00011570       $unwind$??$__acrt_lock_and_call@V<lambda_6e4b09c48022b2350581041d5f6b0c4c>@@@@YAXW4__acrt_lock_id@@$$QEAV<lambda_6e4b09c48022b2350581041d5f6b0c4c>@@@Z 0000000140052570     libucrtd:exit.obj
 0002:00011580       $ip2state$??$__acrt_lock_and_call@V<lambda_6e4b09c48022b2350581041d5f6b0c4c>@@@@YAXW4__acrt_lock_id@@$$QEAV<lambda_6e4b09c48022b2350581041d5f6b0c4c>@@@Z 0000000140052580     libucrtd:exit.obj
 0002:00011588       $unwind$??$?RV<lambda_d80eeec6fff315bfe5c115232f3240e3>@@AEAV<lambda_6e4b09c48022b2350581041d5f6b0c4c>@@V<lambda_2358e3775559c9db80273638284d5e45>@@@?$__crt_seh_guarded_call@X@@QEAAX$$QEAV<lambda_d80eeec6fff315bfe5c115232f3240e3>@@AEAV<lambda_6e4b09c48022b2350581041d5f6b0c4c>@@$$QEAV<lambda_2358e3775559c9db80273638284d5e45>@@@Z 0000000140052588     libucrtd:exit.obj
 0002:000115a8       $unwind$__acrt_get_sigabrt_handler 00000001400525a8     libucrtd:signal.obj
 0002:000115a8       $unwind$__acrt_uninitialize_locale 00000001400525a8     libucrtd:wsetlocale.obj
 0002:000115b0       $unwind$??R<lambda_3e16ef9562a7dcce91392c22ab16ea36>@@QEBA@XZ 00000001400525b0     libucrtd:wsetlocale.obj
 0002:000115b0       $unwind$fesetenv           00000001400525b0     libucrtd:fesetenv.obj
 0002:000115b8       $unwind$??$uninitialize@V<lambda_363eea9039da1e8169e2d060c7fe5cbc>@@@?$dual_state_global@PEAU__crt_locale_data@@@__crt_state_management@@QEAAX$$QEAV<lambda_363eea9039da1e8169e2d060c7fe5cbc>@@@Z 00000001400525b8     libucrtd:wsetlocale.obj
 0002:000115c8       $ip2state$??$uninitialize@V<lambda_363eea9039da1e8169e2d060c7fe5cbc>@@@?$dual_state_global@PEAU__crt_locale_data@@@__crt_state_management@@QEAAX$$QEAV<lambda_363eea9039da1e8169e2d060c7fe5cbc>@@@Z 00000001400525c8     libucrtd:wsetlocale.obj
 0002:000115d0       $unwind$??$__acrt_lock_and_call@V<lambda_3e16ef9562a7dcce91392c22ab16ea36>@@@@YAXW4__acrt_lock_id@@$$QEAV<lambda_3e16ef9562a7dcce91392c22ab16ea36>@@@Z 00000001400525d0     libucrtd:wsetlocale.obj
 0002:000115e0       $ip2state$??$__acrt_lock_and_call@V<lambda_3e16ef9562a7dcce91392c22ab16ea36>@@@@YAXW4__acrt_lock_id@@$$QEAV<lambda_3e16ef9562a7dcce91392c22ab16ea36>@@@Z 00000001400525e0     libucrtd:wsetlocale.obj
 0002:000115e8       $unwind$??$?RV<lambda_410d79af7f07d98d83a3f525b3859a53>@@AEAV<lambda_3e16ef9562a7dcce91392c22ab16ea36>@@V<lambda_38119f0e861e05405d8a144b9b982f0a>@@@?$__crt_seh_guarded_call@X@@QEAAX$$QEAV<lambda_410d79af7f07d98d83a3f525b3859a53>@@AEAV<lambda_3e16ef9562a7dcce91392c22ab16ea36>@@$$QEAV<lambda_38119f0e861e05405d8a144b9b982f0a>@@@Z 00000001400525e8     libucrtd:wsetlocale.obj
 0002:00011608       $unwind$??R<lambda_208ce30acdd7200aa596f2796f4d5154>@@QEBAHXZ 0000000140052608     libucrtd:onexit.obj
 0002:00011610       $unwind$??$__acrt_lock_and_call@V<lambda_208ce30acdd7200aa596f2796f4d5154>@@@@YAHW4__acrt_lock_id@@$$QEAV<lambda_208ce30acdd7200aa596f2796f4d5154>@@@Z 0000000140052610     libucrtd:onexit.obj
 0002:00011620       $ip2state$??$__acrt_lock_and_call@V<lambda_208ce30acdd7200aa596f2796f4d5154>@@@@YAHW4__acrt_lock_id@@$$QEAV<lambda_208ce30acdd7200aa596f2796f4d5154>@@@Z 0000000140052620     libucrtd:onexit.obj
 0002:00011628       $unwind$??R<lambda_d121dba8a4adeaf3a9819e48611155df>@@QEBAHXZ 0000000140052628     libucrtd:onexit.obj
 0002:00011638       $stateUnwindMap$??R<lambda_d121dba8a4adeaf3a9819e48611155df>@@QEBAHXZ 0000000140052638     libucrtd:onexit.obj
 0002:00011640       $ip2state$??R<lambda_d121dba8a4adeaf3a9819e48611155df>@@QEBAHXZ 0000000140052640     libucrtd:onexit.obj
 0002:00011658       $unwind$??$__acrt_lock_and_call@V<lambda_d121dba8a4adeaf3a9819e48611155df>@@@@YAHW4__acrt_lock_id@@$$QEAV<lambda_d121dba8a4adeaf3a9819e48611155df>@@@Z 0000000140052658     libucrtd:onexit.obj
 0002:00011668       $ip2state$??$__acrt_lock_and_call@V<lambda_d121dba8a4adeaf3a9819e48611155df>@@@@YAHW4__acrt_lock_id@@$$QEAV<lambda_d121dba8a4adeaf3a9819e48611155df>@@@Z 0000000140052668     libucrtd:onexit.obj
 0002:00011670       $unwind$??$?RV<lambda_80060f20ac3990516b753a27f211934c>@@AEAV<lambda_208ce30acdd7200aa596f2796f4d5154>@@V<lambda_fd91b99c0687e8936f1d70d7d9b78e69>@@@?$__crt_seh_guarded_call@H@@QEAAH$$QEAV<lambda_80060f20ac3990516b753a27f211934c>@@AEAV<lambda_208ce30acdd7200aa596f2796f4d5154>@@$$QEAV<lambda_fd91b99c0687e8936f1d70d7d9b78e69>@@@Z 0000000140052670     libucrtd:onexit.obj
 0002:00011690       $unwind$??$?RV<lambda_6a47f4c8fd0152770a780fc1d70204eb>@@AEAV<lambda_d121dba8a4adeaf3a9819e48611155df>@@V<lambda_6aaa2265f5b6a89667e7d7630012e97a>@@@?$__crt_seh_guarded_call@H@@QEAAH$$QEAV<lambda_6a47f4c8fd0152770a780fc1d70204eb>@@AEAV<lambda_d121dba8a4adeaf3a9819e48611155df>@@$$QEAV<lambda_6aaa2265f5b6a89667e7d7630012e97a>@@@Z 0000000140052690     libucrtd:onexit.obj
 0002:000116b0       $unwind$uninitialize_allocated_memory 00000001400526b0     libucrtd:initialization.obj
 0002:000116b8       $unwind$??$uninitialize@V<lambda_af27fe6ede5d83bbdbd622796c194e9c>@@@?$dual_state_global@PEAU__crt_multibyte_data@@@__crt_state_management@@QEAAX$$QEAV<lambda_af27fe6ede5d83bbdbd622796c194e9c>@@@Z 00000001400526b8     libucrtd:initialization.obj
 0002:000116c8       $ip2state$??$uninitialize@V<lambda_af27fe6ede5d83bbdbd622796c194e9c>@@@?$dual_state_global@PEAU__crt_multibyte_data@@@__crt_state_management@@QEAAX$$QEAV<lambda_af27fe6ede5d83bbdbd622796c194e9c>@@@Z 00000001400526c8     libucrtd:initialization.obj
 0002:000116d0       $unwind$terminate          00000001400526d0     libucrtd:terminate.obj
 0002:000116f0       $unwind$_CrtCheckMemory    00000001400526f0     libucrtd:debug_heap.obj
 0002:00011710       $unwind$?fin$0@?0??validate_heap_if_required_nolock@@YAXXZ@4HA 0000000140052710     libucrtd:debug_heap.obj
 0002:00011710       $unwind$_write_internal$fin$0 0000000140052710     libucrtd:write.obj
 0002:00011710       $unwind$_CrtMemDumpAllObjectsSince$fin$0 0000000140052710     libucrtd:debug_heap.obj
 0002:00011710       $unwind$_msize_dbg$fin$0   0000000140052710     libucrtd:debug_heap.obj
 0002:00011710       $unwind$_CrtCheckMemory$fin$0 0000000140052710     libucrtd:debug_heap.obj
 0002:00011710       $unwind$raise$fin$0        0000000140052710     libucrtd:signal.obj
 0002:00011710       $unwind$__acrt_lowio_ensure_fh_exists$fin$0 0000000140052710     libucrtd:osfinfo.obj
 0002:00011710       $unwind$_realloc_dbg$fin$0 0000000140052710     libucrtd:debug_heap.obj
 0002:00011710       $unwind$_CrtSetDbgFlag$fin$0 0000000140052710     libucrtd:debug_heap.obj
 0002:00011710       $unwind$?fin$0@?0??_fclose_internal@@YAHQEAU_iobuf@@AEAV__crt_cached_ptd_host@@@Z@4HA 0000000140052710     libucrtd:fclose.obj
 0002:00011710       $unwind$common_control87$filt$0 0000000140052710     libucrtd:ieee.obj
 0002:00011718       $unwind$_CrtDumpMemoryLeaks 0000000140052718     libucrtd:debug_heap.obj
 0002:00011728       $unwind$?check_bytes@@YA_NQEBEE_K@Z 0000000140052728     libucrtd:debug_heap.obj
 0002:00011728       $unwind$??$is_wide_character_specifier@D@__crt_stdio_output@@YA_N_KDW4length_modifier@0@@Z 0000000140052728     libucrtd:output.obj
 0002:00011728       $unwind$_CrtIsValidPointer 0000000140052728     libucrtd:debug_heap.obj
 0002:00011728       $unwind$?multiply_core@__crt_strtox@@YAIQEAIII@Z 0000000140052728     libucrtd:cfout.obj
 0002:00011728       $unwind$?add_carry@__crt_strtox@@YAIAEAIII@Z 0000000140052728     libucrtd:cfout.obj
 0002:00011730       $unwind$_CrtMemCheckpoint  0000000140052730     libucrtd:debug_heap.obj
 0002:00011750       $unwind$_CrtMemDumpAllObjectsSince 0000000140052750     libucrtd:debug_heap.obj
 0002:00011770       $unwind$_CrtSetDbgFlag     0000000140052770     libucrtd:debug_heap.obj
 0002:00011790       $unwind$_free_dbg          0000000140052790     libucrtd:debug_heap.obj
 0002:000117b0       $unwind$_lseeki64_nolock_internal 00000001400527b0     libucrtd:lseek.obj
 0002:000117b0       $unwind$_malloc_dbg        00000001400527b0     libucrtd:debug_heap.obj
 0002:000117b8       $unwind$_msize_dbg         00000001400527b8     libucrtd:debug_heap.obj
 0002:000117d8       $unwind$_realloc_dbg       00000001400527d8     libucrtd:debug_heap.obj
 0002:000117f8       $unwind$??$__acrt_fenv_unshift_bits@W4__acrt_fenv_abstract_control@@@@YA?AW4__acrt_fenv_abstract_control@@W40@0I@Z 00000001400527f8     libucrtd:_fenvutils.obj
 0002:000117f8       $unwind$_ischartype_l      00000001400527f8     libucrtd:debug_heap.obj
 0002:000117f8       $unwind$??$__acrt_fenv_shift_bits@W4__acrt_fenv_abstract_control@@@@YA?AW4__acrt_fenv_abstract_control@@W40@0I@Z 00000001400527f8     libucrtd:_fenvutils.obj
 0002:000117f8       $unwind$??$__acrt_fenv_shift_bits@W4__acrt_fenv_abstract_status@@@@YA?AW4__acrt_fenv_abstract_status@@W40@0I@Z 00000001400527f8     libucrtd:_fenvutils.obj
 0002:000117f8       $unwind$_chvalidchk_l      00000001400527f8     libucrtd:debug_heap.obj
 0002:000117f8       $unwind$??$__acrt_fenv_unshift_bits@W4__acrt_fenv_abstract_status@@@@YA?AW4__acrt_fenv_abstract_status@@W40@0I@Z 00000001400527f8     libucrtd:_fenvutils.obj
 0002:00011800       $unwind$??$__acrt_fenv_translate_bit@W4__acrt_fenv_machine_sse_status@@W4__acrt_fenv_abstract_status@@@@YA?AW4__acrt_fenv_machine_sse_status@@W4__acrt_fenv_abstract_status@@0W40@1@Z 0000000140052800     libucrtd:_fenvutils.obj
 0002:00011800       $unwind$??$__acrt_fenv_translate_bit@W4__acrt_fenv_abstract_status@@W4__acrt_fenv_machine_sse_status@@@@YA?AW4__acrt_fenv_abstract_status@@W4__acrt_fenv_machine_sse_status@@0W40@1@Z 0000000140052800     libucrtd:_fenvutils.obj
 0002:00011800       $unwind$_invoke_watson_if_oneof 0000000140052800     libucrtd:debug_heap.obj
 0002:00011808       $unwind$??0_LocaleUpdate@@QEAA@QEAU__crt_locale_pointers@@@Z 0000000140052808     libucrtd:debug_heap.obj
 0002:00011808       $unwind$??0__crt_cached_ptd_host@@QEAA@QEAU__crt_locale_pointers@@@Z 0000000140052808     libucrtd:output.obj
 0002:00011814       $unwind$?to_integer_size@__crt_stdio_output@@YA_KW4length_modifier@1@@Z 0000000140052814     libucrtd:output.obj
 0002:00011814       $unwind$_abstract_cw       0000000140052814     libucrtd:ieee.obj
 0002:00011814       $unwind$?CPtoLocaleName@@YAPEB_WH@Z 0000000140052814     libucrtd:mbctype.obj
 0002:00011814       $unwind$__ascii_iswalpha   0000000140052814     libucrtd:output.obj
 0002:00011814       $unwind$?bit_scan_reverse@__crt_strtox@@YAII@Z 0000000140052814     libucrtd:cfout.obj
 0002:00011814       $unwind$?get_std_handle_id@@YAKH@Z 0000000140052814     libucrtd:ioinit.obj
 0002:00011814       $unwind$?is_stream_allocated@@YA_NJ@Z 0000000140052814     libucrtd:fflush.obj
 0002:00011814       $unwind$?count_sequential_high_zeroes@__crt_strtox@@YAII@Z 0000000140052814     libucrtd:cfout.obj
 0002:00011814       $unwind$?is_block_type_valid@@YA_NH@Z 0000000140052814     libucrtd:debug_heap.obj
 0002:00011814       $unwind$__acrt_errno_from_os_error 0000000140052814     libucrtd:errno.obj
 0002:00011814       $unwind$_hw_cw             0000000140052814     libucrtd:ieee.obj
 0002:00011814       $unwind$?appmodel_policy_to_policy_type@windowing_model_policy_properties@?1??__acrt_get_windowing_model_policy@@YA?AW4windowing_model_policy@@XZ@SA?AW43@J@Z 0000000140052814     libucrtd:win_policies.obj
 0002:00011814       $unwind$_abstract_sw       0000000140052814     libucrtd:ieee.obj
 0002:0001181c       $unwind$?is_bad_read_pointer@@YA_NQEBX_K@Z 000000014005281c     libucrtd:debug_heap.obj
 0002:0001183c       $unwind$?validate_heap_if_required_nolock@@YAXXZ 000000014005283c     libucrtd:debug_heap.obj
 0002:0001185c       $unwind$?heap_alloc_dbg_internal@@YAPEAX_KHQEBDH@Z 000000014005285c     libucrtd:debug_heap.obj
 0002:0001187c       $unwind$??R<lambda_d8593a27d1aa8c02be35c86a17d324c4>@@QEBAHIQEB_WQEAD_K@Z 000000014005287c     libucrtd:argv_wildcards.obj
 0002:0001187c       $unwind$??R<lambda_f788ae46380686e8b737efdd8c720d07>@@QEBAHIQEB_WQEAD_K@Z 000000014005287c     libucrtd:getmodulefilenamea.obj
 0002:0001187c       $unwind$_itow_s            000000014005287c     libucrtd:xtoa.obj
 0002:0001187c       $unwind$_itoa_s            000000014005287c     libucrtd:xtoa.obj
 0002:0001187c       $unwind$?heap_alloc_dbg@@YAPEAX_KHQEBDH@Z 000000014005287c     libucrtd:debug_heap.obj
 0002:00011884       $unwind$?realloc_dbg_nolock@@YAPEAXQEAXQEA_KHQEBDH_N@Z 0000000140052884     libucrtd:debug_heap.obj
 0002:00011898       $ip2state$?realloc_dbg_nolock@@YAPEAXQEAXQEA_KHQEBDH_N@Z 0000000140052898     libucrtd:debug_heap.obj
 0002:000118a0       $unwind$?free_dbg_nolock@@YAXQEAXH@Z 00000001400528a0     libucrtd:debug_heap.obj
 0002:000118b0       $ip2state$?free_dbg_nolock@@YAXQEAXH@Z 00000001400528b0     libucrtd:debug_heap.obj
 0002:000118b8       $unwind$?check_block@@YA_NQEAU_CrtMemBlockHeader@@@Z 00000001400528b8     libucrtd:debug_heap.obj
 0002:000118c0       $unwind$?print_block_data@@YAXQEAU__crt_locale_pointers@@QEAU_CrtMemBlockHeader@@@Z 00000001400528c0     libucrtd:debug_heap.obj
 0002:000118d0       $unwind$?dump_all_object_since_nolock@@YAXQEBU_CrtMemState@@@Z 00000001400528d0     libucrtd:debug_heap.obj
 0002:000118e0       $ip2state$?dump_all_object_since_nolock@@YAXQEBU_CrtMemState@@@Z 00000001400528e0     libucrtd:debug_heap.obj
 0002:000118e8       $unwind$??$common_tcscpy_s@_W@@YAHQEA_W_KQEB_W@Z 00000001400528e8     libucrtd:wcscpy_s.obj
 0002:000118e8       $unwind$??$common_tcscpy_s@D@@YAHQEAD_KQEBD@Z 00000001400528e8     libucrtd:strcpy_s.obj
 0002:000118f0       $xdatasym                  00000001400528f0     libucrtd:strcmp.obj
 0002:000118f8       $xdatasym                  00000001400528f8     libucrtd:strlen.obj
 0002:000118fc       $unwind$??$common_message_window@D@@YAHHQEAXQEBD111@Z 00000001400528fc     libucrtd:dbgrpt.obj
 0002:00011910       $unwind$??$common_message_window@_W@@YAHHQEAXQEB_W111@Z 0000000140052910     libucrtd:dbgrpt.obj
 0002:00011924       $unwind$?siglookup@@YAPEAU__crt_signal_action_t@@HQEAU1@@Z 0000000140052924     libucrtd:signal.obj
 0002:00011924       $unwind$?has_flag@?$output_processor@_WV?$string_output_adapter@_W@__crt_stdio_output@@V?$format_validation_base@_WV?$string_output_adapter@_W@__crt_stdio_output@@@2@@__crt_stdio_output@@AEBA_NI@Z 0000000140052924     libucrtd:output.obj
 0002:00011924       $unwind$?set_flags@__crt_stdio_stream@@QEBA_NJ@Z 0000000140052924     libucrtd:_sftbuf.obj
 0002:00011924       $unwind$?has_flag@?$output_processor@DV?$string_output_adapter@D@__crt_stdio_output@@V?$format_validation_base@DV?$string_output_adapter@D@__crt_stdio_output@@@2@@__crt_stdio_output@@AEBA_NI@Z 0000000140052924     libucrtd:output.obj
 0002:00011924       $unwind$??R<lambda_cfae5a0e6efa98e0d1aa03c4cec8f74e>@@QEBA_ND@Z 0000000140052924     libucrtd:argv_wildcards.obj
 0002:00011924       $unwind$?unset_flags@__crt_stdio_stream@@QEBA_NJ@Z 0000000140052924     libucrtd:_sftbuf.obj
 0002:00011924       $unwind$?check@?$cached@H@__crt_cached_ptd_host@@QEBA_NH@Z 0000000140052924     libucrtd:output.obj
 0002:0001192c       $unwind$??$common_vsnprintf_s@_W@@YAH_KQEA_W00QEB_WAEAV__crt_cached_ptd_host@@QEAD@Z 000000014005292c     libucrtd:output.obj
 0002:0001192c       $unwind$??$common_vsnprintf_s@D@@YAH_KQEAD00QEBDAEAV__crt_cached_ptd_host@@1@Z 000000014005292c     libucrtd:output.obj
 0002:00011934       $unwind$??0?$output_adapter_data@DV?$string_output_adapter@D@__crt_stdio_output@@@__crt_stdio_output@@IEAA@AEBV?$string_output_adapter@D@1@_KQEBDAEAV__crt_cached_ptd_host@@QEAD@Z 0000000140052934     libucrtd:output.obj
 0002:00011948       $ip2state$??0?$output_adapter_data@DV?$string_output_adapter@D@__crt_stdio_output@@@__crt_stdio_output@@IEAA@AEBV?$string_output_adapter@D@1@_KQEBDAEAV__crt_cached_ptd_host@@QEAD@Z 0000000140052948     libucrtd:output.obj
 0002:00011950       $unwind$??0?$output_adapter_data@_WV?$string_output_adapter@_W@__crt_stdio_output@@@__crt_stdio_output@@IEAA@AEBV?$string_output_adapter@_W@1@_KQEB_WAEAV__crt_cached_ptd_host@@QEAD@Z 0000000140052950     libucrtd:output.obj
 0002:00011960       $ip2state$??0?$output_adapter_data@_WV?$string_output_adapter@_W@__crt_stdio_output@@@__crt_stdio_output@@IEAA@AEBV?$string_output_adapter@_W@1@_KQEB_WAEAV__crt_cached_ptd_host@@QEAD@Z 0000000140052960     libucrtd:output.obj
 0002:00011968       $unwind$??$common_vsprintf@Vformat_validation_base@__crt_stdio_output@@D@@YAH_KQEAD0QEBDAEAV__crt_cached_ptd_host@@1@Z 0000000140052968     libucrtd:output.obj
 0002:00011968       $unwind$??$common_vsprintf@Vformat_validation_base@__crt_stdio_output@@_W@@YAH_KQEA_W0QEB_WAEAV__crt_cached_ptd_host@@QEAD@Z 0000000140052968     libucrtd:output.obj
 0002:0001197c       $unwind$?swap@@YAXPEAD0_K@Z 000000014005297c     libucrtd:qsort.obj
 0002:0001197c       $unwind$??$is_wide_character_specifier@_W@__crt_stdio_output@@YA_N_K_WW4length_modifier@0@@Z 000000014005297c     libucrtd:output.obj
 0002:00011984       $unwind$?state_case_size@?$output_processor@_WV?$string_output_adapter@_W@__crt_stdio_output@@V?$format_validation_base@_WV?$string_output_adapter@_W@__crt_stdio_output@@@2@@__crt_stdio_output@@AEAA_NXZ 0000000140052984     libucrtd:output.obj
 0002:00011984       $unwind$?process@?$output_processor@DV?$string_output_adapter@D@__crt_stdio_output@@V?$format_validation_base@DV?$string_output_adapter@D@__crt_stdio_output@@@2@@__crt_stdio_output@@QEAAHXZ 0000000140052984     libucrtd:output.obj
 0002:00011984       $unwind$?expand_if_necessary@?$argument_list@D@?A0x5f5c8891@@AEAAHXZ 0000000140052984     libucrtd:argv_wildcards.obj
 0002:00011984       $unwind$?process@?$output_processor@_WV?$string_output_adapter@_W@__crt_stdio_output@@V?$format_validation_base@_WV?$string_output_adapter@_W@__crt_stdio_output@@@2@@__crt_stdio_output@@QEAAHXZ 0000000140052984     libucrtd:output.obj
 0002:00011984       $unwind$?type_case_n@?$output_processor@DV?$string_output_adapter@D@__crt_stdio_output@@V?$format_validation_base@DV?$string_output_adapter@D@__crt_stdio_output@@@2@@__crt_stdio_output@@AEAA_NXZ 0000000140052984     libucrtd:output.obj
 0002:00011984       $unwind$?state_case_size@?$output_processor@DV?$string_output_adapter@D@__crt_stdio_output@@V?$format_validation_base@DV?$string_output_adapter@D@__crt_stdio_output@@@2@@__crt_stdio_output@@AEAA_NXZ 0000000140052984     libucrtd:output.obj
 0002:00011984       $unwind$?type_case_n@?$output_processor@_WV?$string_output_adapter@_W@__crt_stdio_output@@V?$format_validation_base@_WV?$string_output_adapter@_W@__crt_stdio_output@@@2@@__crt_stdio_output@@AEAA_NXZ 0000000140052984     libucrtd:output.obj
 0002:0001198c       $unwind$?type_case_c_tchar@?$output_processor@DV?$string_output_adapter@D@__crt_stdio_output@@V?$format_validation_base@DV?$string_output_adapter@D@__crt_stdio_output@@@2@@__crt_stdio_output@@AEAA_ND@Z 000000014005298c     libucrtd:output.obj
 0002:0001198c       $unwind$?state_case_normal_tchar@?$output_processor@DV?$string_output_adapter@D@__crt_stdio_output@@V?$format_validation_base@DV?$string_output_adapter@D@__crt_stdio_output@@@2@@__crt_stdio_output@@AEAA_ND@Z 000000014005298c     libucrtd:output.obj
 0002:00011994       $unwind$?parse_int_from_format_string@?$output_processor@DV?$string_output_adapter@D@__crt_stdio_output@@V?$format_validation_base@DV?$string_output_adapter@D@__crt_stdio_output@@@2@@__crt_stdio_output@@AEAA_NQEAH@Z 0000000140052994     libucrtd:output.obj
 0002:00011994       $unwind$?write_stored_string_tchar@?$output_processor@_WV?$string_output_adapter@_W@__crt_stdio_output@@V?$format_validation_base@_WV?$string_output_adapter@_W@__crt_stdio_output@@@2@@__crt_stdio_output@@AEAA_N_W@Z 0000000140052994     libucrtd:output.obj
 0002:00011994       $unwind$_expand_base       0000000140052994     libucrtd:expand.obj
 0002:00011994       $unwind$?parse_int_from_format_string@?$output_processor@_WV?$string_output_adapter@_W@__crt_stdio_output@@V?$format_validation_base@_WV?$string_output_adapter@_W@__crt_stdio_output@@@2@@__crt_stdio_output@@AEAA_NQEAH@Z 0000000140052994     libucrtd:output.obj
 0002:0001199c       $unwind$?state_case_type@?$output_processor@DV?$string_output_adapter@D@__crt_stdio_output@@V?$format_validation_base@DV?$string_output_adapter@D@__crt_stdio_output@@@2@@__crt_stdio_output@@AEAA_NXZ 000000014005299c     libucrtd:output.obj
 0002:000119a4       $unwind$?type_case_s_compute_narrow_string_length@?$output_processor@DV?$string_output_adapter@D@__crt_stdio_output@@V?$format_validation_base@DV?$string_output_adapter@D@__crt_stdio_output@@@2@@__crt_stdio_output@@AEAAHHD@Z 00000001400529a4     libucrtd:output.obj
 0002:000119ac       $unwind$?type_case_a@?$output_processor@_WV?$string_output_adapter@_W@__crt_stdio_output@@V?$format_validation_base@_WV?$string_output_adapter@_W@__crt_stdio_output@@@2@@__crt_stdio_output@@AEAA_NXZ 00000001400529ac     libucrtd:output.obj
 0002:000119ac       $unwind$?type_case_a@?$output_processor@DV?$string_output_adapter@D@__crt_stdio_output@@V?$format_validation_base@DV?$string_output_adapter@D@__crt_stdio_output@@@2@@__crt_stdio_output@@AEAA_NXZ 00000001400529ac     libucrtd:output.obj
 0002:000119b8       $unwind$?write_stored_string_tchar@?$output_processor@DV?$string_output_adapter@D@__crt_stdio_output@@V?$format_validation_base@DV?$string_output_adapter@D@__crt_stdio_output@@@2@@__crt_stdio_output@@AEAA_ND@Z 00000001400529b8     libucrtd:output.obj
 0002:000119c8       $unwind$?find_next_state@?$output_processor@DV?$string_output_adapter@D@__crt_stdio_output@@V?$format_validation_base@DV?$string_output_adapter@D@__crt_stdio_output@@@2@@__crt_stdio_output@@AEBA?AW4state@2@DW432@@Z 00000001400529c8     libucrtd:output.obj
 0002:000119d8       $ip2state$?find_next_state@?$output_processor@DV?$string_output_adapter@D@__crt_stdio_output@@V?$format_validation_base@DV?$string_output_adapter@D@__crt_stdio_output@@@2@@__crt_stdio_output@@AEBA?AW4state@2@DW432@@Z 00000001400529d8     libucrtd:output.obj
 0002:000119e0       $unwind$?adjust_hexit@?$output_processor@_WV?$string_output_adapter@_W@__crt_stdio_output@@V?$format_validation_base@_WV?$string_output_adapter@_W@__crt_stdio_output@@@2@@__crt_stdio_output@@CADH_N@Z 00000001400529e0     libucrtd:output.obj
 0002:000119e0       $unwind$?filter_mbtowcs_flags@@YAKIK@Z 00000001400529e0     libucrtd:multibytetowidechar.obj
 0002:000119e0       $unwind$?filter_wcstomb_flags@@YAKIK@Z 00000001400529e0     libucrtd:widechartomultibyte.obj
 0002:000119e0       $unwind$?adjust_hexit@?$output_processor@DV?$string_output_adapter@D@__crt_stdio_output@@V?$format_validation_base@DV?$string_output_adapter@D@__crt_stdio_output@@@2@@__crt_stdio_output@@CADH_N@Z 00000001400529e0     libucrtd:output.obj
 0002:000119e8       $unwind$?state_case_type@?$output_processor@_WV?$string_output_adapter@_W@__crt_stdio_output@@V?$format_validation_base@_WV?$string_output_adapter@_W@__crt_stdio_output@@@2@@__crt_stdio_output@@AEAA_NXZ 00000001400529e8     libucrtd:output.obj
 0002:000119f8       $unwind$?find_next_state@?$output_processor@_WV?$string_output_adapter@_W@__crt_stdio_output@@V?$format_validation_base@_WV?$string_output_adapter@_W@__crt_stdio_output@@@2@@__crt_stdio_output@@AEBA?AW4state@2@_WW432@@Z 00000001400529f8     libucrtd:output.obj
 0002:00011a08       $ip2state$?find_next_state@?$output_processor@_WV?$string_output_adapter@_W@__crt_stdio_output@@V?$format_validation_base@_WV?$string_output_adapter@_W@__crt_stdio_output@@@2@@__crt_stdio_output@@AEBA?AW4state@2@_WW432@@Z 0000000140052a08     libucrtd:output.obj
 0002:00011a10       $unwind$??$parse_integer@KV?$c_string_character_source@_W@__crt_strtox@@$0A@@__crt_strtox@@YAKAEAV__crt_cached_ptd_host@@V?$c_string_character_source@_W@0@H_N@Z 0000000140052a10     libucrtd:output.obj
 0002:00011a10       $unwind$__acrt_fp_strflt_to_string 0000000140052a10     libucrtd:_fptostr.obj
 0002:00011a18       $unwind$??$type_case_integer@$09@?$output_processor@_WV?$string_output_adapter@_W@__crt_stdio_output@@V?$format_validation_base@_WV?$string_output_adapter@_W@__crt_stdio_output@@@2@@__crt_stdio_output@@AEAA_N_N@Z 0000000140052a18     libucrtd:output.obj
 0002:00011a18       $unwind$??$type_case_integer@$0BA@@?$output_processor@DV?$string_output_adapter@D@__crt_stdio_output@@V?$format_validation_base@DV?$string_output_adapter@D@__crt_stdio_output@@@2@@__crt_stdio_output@@AEAA_N_N@Z 0000000140052a18     libucrtd:output.obj
 0002:00011a18       $unwind$??$type_case_integer@$07@?$output_processor@_WV?$string_output_adapter@_W@__crt_stdio_output@@V?$format_validation_base@_WV?$string_output_adapter@_W@__crt_stdio_output@@@2@@__crt_stdio_output@@AEAA_N_N@Z 0000000140052a18     libucrtd:output.obj
 0002:00011a18       $unwind$??$type_case_integer@$0BA@@?$output_processor@_WV?$string_output_adapter@_W@__crt_stdio_output@@V?$format_validation_base@_WV?$string_output_adapter@_W@__crt_stdio_output@@@2@@__crt_stdio_output@@AEAA_N_N@Z 0000000140052a18     libucrtd:output.obj
 0002:00011a18       $unwind$??$type_case_integer@$07@?$output_processor@DV?$string_output_adapter@D@__crt_stdio_output@@V?$format_validation_base@DV?$string_output_adapter@D@__crt_stdio_output@@@2@@__crt_stdio_output@@AEAA_N_N@Z 0000000140052a18     libucrtd:output.obj
 0002:00011a18       $unwind$??$type_case_integer@$09@?$output_processor@DV?$string_output_adapter@D@__crt_stdio_output@@V?$format_validation_base@DV?$string_output_adapter@D@__crt_stdio_output@@@2@@__crt_stdio_output@@AEAA_N_N@Z 0000000140052a18     libucrtd:output.obj
 0002:00011a20       $unwind$??$type_case_integer_parse_into_buffer@I$09@?$output_processor@_WV?$string_output_adapter@_W@__crt_stdio_output@@V?$format_validation_base@_WV?$string_output_adapter@_W@__crt_stdio_output@@@2@@__crt_stdio_output@@AEAAXI_N@Z 0000000140052a20     libucrtd:output.obj
 0002:00011a20       $unwind$??$type_case_integer_parse_into_buffer@I$09@?$output_processor@DV?$string_output_adapter@D@__crt_stdio_output@@V?$format_validation_base@DV?$string_output_adapter@D@__crt_stdio_output@@@2@@__crt_stdio_output@@AEAAXI_N@Z 0000000140052a20     libucrtd:output.obj
 0002:00011a20       $unwind$__dcrt_write_console 0000000140052a20     libucrtd:initcon.obj
 0002:00011a20       $unwind$??$type_case_integer_parse_into_buffer@I$07@?$output_processor@DV?$string_output_adapter@D@__crt_stdio_output@@V?$format_validation_base@DV?$string_output_adapter@D@__crt_stdio_output@@@2@@__crt_stdio_output@@AEAAXI_N@Z 0000000140052a20     libucrtd:output.obj
 0002:00011a20       $unwind$??$type_case_integer_parse_into_buffer@I$0BA@@?$output_processor@DV?$string_output_adapter@D@__crt_stdio_output@@V?$format_validation_base@DV?$string_output_adapter@D@__crt_stdio_output@@@2@@__crt_stdio_output@@AEAAXI_N@Z 0000000140052a20     libucrtd:output.obj
 0002:00011a20       $unwind$_controlfp_s       0000000140052a20     libucrtd:contrlfp.obj
 0002:00011a20       $unwind$??$type_case_integer_parse_into_buffer@I$0BA@@?$output_processor@_WV?$string_output_adapter@_W@__crt_stdio_output@@V?$format_validation_base@_WV?$string_output_adapter@_W@__crt_stdio_output@@@2@@__crt_stdio_output@@AEAAXI_N@Z 0000000140052a20     libucrtd:output.obj
 0002:00011a20       $unwind$??$type_case_integer_parse_into_buffer@I$07@?$output_processor@_WV?$string_output_adapter@_W@__crt_stdio_output@@V?$format_validation_base@_WV?$string_output_adapter@_W@__crt_stdio_output@@@2@@__crt_stdio_output@@AEAAXI_N@Z 0000000140052a20     libucrtd:output.obj
 0002:00011a20       $unwind$__acrt_InitializeCriticalSectionEx 0000000140052a20     libucrtd:winapi_thunks.obj
 0002:00011a28       $xdatasym                  0000000140052a28     libucrtd:strncmp.obj
 0002:00011a2c       $unwind$?construct_ptd@@YAXQEAU__acrt_ptd@@QEAPEAU__crt_locale_data@@@Z 0000000140052a2c     libucrtd:per_thread_data.obj
 0002:00011a40       $ip2state$?construct_ptd@@YAXQEAU__acrt_ptd@@QEAPEAU__crt_locale_data@@@Z 0000000140052a40     libucrtd:per_thread_data.obj
 0002:00011a48       $unwind$??$__acrt_lock_and_call@V<lambda_8d0ee55de4b1038c4002e0adecdf1839>@@@@YAXW4__acrt_lock_id@@$$QEAV<lambda_8d0ee55de4b1038c4002e0adecdf1839>@@@Z 0000000140052a48     libucrtd:per_thread_data.obj
 0002:00011a58       $ip2state$??$__acrt_lock_and_call@V<lambda_8d0ee55de4b1038c4002e0adecdf1839>@@@@YAXW4__acrt_lock_id@@$$QEAV<lambda_8d0ee55de4b1038c4002e0adecdf1839>@@@Z 0000000140052a58     libucrtd:per_thread_data.obj
 0002:00011a60       $unwind$??$__acrt_lock_and_call@V<lambda_92619d2358a28f41a33ba319515a20b9>@@@@YAXW4__acrt_lock_id@@$$QEAV<lambda_92619d2358a28f41a33ba319515a20b9>@@@Z 0000000140052a60     libucrtd:per_thread_data.obj
 0002:00011a70       $ip2state$??$__acrt_lock_and_call@V<lambda_92619d2358a28f41a33ba319515a20b9>@@@@YAXW4__acrt_lock_id@@$$QEAV<lambda_92619d2358a28f41a33ba319515a20b9>@@@Z 0000000140052a70     libucrtd:per_thread_data.obj
 0002:00011a78       $unwind$?destroy_ptd@@YAXQEAU__acrt_ptd@@@Z 0000000140052a78     libucrtd:per_thread_data.obj
 0002:00011a88       $ip2state$?destroy_ptd@@YAXQEAU__acrt_ptd@@@Z 0000000140052a88     libucrtd:per_thread_data.obj
 0002:00011a90       $unwind$??$__acrt_lock_and_call@V<lambda_e157831efee4ea0afb0a2ace5dd5fd0d>@@@@YAXW4__acrt_lock_id@@$$QEAV<lambda_e157831efee4ea0afb0a2ace5dd5fd0d>@@@Z 0000000140052a90     libucrtd:per_thread_data.obj
 0002:00011aa0       $ip2state$??$__acrt_lock_and_call@V<lambda_e157831efee4ea0afb0a2ace5dd5fd0d>@@@@YAXW4__acrt_lock_id@@$$QEAV<lambda_e157831efee4ea0afb0a2ace5dd5fd0d>@@@Z 0000000140052aa0     libucrtd:per_thread_data.obj
 0002:00011aa8       $unwind$??$__acrt_lock_and_call@V<lambda_8f455de75cd7d7f24b4096f044d8b9e6>@@@@YAXW4__acrt_lock_id@@$$QEAV<lambda_8f455de75cd7d7f24b4096f044d8b9e6>@@@Z 0000000140052aa8     libucrtd:per_thread_data.obj
 0002:00011ab8       $ip2state$??$__acrt_lock_and_call@V<lambda_8f455de75cd7d7f24b4096f044d8b9e6>@@@@YAXW4__acrt_lock_id@@$$QEAV<lambda_8f455de75cd7d7f24b4096f044d8b9e6>@@@Z 0000000140052ab8     libucrtd:per_thread_data.obj
 0002:00011ac0       $unwind$__acrt_lowio_create_handle_array 0000000140052ac0     libucrtd:osfinfo.obj
 0002:00011ac0       $unwind$?internal_get_ptd_head@@YAPEAU__acrt_ptd@@XZ 0000000140052ac0     libucrtd:per_thread_data.obj
 0002:00011ac8       $unwind$??$?RV<lambda_0ae27a3a962d80f24befdcbee591983d>@@AEAV<lambda_8d0ee55de4b1038c4002e0adecdf1839>@@V<lambda_dc504788e8f1664fe9b84e20bfb512f2>@@@?$__crt_seh_guarded_call@X@@QEAAX$$QEAV<lambda_0ae27a3a962d80f24befdcbee591983d>@@AEAV<lambda_8d0ee55de4b1038c4002e0adecdf1839>@@$$QEAV<lambda_dc504788e8f1664fe9b84e20bfb512f2>@@@Z 0000000140052ac8     libucrtd:per_thread_data.obj
 0002:00011ae8       $unwind$??$?RV<lambda_aa87e3671a710a21b5dc78c0bdf72e11>@@AEAV<lambda_92619d2358a28f41a33ba319515a20b9>@@V<lambda_6992ecaafeb10aed2b74cb1fae11a551>@@@?$__crt_seh_guarded_call@X@@QEAAX$$QEAV<lambda_aa87e3671a710a21b5dc78c0bdf72e11>@@AEAV<lambda_92619d2358a28f41a33ba319515a20b9>@@$$QEAV<lambda_6992ecaafeb10aed2b74cb1fae11a551>@@@Z 0000000140052ae8     libucrtd:per_thread_data.obj
 0002:00011b08       $unwind$??$?RV<lambda_74a0ef281e44d15e1136f792f539efb3>@@AEAV<lambda_e157831efee4ea0afb0a2ace5dd5fd0d>@@V<lambda_04ddeca75b7c13fd67716e8dfcef87ee>@@@?$__crt_seh_guarded_call@X@@QEAAX$$QEAV<lambda_74a0ef281e44d15e1136f792f539efb3>@@AEAV<lambda_e157831efee4ea0afb0a2ace5dd5fd0d>@@$$QEAV<lambda_04ddeca75b7c13fd67716e8dfcef87ee>@@@Z 0000000140052b08     libucrtd:per_thread_data.obj
 0002:00011b28       $unwind$??$?RV<lambda_2d41944a1d46af3157314b8a01080d33>@@AEAV<lambda_8f455de75cd7d7f24b4096f044d8b9e6>@@V<lambda_aa500f224e6afead328df44964fe2772>@@@?$__crt_seh_guarded_call@X@@QEAAX$$QEAV<lambda_2d41944a1d46af3157314b8a01080d33>@@AEAV<lambda_8f455de75cd7d7f24b4096f044d8b9e6>@@$$QEAV<lambda_aa500f224e6afead328df44964fe2772>@@@Z 0000000140052b28     libucrtd:per_thread_data.obj
 0002:00011b48       $unwind$__acrt_call_reportfault 0000000140052b48     libucrtd:invalid_parameter.obj
 0002:00011b5c       $unwind$??$common_tcscat_s@_W@@YAHQEA_W_KQEB_W@Z 0000000140052b5c     libucrtd:wcscat_s.obj
 0002:00011b5c       $unwind$??$common_tcscat_s@D@@YAHQEAD_KQEBD@Z 0000000140052b5c     libucrtd:strcat_s.obj
 0002:00011b64       $unwind$?_wcstombs_internal@@YAHPEA_KPEAD_KPEB_W2AEAV__crt_cached_ptd_host@@@Z 0000000140052b64     libucrtd:wcstombs.obj
 0002:00011b64       $unwind$??$common_tcsncpy_s@_W@@YAHQEA_W_KQEB_W1@Z 0000000140052b64     libucrtd:wcsncpy_s.obj
 0002:00011b64       $unwind$?_mbstowcs_internal@@YAHPEA_KPEA_W_KPEBD2AEAV__crt_cached_ptd_host@@@Z 0000000140052b64     libucrtd:mbstowcs.obj
 0002:00011b64       $unwind$?fp_format_a@@YAHQEBNPEAD_KQEAD2H_NIW4__acrt_rounding_mode@@AEAV__crt_cached_ptd_host@@@Z 0000000140052b64     libucrtd:cvt.obj
 0002:00011b64       $unwind$??$common_tcsncpy_s@D@@YAHQEAD_KQEBD1@Z 0000000140052b64     libucrtd:strncpy_s.obj
 0002:00011b6c       $unwind$?get_zero_pack@?$__crt_simd_pack_traits@$00@@SA?AT__m256i@@XZ 0000000140052b6c     libucrtd:strnlen.obj
 0002:00011b74       $unwind$?compare_equals@?$__crt_simd_traits@$00E@@SA?AT__m256i@@T2@0@Z 0000000140052b74     libucrtd:strnlen.obj
 0002:00011b74       $unwind$?compare_equals@?$__crt_simd_traits@$00G@@SA?AT__m256i@@T2@0@Z 0000000140052b74     libucrtd:strnlen.obj
 0002:00011b7c       $unwind$??$common_strnlen_simd@$0A@$00E@@YA_KQEBE_K@Z 0000000140052b7c     libucrtd:strnlen.obj
 0002:00011b7c       $unwind$??$common_strnlen_simd@$0A@$00G@@YA_KQEBG_K@Z 0000000140052b7c     libucrtd:strnlen.obj
 0002:00011b7c       $unwind$??$common_strnlen_simd@$00$00G@@YA_KQEBG_K@Z 0000000140052b7c     libucrtd:strnlen.obj
 0002:00011b88       $unwind$??$common_strnlen_simd@$0A@$0A@E@@YA_KQEBE_K@Z 0000000140052b88     libucrtd:strnlen.obj
 0002:00011b88       $unwind$??$common_strnlen_simd@$0A@$0A@G@@YA_KQEBG_K@Z 0000000140052b88     libucrtd:strnlen.obj
 0002:00011b88       $unwind$??$common_strnlen_simd@$00$0A@G@@YA_KQEBG_K@Z 0000000140052b88     libucrtd:strnlen.obj
 0002:00011b90       $unwind$??1?$__crt_win32_buffer@_WU__crt_win32_buffer_internal_dynamic_resizing@@@@QEAA@XZ 0000000140052b90     libucrtd:argv_wildcards.obj
 0002:00011ba0       $ip2state$??1?$__crt_win32_buffer@_WU__crt_win32_buffer_internal_dynamic_resizing@@@@QEAA@XZ 0000000140052ba0     libucrtd:argv_wildcards.obj
 0002:00011ba8       $unwind$??$__acrt_wcs_to_mbs_cp@U__crt_win32_buffer_internal_dynamic_resizing@@@@YAHQEB_WAEAV?$__crt_win32_buffer@DU__crt_win32_buffer_internal_dynamic_resizing@@@@I@Z 0000000140052ba8     libucrtd:argv_wildcards.obj
 0002:00011ba8       $unwind$??$__acrt_mbs_to_wcs_cp@U__crt_win32_buffer_internal_dynamic_resizing@@@@YAHQEBDAEAV?$__crt_win32_buffer@_WU__crt_win32_buffer_internal_dynamic_resizing@@@@I@Z 0000000140052ba8     libucrtd:argv_wildcards.obj
 0002:00011ba8       $unwind$??$__acrt_wcs_to_mbs_cp@U__crt_win32_buffer_no_resizing@@@@YAHQEB_WAEAV?$__crt_win32_buffer@DU__crt_win32_buffer_no_resizing@@@@I@Z 0000000140052ba8     libucrtd:getmodulefilenamea.obj
 0002:00011bb0       $unwind$??1?$__crt_win32_buffer@DU__crt_win32_buffer_internal_dynamic_resizing@@@@QEAA@XZ 0000000140052bb0     libucrtd:argv_wildcards.obj
 0002:00011bc0       $ip2state$??1?$__crt_win32_buffer@DU__crt_win32_buffer_internal_dynamic_resizing@@@@QEAA@XZ 0000000140052bc0     libucrtd:argv_wildcards.obj
 0002:00011bc8       $unwind$??$common_expand_argv_wildcards@D@@YAHQEAPEADQEAPEAPEAD@Z 0000000140052bc8     libucrtd:argv_wildcards.obj
 0002:00011bd0       $unwind$??$tcspbrk@AEAPEADAEAY02$$CBD@?$__crt_char_traits@D@@SAPEADAEAPEADAEAY02$$CBD@Z 0000000140052bd0     libucrtd:argv_wildcards.obj
 0002:00011be0       $ip2state$??$tcspbrk@AEAPEADAEAY02$$CBD@?$__crt_char_traits@D@@SAPEADAEAPEADAEAY02$$CBD@Z 0000000140052be0     libucrtd:argv_wildcards.obj
 0002:00011be8       $unwind$??$expand_argument_wildcards@D@@YAHQEAD0AEAV?$argument_list@D@?A0x5f5c8891@@@Z 0000000140052be8     libucrtd:argv_wildcards.obj
 0002:00011c00       $ip2state$??$expand_argument_wildcards@D@@YAHQEAD0AEAV?$argument_list@D@?A0x5f5c8891@@@Z 0000000140052c00     libucrtd:argv_wildcards.obj
 0002:00011c08       $unwind$__acrt_GetModuleFileNameA 0000000140052c08     libucrtd:getmodulefilenamea.obj
 0002:00011c18       $unwind$??1?$__crt_win32_buffer@DU__crt_win32_buffer_no_resizing@@@@QEAA@XZ 0000000140052c18     libucrtd:getmodulefilenamea.obj
 0002:00011c28       $ip2state$??1?$__crt_win32_buffer@DU__crt_win32_buffer_no_resizing@@@@QEAA@XZ 0000000140052c28     libucrtd:getmodulefilenamea.obj
 0002:00011c30       $unwind$_setmbcp_nolock    0000000140052c30     libucrtd:mbctype.obj
 0002:00011c40       $unwind$_commit            0000000140052c40     libucrtd:commit.obj
 0002:00011c40       $unwind$?getSystemCP@@YAHH@Z 0000000140052c40     libucrtd:mbctype.obj
 0002:00011c48       $unwind$?update_thread_multibyte_data_internal@@YAPEAU__crt_multibyte_data@@QEAU__acrt_ptd@@QEAPEAU1@@Z 0000000140052c48     libucrtd:mbctype.obj
 0002:00011c68       $unwind$?setmbcp_internal@@YAHH_NQEAU__acrt_ptd@@QEAPEAU__crt_multibyte_data@@@Z 0000000140052c68     libucrtd:mbctype.obj
 0002:00011c80       $ip2state$?setmbcp_internal@@YAHH_NQEAU__acrt_ptd@@QEAPEAU__crt_multibyte_data@@@Z 0000000140052c80     libucrtd:mbctype.obj
 0002:00011c88       $unwind$??$__acrt_lock_and_call@V<lambda_bd5a608237428601b7e45fbdc72b1ae8>@@@@YAXW4__acrt_lock_id@@$$QEAV<lambda_bd5a608237428601b7e45fbdc72b1ae8>@@@Z 0000000140052c88     libucrtd:mbctype.obj
 0002:00011c98       $ip2state$??$__acrt_lock_and_call@V<lambda_bd5a608237428601b7e45fbdc72b1ae8>@@@@YAXW4__acrt_lock_id@@$$QEAV<lambda_bd5a608237428601b7e45fbdc72b1ae8>@@@Z 0000000140052c98     libucrtd:mbctype.obj
 0002:00011ca0       $unwind$?setSBUpLow@@YAXPEAU__crt_multibyte_data@@@Z 0000000140052ca0     libucrtd:mbctype.obj
 0002:00011cb0       $unwind$??$?RV<lambda_efa02eb69bf647d2f7ff0dd6f1103f72>@@AEAV<lambda_bd5a608237428601b7e45fbdc72b1ae8>@@V<lambda_728235dc0fc2b1f82d1fa5b3e7102d8f>@@@?$__crt_seh_guarded_call@X@@QEAAX$$QEAV<lambda_efa02eb69bf647d2f7ff0dd6f1103f72>@@AEAV<lambda_bd5a608237428601b7e45fbdc72b1ae8>@@$$QEAV<lambda_728235dc0fc2b1f82d1fa5b3e7102d8f>@@@Z 0000000140052cb0     libucrtd:mbctype.obj
 0002:00011cd0       $unwind$__acrt_MultiByteToWideChar 0000000140052cd0     libucrtd:multibytetowidechar.obj
 0002:00011cd8       $unwind$__acrt_WideCharToMultiByte 0000000140052cd8     libucrtd:widechartomultibyte.obj
 0002:00011ce0       $unwind$__dcrt_get_narrow_environment_from_os 0000000140052ce0     libucrtd:get_environment_from_os.obj
 0002:00011ce8       $unwind$__acrt_lowio_ensure_fh_exists 0000000140052ce8     libucrtd:osfinfo.obj
 0002:00011d08       $unwind$__acrt_initialize_lowio 0000000140052d08     libucrtd:ioinit.obj
 0002:00011d28       $unwind$?initialize_inherited_file_handles_nolock@@YAXXZ 0000000140052d28     libucrtd:ioinit.obj
 0002:00011d30       $unwind$_isctype_l         0000000140052d30     libucrtd:isctype.obj
 0002:00011d44       $unwind$_chvalidator_l     0000000140052d44     libucrtd:isctype.obj
 0002:00011d4c       $unwind$__acrt_GetStringTypeA 0000000140052d4c     libucrtd:getstringtypea.obj
 0002:00011d54       $unwind$__acrt_update_thread_locale_data 0000000140052d54     libucrtd:locale_refcounting.obj
 0002:00011d74       $unwind$__acrt_LCMapStringEx 0000000140052d74     libucrtd:winapi_thunks.obj
 0002:00011d74       $unwind$??$common_xtox_s@K_W@@YAHKQEA_W_KI_N@Z 0000000140052d74     libucrtd:xtoa.obj
 0002:00011d74       $unwind$??$common_xtox_s@KD@@YAHKQEAD_KI_N@Z 0000000140052d74     libucrtd:xtoa.obj
 0002:00011d7c       $unwind$__acrt_is_interactive 0000000140052d7c     libucrtd:winapi_thunks.obj
 0002:00011d8c       $unwind$_query_new_handler 0000000140052d8c     libucrtd:new_handler.obj
 0002:00011dac       $unwind$raise              0000000140052dac     libucrtd:signal.obj
 0002:00011dcc       $unwind$??$__acrt_lock_and_call@V<lambda_44731a7d0e6d81c3e6aa82d741081786>@@@@YAP6AXH@ZW4__acrt_lock_id@@$$QEAV<lambda_44731a7d0e6d81c3e6aa82d741081786>@@@Z 0000000140052dcc     libucrtd:signal.obj
 0002:00011de0       $ip2state$??$__acrt_lock_and_call@V<lambda_44731a7d0e6d81c3e6aa82d741081786>@@@@YAP6AXH@ZW4__acrt_lock_id@@$$QEAV<lambda_44731a7d0e6d81c3e6aa82d741081786>@@@Z 0000000140052de0     libucrtd:signal.obj
 0002:00011de8       $unwind$??$?RV<lambda_450d765d439847d4c735a33c368b5fc0>@@AEAV<lambda_44731a7d0e6d81c3e6aa82d741081786>@@V<lambda_601a2a7da3b7a96e9554ac7215c4b07c>@@@?$__crt_seh_guarded_call@P6AXH@Z@@QEAAP6AXH@Z$$QEAV<lambda_450d765d439847d4c735a33c368b5fc0>@@AEAV<lambda_44731a7d0e6d81c3e6aa82d741081786>@@$$QEAV<lambda_601a2a7da3b7a96e9554ac7215c4b07c>@@@Z 0000000140052de8     libucrtd:signal.obj
 0002:00011e08       $unwind$_VCrtDbgReportA    0000000140052e08     libucrtd:dbgrptt.obj
 0002:00011e40       $unwind$_VCrtDbgReportW    0000000140052e40     libucrtd:dbgrptt.obj
 0002:00011e78       $unwind$__acrt_fp_format   0000000140052e78     libucrtd:cvt.obj
 0002:00011e80       $unwind$?fp_format_nan_or_infinity@@YAHW4__acrt_fp_class@@_NPEAD_K1@Z 0000000140052e80     libucrtd:cvt.obj
 0002:00011e88       $unwind$?fe_to_nearest@@YA_NQEBN_KF@Z 0000000140052e88     libucrtd:cvt.obj
 0002:00011e90       $unwind$?should_round_up@@YA_NQEBN_KFW4__acrt_rounding_mode@@@Z 0000000140052e90     libucrtd:cvt.obj
 0002:00011e98       $unwind$?fp_format_f@@YAHQEBNQEAD_K12HW4__acrt_rounding_mode@@AEAV__crt_cached_ptd_host@@@Z 0000000140052e98     libucrtd:cvt.obj
 0002:00011ea0       $unwind$?fp_format_g@@YAHQEBNQEAD_K12H_NIW4__acrt_rounding_mode@@AEAV__crt_cached_ptd_host@@@Z 0000000140052ea0     libucrtd:cvt.obj
 0002:00011ea0       $unwind$?__mbsrtowcs_utf8@__crt_mbstring@@YA_KPEA_WPEAPEBD_KPEAU_Mbstatet@@AEAV__crt_cached_ptd_host@@@Z 0000000140052ea0     libucrtd:mbrtowc.obj
 0002:00011eac       $unwind$_wctomb_internal   0000000140052eac     libucrtd:wctomb.obj
 0002:00011eb8       $unwind$_mbtowc_internal   0000000140052eb8     libucrtd:mbtowc.obj
 0002:00011ec0       $xdatasym                  0000000140052ec0     libucrtd:guard_xfg_dispatch.obj
 0002:00011ec4       $unwind$__acrt_OutputDebugStringA 0000000140052ec4     libucrtd:outputdebugstringa.obj
 0002:00011ed8       $unwind$qsort              0000000140052ed8     libucrtd:qsort.obj
 0002:00011ee8       $unwind$?shortsort@@YAXPEAD0_KP6AHPEBX2@Z@Z 0000000140052ee8     libucrtd:qsort.obj
 0002:00011ef8       $stateUnwindMap$?shortsort@@YAXPEAD0_KP6AHPEBX2@Z@Z 0000000140052ef8     libucrtd:qsort.obj
 0002:00011f00       $ip2state$?shortsort@@YAXPEAD0_KP6AHPEBX2@Z@Z 0000000140052f00     libucrtd:qsort.obj
 0002:00011f18       $unwind$strpbrk            0000000140052f18     libucrtd:strpbrk.obj
 0002:00011f20       $unwind$fallbackMethod     0000000140052f20     libucrtd:strpbrk.obj
 0002:00011f30       $unwind$_mbsdec_l          0000000140052f30     libucrtd:mbsdec.obj
 0002:00011f38       $unwind$?__acrt_LCMapStringA_stat@@YAHPEAU__crt_locale_pointers@@PEB_WKPEBDHPEADHHH@Z 0000000140052f38     libucrtd:lcmapstringa.obj
 0002:00011f40       $unwind$??$common_xtox@KD@@YAHKQEAD_KI_N@Z 0000000140052f40     libucrtd:xtoa.obj
 0002:00011f40       $unwind$??$common_xtox@K_W@@YAHKQEA_W_KI_N@Z 0000000140052f40     libucrtd:xtoa.obj
 0002:00011f48       $unwind$?common_flush_all@@YAH_N@Z 0000000140052f48     libucrtd:fflush.obj
 0002:00011f58       $ip2state$?common_flush_all@@YAH_N@Z 0000000140052f58     libucrtd:fflush.obj
 0002:00011f60       $unwind$??$__acrt_lock_stream_and_call@V<lambda_c5860995281e5c4ce005b3de8f5874ee>@@@@YAXQEAU_iobuf@@$$QEAV<lambda_c5860995281e5c4ce005b3de8f5874ee>@@@Z 0000000140052f60     libucrtd:fflush.obj
 0002:00011f70       $ip2state$??$__acrt_lock_stream_and_call@V<lambda_c5860995281e5c4ce005b3de8f5874ee>@@@@YAXQEAU_iobuf@@$$QEAV<lambda_c5860995281e5c4ce005b3de8f5874ee>@@@Z 0000000140052f70     libucrtd:fflush.obj
 0002:00011f78       $unwind$??$__acrt_lock_and_call@V<lambda_ab61a845afdef5b7c387490eaf3616ee>@@@@YAXW4__acrt_lock_id@@$$QEAV<lambda_ab61a845afdef5b7c387490eaf3616ee>@@@Z 0000000140052f78     libucrtd:fflush.obj
 0002:00011f88       $ip2state$??$__acrt_lock_and_call@V<lambda_ab61a845afdef5b7c387490eaf3616ee>@@@@YAXW4__acrt_lock_id@@$$QEAV<lambda_ab61a845afdef5b7c387490eaf3616ee>@@@Z 0000000140052f88     libucrtd:fflush.obj
 0002:00011f90       $unwind$??$?RV<lambda_842d9ff0dc9ef11c61343bbaebe7f885>@@AEAV<lambda_c5860995281e5c4ce005b3de8f5874ee>@@V<lambda_d90129c13df834fdcbf8d2b88dafcf2d>@@@?$__crt_seh_guarded_call@X@@QEAAX$$QEAV<lambda_842d9ff0dc9ef11c61343bbaebe7f885>@@AEAV<lambda_c5860995281e5c4ce005b3de8f5874ee>@@$$QEAV<lambda_d90129c13df834fdcbf8d2b88dafcf2d>@@@Z 0000000140052f90     libucrtd:fflush.obj
 0002:00011fb0       $unwind$??$?RV<lambda_886d6c58226a84441f68b9f2b8217b83>@@AEAV<lambda_ab61a845afdef5b7c387490eaf3616ee>@@V<lambda_f7f22ab5edc0698d5f6905b0d3f44752>@@@?$__crt_seh_guarded_call@X@@QEAAX$$QEAV<lambda_886d6c58226a84441f68b9f2b8217b83>@@AEAV<lambda_ab61a845afdef5b7c387490eaf3616ee>@@$$QEAV<lambda_f7f22ab5edc0698d5f6905b0d3f44752>@@@Z 0000000140052fb0     libucrtd:fflush.obj
 0002:00011fd0       $unwind$?_mbstowcs_l_helper@@YA_KPEA_WPEBD_KAEAV__crt_cached_ptd_host@@@Z 0000000140052fd0     libucrtd:mbstowcs.obj
 0002:00011fe8       $ip2state$?_mbstowcs_l_helper@@YA_KPEA_WPEBD_KAEAV__crt_cached_ptd_host@@@Z 0000000140052fe8     libucrtd:mbstowcs.obj
 0002:00011ff0       $unwind$?_wcstombs_l_helper@@YA_KPEADPEB_W_KAEAV__crt_cached_ptd_host@@@Z 0000000140052ff0     libucrtd:wcstombs.obj
 0002:00012004       $unwind$__acrt_fltout      0000000140053004     libucrtd:cfout.obj
 0002:0001200c       $unwind$?make_big_integer@__crt_strtox@@YA?AUbig_integer@1@_K@Z 000000014005300c     libucrtd:cfout.obj
 0002:0001201c       $unwind$?make_big_integer_power_of_two@__crt_strtox@@YA?AUbig_integer@1@I@Z 000000014005301c     libucrtd:cfout.obj
 0002:0001202c       $unwind$?shift_left@__crt_strtox@@YA_NAEAUbig_integer@1@I@Z 000000014005302c     libucrtd:cfout.obj
 0002:0001203c       $unwind$?add_multiply_carry@__crt_strtox@@YAIAEAIIII@Z 000000014005303c     libucrtd:cfout.obj
 0002:00012044       $unwind$?multiply@__crt_strtox@@YA_NAEAUbig_integer@1@I@Z 0000000140053044     libucrtd:cfout.obj
 0002:00012054       $unwind$?multiply@__crt_strtox@@YA_NAEAUbig_integer@1@AEBU21@@Z 0000000140053054     libucrtd:cfout.obj
 0002:00012064       $unwind$?multiply_by_power_of_ten@__crt_strtox@@YA_NAEAUbig_integer@1@I@Z 0000000140053064     libucrtd:cfout.obj
 0002:00012074       $unwind$?divide@__crt_strtox@@YA_KAEAUbig_integer@1@AEBU21@@Z 0000000140053074     libucrtd:cfout.obj
 0002:00012084       $unwind$??$convert_to_fos_high_precision@N@@YA?AW4__acrt_has_trailing_digits@@NIW4__acrt_precision_style@@QEAHQEAD_K@Z 0000000140053084     libucrtd:cfout.obj
 0002:00012094       $unwind$?__c32rtomb_utf8@__crt_mbstring@@YA_KPEAD_UPEAU_Mbstatet@@AEAV__crt_cached_ptd_host@@@Z 0000000140053094     libucrtd:c32rtomb.obj
 0002:0001209c       $unwind$_fcloseall         000000014005309c     libucrtd:closeall.obj
 0002:000120bc       $unwind$??$__acrt_lowio_lock_fh_and_call@V<lambda_3e4146214822e0ea86c47ff907aef2ff>@@@@YAHH$$QEAV<lambda_3e4146214822e0ea86c47ff907aef2ff>@@@Z 00000001400530bc     libucrtd:commit.obj
 0002:000120d0       $ip2state$??$__acrt_lowio_lock_fh_and_call@V<lambda_3e4146214822e0ea86c47ff907aef2ff>@@@@YAHH$$QEAV<lambda_3e4146214822e0ea86c47ff907aef2ff>@@@Z 00000001400530d0     libucrtd:commit.obj
 0002:000120d8       $unwind$??$?RV<lambda_7d29013d608e9f25a034de83c9b9e983>@@AEAV<lambda_3e4146214822e0ea86c47ff907aef2ff>@@V<lambda_b869e5a4e1069fcb5c3da79c0d999133>@@@?$__crt_seh_guarded_call@H@@QEAAH$$QEAV<lambda_7d29013d608e9f25a034de83c9b9e983>@@AEAV<lambda_3e4146214822e0ea86c47ff907aef2ff>@@$$QEAV<lambda_b869e5a4e1069fcb5c3da79c0d999133>@@@Z 00000001400530d8     libucrtd:commit.obj
 0002:000120f8       $unwind$_write_nolock      00000001400530f8     libucrtd:write.obj
 0002:0001210c       $unwind$_write_internal    000000014005310c     libucrtd:write.obj
 0002:0001212c       $unwind$?write_double_translated_ansi_nolock@@YA?AUwrite_result@?A0x17268360@@HQEBDIAEAV__crt_cached_ptd_host@@@Z 000000014005312c     libucrtd:write.obj
 0002:00012148       $ip2state$?write_double_translated_ansi_nolock@@YA?AUwrite_result@?A0x17268360@@HQEBDIAEAV__crt_cached_ptd_host@@@Z 0000000140053148     libucrtd:write.obj
 0002:00012150       $unwind$?write_double_translated_unicode_nolock@@YA?AUwrite_result@?A0x17268360@@QEBDI@Z 0000000140053150     libucrtd:write.obj
 0002:00012164       $unwind$?write_text_utf16le_nolock@@YA?AUwrite_result@?A0x17268360@@HQEBDI@Z 0000000140053164     libucrtd:write.obj
 0002:00012164       $unwind$?write_text_ansi_nolock@@YA?AUwrite_result@?A0x17268360@@HQEBDI@Z 0000000140053164     libucrtd:write.obj
 0002:00012178       $unwind$?write_text_utf8_nolock@@YA?AUwrite_result@?A0x17268360@@HQEBDI@Z 0000000140053178     libucrtd:write.obj
 0002:0001218c       $unwind$?write_binary_nolock@@YA?AUwrite_result@?A0x17268360@@HQEBDI@Z 000000014005318c     libucrtd:write.obj
 0002:000121a0       $unwind$?__wcsrtombs_utf8@__crt_mbstring@@YA_KPEADPEAPEB_W_KPEAU_Mbstatet@@AEAV__crt_cached_ptd_host@@@Z 00000001400531a0     libucrtd:wcrtomb.obj
 0002:000121b0       $xdatasym                  00000001400531b0     libucrtd:log10.obj
 0002:000121bc       $unwind$ceil               00000001400531bc     libucrtd:ceil.obj
 0002:000121c4       $unwind$?return_illegal_sequence@__crt_mbstring@@YA_KPEAU_Mbstatet@@AEAV__crt_cached_ptd_host@@@Z 00000001400531c4     libucrtd:common_utf8.obj
 0002:000121cc       $unwind$?reset_and_return@__crt_mbstring@@YA_K_KPEAU_Mbstatet@@@Z 00000001400531cc     libucrtd:common_utf8.obj
 0002:000121d4       $unwind$?__mbrtoc32_utf8@__crt_mbstring@@YA_KPEA_UPEBD_KPEAU_Mbstatet@@AEAV__crt_cached_ptd_host@@@Z 00000001400531d4     libucrtd:mbrtoc32.obj
 0002:000121e4       $unwind$?_fclose_internal@@YAHQEAU_iobuf@@AEAV__crt_cached_ptd_host@@@Z 00000001400531e4     libucrtd:fclose.obj
 0002:00012204       $unwind$?__c16rtomb_utf8@__crt_mbstring@@YA_KPEAD_SPEAU_Mbstatet@@AEAV__crt_cached_ptd_host@@@Z 0000000140053204     libucrtd:c16rtomb.obj
 0002:0001220c       $unwind$__acrt_initialize_fma3 000000014005320c     libucrtd:fma3_available.obj
 0002:0001221c       $unwind$_log_special_common 000000014005321c     libucrtd:log_special.obj
 0002:0001222c       $unwind$_log10_special     000000014005322c     libucrtd:log_special.obj
 0002:00012234       $unwind$_handle_error      0000000140053234     libucrtd:libm_error.obj
 0002:00012244       $unwind$common_control87   0000000140053244     libucrtd:ieee.obj
 0002:00012264       $unwind$??$__acrt_lowio_lock_fh_and_call@V<lambda_af29824b49a67d335554598d6cad2be6>@@@@YAHH$$QEAV<lambda_af29824b49a67d335554598d6cad2be6>@@@Z 0000000140053264     libucrtd:close.obj
 0002:00012278       $ip2state$??$__acrt_lowio_lock_fh_and_call@V<lambda_af29824b49a67d335554598d6cad2be6>@@@@YAHH$$QEAV<lambda_af29824b49a67d335554598d6cad2be6>@@@Z 0000000140053278     libucrtd:close.obj
 0002:00012280       $unwind$??$?RV<lambda_19eaff14c5fe7be5b1b106a862eb1091>@@AEAV<lambda_af29824b49a67d335554598d6cad2be6>@@V<lambda_3ce37f5b621ab310299ea5f68cbdf3bb>@@@?$__crt_seh_guarded_call@H@@QEAAH$$QEAV<lambda_19eaff14c5fe7be5b1b106a862eb1091>@@AEAV<lambda_af29824b49a67d335554598d6cad2be6>@@$$QEAV<lambda_3ce37f5b621ab310299ea5f68cbdf3bb>@@@Z 0000000140053280     libucrtd:close.obj
 0002:000122a0       $unwind$??$console_output_reopen_and_retry@V<lambda_61c1b8a38cedca4df5fdc542e6ccae6d>@@@@YAHAEBV<lambda_61c1b8a38cedca4df5fdc542e6ccae6d>@@@Z 00000001400532a0     libucrtd:initcon.obj
 0002:000122b0       $ip2state$??$console_output_reopen_and_retry@V<lambda_61c1b8a38cedca4df5fdc542e6ccae6d>@@@@YAHAEBV<lambda_61c1b8a38cedca4df5fdc542e6ccae6d>@@@Z 00000001400532b0     libucrtd:initcon.obj
 0002:000122b8       $unwind$_ctrlfp            00000001400532b8     libucrtd:fpctrl.obj
 0002:000122d8       $xdatasym                  00000001400532d8     libucrtd:fpsr.obj
 0002:000122e0       $unwind$_IsNonwritableInCurrentImage 00000001400532e0     LIBCMTD:pesect.obj
 0002:00012300       $xdatasym                  0000000140053300     LIBCMTD:chkstk.obj
 0002:00012308       $xdatasym                  0000000140053308     libvcruntimed:memcmp.obj
 0002:000127ae       .idata$6                   00000001400537ae     user32:USER32.dll
 0002:000129c4       .idata$6                   00000001400539c4     kernel32:KERNEL32.dll
 0003:00000030       ?__vcrt_flsindex@@3KA      0000000140054030     libvcruntimed:per_thread_data.obj
 0003:00000040       ?__acrt_current_request_number@@3JA 0000000140054040     libucrtd:debug_heap.obj
 0003:00000060       ?__acrt_flsindex@@3KA      0000000140054060     libucrtd:per_thread_data.obj
 0003:00000064       ?errno_no_memory@@3HA      0000000140054064     libucrtd:errno.obj
 0003:00000068       ?doserrno_no_memory@@3KA   0000000140054068     libucrtd:errno.obj
 0003:000002a0       _mbctypes                  00000001400542a0     libucrtd:mbctype.obj
 0003:000003b0       _mbcasemaps                00000001400543b0     libucrtd:mbctype.obj
 0003:000004b0       ?__rgctypeflag@@3PADA      00000001400544b0     libucrtd:mbctype.obj
 0003:000004c0       ?__rgcode_page_info@@3PAUcode_page_info@@A 00000001400544c0     libucrtd:mbctype.obj
 0003:000007d0       ?__acrt_debug_fill_threshold@@3_KA 00000001400547d0     libucrtd:debug_fill_threshold.obj
 0003:00000a20       ?dazSupported@?1??common_control87@@9@9 0000000140054a20     libucrtd:ieee.obj
 0003:00000a28       ?__dcrt_lowio_console_output_handle@@3PEAXEA 0000000140054a28     libucrtd:initcon.obj
 0003:00000a30       ?dazSupported@?1??_ctrlfp@@9@9 0000000140054a30     libucrtd:fpctrl.obj
 0003:00000ab0       ?GlobalState@@3Uprog_state@@A 0000000140054ab0     win32_main.obj
 0003:00000b40       GS_ExceptionRecord         0000000140054b40     LIBCMTD:gs_report.obj
 0003:00000be0       GS_ContextRecord           0000000140054be0     LIBCMTD:gs_report.obj
 0003:000010c0       ?is_initialized_as_dll@@3_NA 00000001400550c0     LIBCMTD:utility.obj
 0003:000010c1       ?module_local_atexit_table_initialized@@3_NA 00000001400550c1     LIBCMTD:utility.obj
 0003:000010c8       ?module_local_atexit_table@@3U_onexit_table_t@@A 00000001400550c8     LIBCMTD:utility.obj
 0003:000010e0       ?module_local_at_quick_exit_table@@3U_onexit_table_t@@A 00000001400550e0     LIBCMTD:utility.obj
 0003:00001130       ?__vcrt_startup_thread_ptd@@3U__vcrt_ptd@@A 0000000140055130     libvcruntimed:per_thread_data.obj
 0003:000011c0       __vcrt_lock_table          00000001400551c0     libvcruntimed:locks.obj
 0003:000011e8       __vcrt_locks_initialized   00000001400551e8     libvcruntimed:locks.obj
 0003:000011f0       ?module_handles@@3PAPEAUHINSTANCE__@@A 00000001400551f0     libvcruntimed:winapi_downlevel.obj
 0003:00001208       ?encoded_function_pointers@@3PAPEAXA 0000000140055208     libvcruntimed:winapi_downlevel.obj
 0003:00001278       ?heap@@3V_HeapManager@@A   0000000140055278     libvcruntimed:undname.obj
 0003:000012a0       ?__acrt_app_type@@3W4_crt_app_type@@A 00000001400552a0     libucrtd:report_runtime_error.obj
 0003:000012b0       ?outmsg@?9??__acrt_report_runtime_error@@9@4PA_WA 00000001400552b0     libucrtd:report_runtime_error.obj
 0003:000018d8       ?user_matherr@@3V?$dual_state_global@P6AHPEAU_exception@@@Z@__crt_state_management@@A 00000001400558d8     libucrtd:matherr.obj
 0003:000018e0       ?program_name@?1???$common_configure_argv@D@@YAHW4_crt_argv_mode@@@Z@4PADA 00000001400558e0     libucrtd:argv_parsing.obj
 0003:00001a08       ?empty_string@?1???$common_wincmdln@E@@YAPEAEXZ@4PAEA 0000000140055a08     libucrtd:argv_winmain.obj
 0003:00001a0c       ?c_termination_complete@@3JA 0000000140055a0c     libucrtd:exit.obj
 0003:00001a10       ?thread_local_exit_callback_func@@3P6AXPEAXK0@ZEA 0000000140055a10     libucrtd:exit.obj
 0003:00001a20       ?__acrt_global_new_mode@@3V?$dual_state_global@J@__crt_state_management@@A 0000000140055a20     libucrtd:new_mode.obj
 0003:00001a58       ?__acrt_first_block@@3PEAU_CrtMemBlockHeader@@EA 0000000140055a58     libucrtd:debug_heap.obj
 0003:00001a60       ?__acrt_last_block@@3PEAU_CrtMemBlockHeader@@EA 0000000140055a60     libucrtd:debug_heap.obj
 0003:00001a68       ?__acrt_total_allocations@@3_KA 0000000140055a68     libucrtd:debug_heap.obj
 0003:00001a70       ?__acrt_current_allocations@@3_KA 0000000140055a70     libucrtd:debug_heap.obj
 0003:00001a78       ?__acrt_max_allocations@@3_KA 0000000140055a78     libucrtd:debug_heap.obj
 0003:00001a80       ?__acrt_check_frequency@@3IA 0000000140055a80     libucrtd:debug_heap.obj
 0003:00001a84       ?__acrt_check_counter@@3IA 0000000140055a84     libucrtd:debug_heap.obj
 0003:00001a90       ?heap_validation_pending@@3_NA 0000000140055a90     libucrtd:debug_heap.obj
 0003:00001a98       ?__acrt_invalid_parameter_handler@@3V?$dual_state_global@P6AXPEB_W00I_K@Z@__crt_state_management@@A 0000000140055a98     libucrtd:invalid_parameter.obj
 0003:00001aa0       __acrt_error_mode          0000000140055aa0     libucrtd:set_error_mode.obj
 0003:00001ac0       ?fSystemSet@@3HA           0000000140055ac0     libucrtd:mbctype.obj
 0003:00001ac4       ?initialized@?1??__acrt_initialize_multibyte@@9@4_NA 0000000140055ac4     libucrtd:mbctype.obj
 0003:00001b00       ?__acrt_lock_table@@3PAU_RTL_CRITICAL_SECTION@@A 0000000140055b00     libucrtd:locks.obj
 0003:00001d30       ?__acrt_locks_initialized@@3IA 0000000140055d30     libucrtd:locks.obj
 0003:00001d34       ?state_cache@?1???$get_cached_win_policy@Udeveloper_information_policy_properties@?1??__acrt_get_developer_information_policy@@YA?AW4developer_information_policy@@XZ@@@YA?AW4developer_information_policy@@W4AppPolicyShowDeveloperDiagnostic@@@Z@4JA 0000000140055d34     libucrtd:win_policies.obj
 0003:00001d38       ?state_cache@?1???$get_cached_win_policy@Uwindowing_model_policy_properties@?1??__acrt_get_windowing_model_policy@@YA?AW4windowing_model_policy@@XZ@@@YA?AW4windowing_model_policy@@W4AppPolicyWindowingModel@@@Z@4JA 0000000140055d38     libucrtd:win_policies.obj
 0003:00002150       ?module_handles@@3PAPEAUHINSTANCE__@@A 0000000140056150     libucrtd:winapi_thunks.obj
 0003:000021f0       ?encoded_function_pointers@@3PAPEAXA 00000001400561f0     libucrtd:winapi_thunks.obj
 0003:000022f0       ?__acrt_new_handler@@3V?$dual_state_global@P6AH_K@Z@__crt_state_management@@A 00000001400562f0     libucrtd:new_handler.obj
 0003:000022f8       ?ctrlc_action@@3V?$dual_state_global@P6AXH@Z@__crt_state_management@@A 00000001400562f8     libucrtd:signal.obj
 0003:00002300       ?ctrlbreak_action@@3V?$dual_state_global@P6AXH@Z@__crt_state_management@@A 0000000140056300     libucrtd:signal.obj
 0003:00002308       ?abort_action@@3V?$dual_state_global@P6AXH@Z@__crt_state_management@@A 0000000140056308     libucrtd:signal.obj
 0003:00002310       ?term_action@@3V?$dual_state_global@P6AXH@Z@__crt_state_management@@A 0000000140056310     libucrtd:signal.obj
 0003:00002340       ?internal_state@?1??_mbtowc_internal@@9@4U_Mbstatet@@A 0000000140056340     libucrtd:mbtowc.obj
 0003:00002358       ?enable_percent_n@@3_KA    0000000140056358     libucrtd:printf_count_output.obj
 0003:00002360       ?internal_pst@?1??__mbrtoc32_utf8@__crt_mbstring@@YA_KPEA_UPEBD_KPEAU_Mbstatet@@AEAV__crt_cached_ptd_host@@@Z@4U3@A 0000000140056360     libucrtd:mbrtoc32.obj
 0003:00002368       ?internal_pst@?1??__c16rtomb_utf8@__crt_mbstring@@YA_KPEAD_SPEAU_Mbstatet@@AEAV__crt_cached_ptd_host@@@Z@4U3@A 0000000140056368     libucrtd:c16rtomb.obj
 0004:00000000       $pdata$WinMain             0000000140057000     win32_main.obj
 0004:0000000c       $pdata$?Win32MainWindowCallBack@@YA_JPEAUHWND__@@I_K_J@Z 000000014005700c     win32_main.obj
 0004:00000018       $pdata$?V2i@@YA?ATv2i@@HH@Z 0000000140057018     win32_main.obj
 0004:00000024       $pdata$?Win32GetClock@@YA?AT_LARGE_INTEGER@@XZ 0000000140057024     win32_main.obj
 0004:00000030       $pdata$?Win32GetLastFileTime@@YA?AU_FILETIME@@PEAD@Z 0000000140057030     win32_main.obj
 0004:0000003c       $pdata$?Win32LoadDemoCode@@YAXPEAUprog_demo_code@@@Z 000000014005703c     win32_main.obj
 0004:00000048       $pdata$__GSHandlerCheckCommon 0000000140057048     LIBCMTD:gshandler.obj
 0004:00000054       $pdata$__GSHandlerCheck    0000000140057054     LIBCMTD:gshandler.obj
 0004:0000006c       $pdata$?configure_argv@__scrt_narrow_argv_policy@@SAHXZ 000000014005706c     LIBCMTD:exe_winmain.obj
 0004:00000078       $pdata$?initialize_environment@__scrt_narrow_environment_policy@@SAHXZ 0000000140057078     LIBCMTD:exe_winmain.obj
 0004:00000084       $pdata$?set_app_type@__scrt_winmain_policy@@SAXXZ 0000000140057084     LIBCMTD:exe_winmain.obj
 0004:00000090       $pdata$?set_fmode@__scrt_file_policy@@SAXXZ 0000000140057090     LIBCMTD:exe_winmain.obj
 0004:0000009c       $pdata$?set_commode@__scrt_file_policy@@SAXXZ 000000014005709c     LIBCMTD:exe_winmain.obj
 0004:000000a8       $pdata$?invoke_main@@YAHXZ 00000001400570a8     LIBCMTD:exe_winmain.obj
 0004:000000b4       $pdata$?pre_c_initialization@@YAHXZ 00000001400570b4     LIBCMTD:exe_winmain.obj
 0004:000000c0       $pdata$?post_pgo_initialization@@YAHXZ 00000001400570c0     LIBCMTD:exe_winmain.obj
 0004:000000cc       $pdata$?pre_cpp_initialization@@YAXXZ 00000001400570cc     LIBCMTD:exe_winmain.obj
 0004:000000d8       $pdata$?__scrt_common_main_seh@@YAHXZ 00000001400570d8     LIBCMTD:exe_winmain.obj
 0004:000000e4       $pdata$?filt$0@?0??__scrt_common_main_seh@@YAHXZ@4HA 00000001400570e4     LIBCMTD:exe_winmain.obj
 0004:000000f0       $pdata$?__scrt_common_main@@YAHXZ 00000001400570f0     LIBCMTD:exe_winmain.obj
 0004:000000fc       $pdata$WinMainCRTStartup   00000001400570fc     LIBCMTD:exe_winmain.obj
 0004:00000108       $pdata$__report_securityfailure 0000000140057108     LIBCMTD:gs_report.obj
 0004:00000114       $pdata$__report_rangecheckfailure 0000000140057114     LIBCMTD:gs_report.obj
 0004:00000120       $pdata$__report_gsfailure  0000000140057120     LIBCMTD:gs_report.obj
 0004:0000012c       $pdata$capture_current_context 000000014005712c     LIBCMTD:gs_report.obj
 0004:00000138       $pdata$capture_previous_context 0000000140057138     LIBCMTD:gs_report.obj
 0004:00000144       $pdata$__raise_securityfailure 0000000140057144     LIBCMTD:gs_report.obj
 0004:00000150       $pdata$atexit              0000000140057150     LIBCMTD:utility.obj
 0004:0000015c       $pdata$_onexit             000000014005715c     LIBCMTD:utility.obj
 0004:00000168       $pdata$__scrt_is_nonwritable_in_current_image 0000000140057168     LIBCMTD:utility.obj
 0004:00000174       $pdata$__scrt_is_nonwritable_in_current_image$filt$0 0000000140057174     LIBCMTD:utility.obj
 0004:00000180       $pdata$__scrt_acquire_startup_lock 0000000140057180     LIBCMTD:utility.obj
 0004:0000018c       $pdata$__scrt_release_startup_lock 000000014005718c     LIBCMTD:utility.obj
 0004:00000198       $pdata$__scrt_initialize_crt 0000000140057198     LIBCMTD:utility.obj
 0004:000001a4       $pdata$__scrt_uninitialize_crt 00000001400571a4     LIBCMTD:utility.obj
 0004:000001b0       $pdata$__scrt_initialize_onexit_tables 00000001400571b0     LIBCMTD:utility.obj
 0004:000001bc       $pdata$?is_potentially_valid_image_base@@YA_NQEAX@Z 00000001400571bc     LIBCMTD:utility.obj
 0004:000001c8       $pdata$?find_pe_section@@YAPEAU_IMAGE_SECTION_HEADER@@QEAE_K@Z 00000001400571c8     LIBCMTD:utility.obj
 0004:000001d4       $pdata$??$__crt_fast_decode_pointer@PEAP6AXXZ@@YAPEAP6AXXZQEAP6AXXZ@Z 00000001400571d4     LIBCMTD:utility.obj
 0004:000001d4       $pdata$??$__crt_fast_decode_pointer@P6AXXZ@@YAP6AXXZQ6AXXZ@Z 00000001400571d4     libvcruntimed:purevirt.obj
 0004:000001d4       $pdata$??$__crt_fast_decode_pointer@PEAX@@YAPEAXQEAX@Z 00000001400571d4     libvcruntimed:winapi_downlevel.obj
 0004:000001e0       $pdata$??$__crt_fast_encode_pointer@PEAX@@YAPEAXQEAX@Z 00000001400571e0     libvcruntimed:winapi_downlevel.obj
 0004:000001e0       $pdata$??$__crt_fast_encode_pointer@P6AXXZ@@YAP6AXXZQ6AXXZ@Z 00000001400571e0     libvcruntimed:purevirt_data.obj
 0004:000001e0       $pdata$??$__crt_fast_encode_pointer@PEAP6AXXZ@@YAPEAP6AXXZQEAP6AXXZ@Z 00000001400571e0     LIBCMTD:utility.obj
 0004:000001ec       $pdata$__security_init_cookie 00000001400571ec     LIBCMTD:gs_support.obj
 0004:000001f8       $pdata$__get_entropy       00000001400571f8     LIBCMTD:gs_support.obj
 0004:00000204       $pdata$?__scrt_initialize_type_info@@YAXXZ 0000000140057204     LIBCMTD:tncleanup.obj
 0004:00000210       $pdata$__scrt_initialize_default_local_stdio_options 0000000140057210     LIBCMTD:default_local_stdio_options.obj
 0004:0000021c       $pdata$__scrt_is_user_matherr_present 000000014005721c     LIBCMTD:matherr_detection.obj
 0004:00000228       $pdata$__scrt_get_show_window_mode 0000000140057228     LIBCMTD:utility_desktop.obj
 0004:00000234       $pdata$__scrt_is_managed_app 0000000140057234     LIBCMTD:utility_desktop.obj
 0004:00000240       $pdata$__scrt_initialize_mta 0000000140057240     LIBCMTD:utility_desktop.obj
 0004:0000024c       $pdata$__scrt_set_unhandled_exception_filter 000000014005724c     LIBCMTD:utility_desktop.obj
 0004:00000258       $pdata$__scrt_fastfail     0000000140057258     LIBCMTD:utility_desktop.obj
 0004:00000264       $pdata$__scrt_unhandled_exception_filter 0000000140057264     LIBCMTD:utility_desktop.obj
 0004:00000270       $pdata$_RTC_Initialize     0000000140057270     LIBCMTD:initsect.obj
 0004:0000027c       $pdata$_RTC_Terminate      000000014005727c     LIBCMTD:initsect.obj
 0004:00000288       $pdata$ReadNoFence64       0000000140057288     LIBCMTD:guard_support.obj
 0004:00000288       $pdata$?__crt_interlocked_read_64@@YA_JPED_J@Z 0000000140057288     libvcruntimed:std_type_info.obj
 0004:00000294       $pdata$ReadPointerNoFence  0000000140057294     LIBCMTD:guard_support.obj
 0004:00000294       $pdata$??$__crt_interlocked_read_pointer@X@@YAPEAXPEDSEAX@Z 0000000140057294     libvcruntimed:winapi_downlevel.obj
 0004:00000294       $pdata$??$__crt_interlocked_read_pointer@UHINSTANCE__@@@@YAPEAUHINSTANCE__@@PEDSEAU0@@Z 0000000140057294     libvcruntimed:winapi_downlevel.obj
 0004:000002a0       $pdata$_guard_icall_checks_enforced 00000001400572a0     LIBCMTD:guard_support.obj
 0004:000002ac       $pdata$__isa_available_init 00000001400572ac     LIBCMTD:cpu_disp.obj
 0004:000002b8       $pdata$__scrt_is_ucrt_dll_in_use 00000001400572b8     LIBCMTD:ucrt_detection.obj
 0004:000002d0       $pdata$__C_specific_handler 00000001400572d0     libvcruntimed:riscchandler.obj
 0004:000002dc       $pdata$__vcrt_initialize   00000001400572dc     libvcruntimed:initialization.obj
 0004:000002e8       $pdata$__vcrt_uninitialize 00000001400572e8     libvcruntimed:initialization.obj
 0004:000002f4       $pdata$__std_type_info_compare 00000001400572f4     libvcruntimed:std_type_info.obj
 0004:00000300       $pdata$??1?$__crt_unique_heap_ptr@DU__crt_internal_free_policy@@@@QEAA@XZ 0000000140057300     libvcruntimed:std_type_info.obj
 0004:00000300       $pdata$??1?$__crt_unique_heap_ptr@U__vcrt_ptd@@U__crt_internal_free_policy@@@@QEAA@XZ 0000000140057300     libvcruntimed:per_thread_data.obj
 0004:0000030c       $pdata$?release@?$__crt_unique_heap_ptr@DU__crt_internal_free_policy@@@@QEAAXXZ 000000014005730c     libvcruntimed:std_type_info.obj
 0004:0000030c       $pdata$?release@?$__crt_unique_heap_ptr@U__vcrt_ptd@@U__crt_internal_free_policy@@@@QEAAXXZ 000000014005730c     libvcruntimed:per_thread_data.obj
 0004:00000318       $pdata$?is_valid@?$__crt_unique_heap_ptr@U__vcrt_ptd@@U__crt_internal_free_policy@@@@QEBA_NXZ 0000000140057318     libvcruntimed:per_thread_data.obj
 0004:00000318       $pdata$?is_valid@?$__crt_unique_heap_ptr@DU__crt_internal_free_policy@@@@QEBA_NXZ 0000000140057318     libvcruntimed:std_type_info.obj
 0004:00000318       $pdata$?is_valid@?$__crt_unique_heap_ptr@DU__crt_public_free_policy@@@@QEBA_NXZ 0000000140057318     libvcruntimed:std_exception.obj
 0004:00000324       $pdata$??B?$__crt_unique_heap_ptr@DU__crt_public_free_policy@@@@QEBA_NXZ 0000000140057324     libvcruntimed:std_exception.obj
 0004:00000324       $pdata$??B?$__crt_unique_heap_ptr@DU__crt_internal_free_policy@@@@QEBA_NXZ 0000000140057324     libvcruntimed:std_type_info.obj
 0004:00000324       $pdata$??B?$__crt_unique_heap_ptr@U__vcrt_ptd@@U__crt_internal_free_policy@@@@QEBA_NXZ 0000000140057324     libvcruntimed:per_thread_data.obj
 0004:00000330       $pdata$??$?RU__vcrt_ptd@@@__crt_internal_free_policy@@QEBAXQEBU__vcrt_ptd@@@Z 0000000140057330     libvcruntimed:per_thread_data.obj
 0004:00000330       $pdata$??$?RD@__crt_internal_free_policy@@QEBAXQEBD@Z 0000000140057330     libvcruntimed:std_type_info.obj
 0004:00000360       $pdata$__except_validate_context_record 0000000140057360     libvcruntimed:jbcxrval.obj
 0004:0000036c       $pdata$?_CallMemberFunction0@@YAXQEAX0@Z 000000014005736c     libvcruntimed:ehhelpers.obj
 0004:00000378       $pdata$_IsExceptionObjectToBeDestroyed 0000000140057378     libvcruntimed:ehhelpers.obj
 0004:00000384       $pdata$__AdjustPointer     0000000140057384     libvcruntimed:ehhelpers.obj
 0004:00000390       $pdata$__FrameUnwindFilter 0000000140057390     libvcruntimed:ehhelpers.obj
 0004:0000039c       $pdata$__DestructExceptionObject 000000014005739c     libvcruntimed:ehhelpers.obj
 0004:000003a8       $pdata$__DestructExceptionObject$filt$0 00000001400573a8     libvcruntimed:ehhelpers.obj
 0004:000003b4       $pdata$__vcrt_initialize_ptd 00000001400573b4     libvcruntimed:per_thread_data.obj
 0004:000003c0       $pdata$__vcrt_uninitialize_ptd 00000001400573c0     libvcruntimed:per_thread_data.obj
 0004:000003cc       $pdata$__vcrt_getptd       00000001400573cc     libvcruntimed:per_thread_data.obj
 0004:000003d8       $pdata$__vcrt_getptd_noexit 00000001400573d8     libvcruntimed:per_thread_data.obj
 0004:000003e4       $pdata$__vcrt_freefls      00000001400573e4     libvcruntimed:per_thread_data.obj
 0004:000003f0       $pdata$??0scoped_get_last_error_reset@?A0xef8ec17e@@QEAA@XZ 00000001400573f0     libvcruntimed:per_thread_data.obj
 0004:000003fc       $pdata$??1scoped_get_last_error_reset@?A0xef8ec17e@@QEAA@XZ 00000001400573fc     libvcruntimed:per_thread_data.obj
 0004:00000408       $pdata$?store_and_initialize_ptd@@YA_NQEAU__vcrt_ptd@@@Z 0000000140057408     libvcruntimed:per_thread_data.obj
 0004:00000414       $pdata$?detach@?$__crt_unique_heap_ptr@U__vcrt_ptd@@U__crt_internal_free_policy@@@@QEAAPEAU__vcrt_ptd@@XZ 0000000140057414     libvcruntimed:per_thread_data.obj
 0004:00000414       $pdata$?detach@?$__crt_unique_heap_ptr@DU__crt_public_free_policy@@@@QEAAPEADXZ 0000000140057414     libvcruntimed:std_exception.obj
 0004:00000420       $pdata$__vcrt_initialize_locks 0000000140057420     libvcruntimed:locks.obj
 0004:0000042c       $pdata$__vcrt_uninitialize_locks 000000014005742c     libvcruntimed:locks.obj
 0004:00000438       $pdata$?__crt_fast_encode_pointer@@YA?AU__crt_fast_encoded_nullptr_t@@$$T@Z 0000000140057438     libvcruntimed:winapi_downlevel.obj
 0004:00000444       $pdata$__vcrt_FlsAlloc     0000000140057444     libvcruntimed:winapi_downlevel.obj
 0004:00000450       $pdata$__vcrt_FlsFree      0000000140057450     libvcruntimed:winapi_downlevel.obj
 0004:0000045c       $pdata$__vcrt_FlsGetValue  000000014005745c     libvcruntimed:winapi_downlevel.obj
 0004:00000468       $pdata$__vcrt_FlsSetValue  0000000140057468     libvcruntimed:winapi_downlevel.obj
 0004:00000474       $pdata$__vcrt_InitializeCriticalSectionEx 0000000140057474     libvcruntimed:winapi_downlevel.obj
 0004:00000480       $pdata$__vcrt_initialize_winapi_thunks 0000000140057480     libvcruntimed:winapi_downlevel.obj
 0004:0000048c       $pdata$__vcrt_uninitialize_winapi_thunks 000000014005748c     libvcruntimed:winapi_downlevel.obj
 0004:00000498       $pdata$??$?BX@__crt_fast_encoded_nullptr_t@@QEBAPEAXXZ 0000000140057498     libvcruntimed:winapi_downlevel.obj
 0004:00000498       $pdata$??$?B$$A6AXXZ@__crt_fast_encoded_nullptr_t@@QEBAP6AXXZXZ 0000000140057498     libvcruntimed:purevirt_data.obj
 0004:000004a4       $pdata$?try_load_library_from_system_directory@@YAPEAUHINSTANCE__@@QEB_W@Z 00000001400574a4     libvcruntimed:winapi_downlevel.obj
 0004:000004b0       $pdata$?try_get_module@@YAPEAUHINSTANCE__@@W4module_id@?A0xbfd18cd1@@@Z 00000001400574b0     libvcruntimed:winapi_downlevel.obj
 0004:000004bc       $pdata$?try_get_first_available_module@@YAPEAUHINSTANCE__@@QEBW4module_id@?A0xbfd18cd1@@0@Z 00000001400574bc     libvcruntimed:winapi_downlevel.obj
 0004:000004c8       $pdata$?try_get_proc_address_from_first_available_module@@YAPEAXQEBDQEBW4module_id@?A0xbfd18cd1@@1@Z 00000001400574c8     libvcruntimed:winapi_downlevel.obj
 0004:000004d4       $pdata$?try_get_function@@YAPEAXW4function_id@?A0xbfd18cd1@@QEBDQEBW4module_id@2@2@Z 00000001400574d4     libvcruntimed:winapi_downlevel.obj
 0004:000004e0       $pdata$?try_get_FlsAlloc@@YAP6AKP6AXPEAX@Z@ZXZ 00000001400574e0     libvcruntimed:winapi_downlevel.obj
 0004:000004ec       $pdata$?try_get_FlsFree@@YAP6AHK@ZXZ 00000001400574ec     libvcruntimed:winapi_downlevel.obj
 0004:000004f8       $pdata$?try_get_FlsGetValue@@YAP6APEAXK@ZXZ 00000001400574f8     libvcruntimed:winapi_downlevel.obj
 0004:00000504       $pdata$?try_get_FlsSetValue@@YAP6AHKPEAX@ZXZ 0000000140057504     libvcruntimed:winapi_downlevel.obj
 0004:00000510       $pdata$?try_get_InitializeCriticalSectionEx@@YAP6AHPEAU_RTL_CRITICAL_SECTION@@KK@ZXZ 0000000140057510     libvcruntimed:winapi_downlevel.obj
 0004:0000051c       $pdata$__vcrt_initialize_pure_virtual_call_handler 000000014005751c     libvcruntimed:purevirt_data.obj
 0004:00000528       $pdata$_vsprintf_s_l       0000000140057528     libvcruntimed:undname.obj
 0004:00000534       $pdata$sprintf_s           0000000140057534     libvcruntimed:undname.obj
 0004:00000558       $pdata$?CatchTryBlock@__FrameHandler3@@SAPEBU_s_TryBlockMapEntry@@PEBU_s_FuncInfo@@H@Z 0000000140057558     libvcruntimed:risctrnsctrl.obj
 0004:00000564       $pdata$?ExecutionInCatch@__FrameHandler3@@SA_NPEAU_xDISPATCHER_CONTEXT@@PEBU_s_FuncInfo@@@Z 0000000140057564     libvcruntimed:risctrnsctrl.obj
 0004:00000570       $pdata$?FrameUnwindToEmptyState@__FrameHandler3@@SAXPEA_KPEAU_xDISPATCHER_CONTEXT@@PEBU_s_FuncInfo@@@Z 0000000140057570     libvcruntimed:risctrnsctrl.obj
 0004:0000057c       $pdata$?GetEstablisherFrame@__FrameHandler3@@SAPEA_KPEA_KPEAU_xDISPATCHER_CONTEXT@@PEBU_s_FuncInfo@@0@Z 000000014005757c     libvcruntimed:risctrnsctrl.obj
 0004:00000588       $pdata$?UnwindNestedFrames@__FrameHandler3@@SAXPEA_KPEAUEHExceptionRecord@@PEAU_CONTEXT@@0PEAXPEBU_s_FuncInfo@@HHPEBU_s_HandlerType@@PEAU_xDISPATCHER_CONTEXT@@E@Z 0000000140057588     libvcruntimed:risctrnsctrl.obj
 0004:00000594       $pdata$?GetRangeOfTrysToCheck@__FrameHandler3@@SA?AU?$pair@Viterator@TryBlockMap@__FrameHandler3@@V123@@std@@AEAVTryBlockMap@1@HH@Z 0000000140057594     libvcruntimed:risctrnsctrl.obj
 0004:000005a0       $pdata$_GetImageBase       00000001400575a0     libvcruntimed:risctrnsctrl.obj
 0004:000005ac       $pdata$_SetImageBase       00000001400575ac     libvcruntimed:risctrnsctrl.obj
 0004:000005b8       $pdata$_GetThrowImageBase  00000001400575b8     libvcruntimed:risctrnsctrl.obj
 0004:000005c4       $pdata$_SetThrowImageBase  00000001400575c4     libvcruntimed:risctrnsctrl.obj
 0004:000005d0       $pdata$_CreateFrameInfo    00000001400575d0     libvcruntimed:risctrnsctrl.obj
 0004:000005dc       $pdata$_FindAndUnlinkFrame 00000001400575dc     libvcruntimed:risctrnsctrl.obj
 0004:000005e8       $pdata$__CxxFrameHandler3  00000001400575e8     libvcruntimed:risctrnsctrl.obj
 0004:000005f4       $pdata$??$_CallSETranslator@V__FrameHandler3@@@@YAHPEAUEHExceptionRecord@@PEA_KPEAU_CONTEXT@@PEAU_xDISPATCHER_CONTEXT@@PEBU_s_FuncInfo@@K1@Z 00000001400575f4     libvcruntimed:risctrnsctrl.obj
 0004:00000600       $pdata$?filt$0@?0???$_CallSETranslator@V__FrameHandler3@@@@YAHPEAUEHExceptionRecord@@PEA_KPEAU_CONTEXT@@PEAU_xDISPATCHER_CONTEXT@@PEBU_s_FuncInfo@@K1@Z@4HA 0000000140057600     libvcruntimed:risctrnsctrl.obj
 0004:0000060c       $pdata$??$?0AEAViterator@TryBlockMap@__FrameHandler3@@AEAV012@$0A@@?$pair@Viterator@TryBlockMap@__FrameHandler3@@V123@@std@@QEAA@AEAViterator@TryBlockMap@__FrameHandler3@@0@Z 000000014005760c     libvcruntimed:risctrnsctrl.obj
 0004:00000618       $pdata$??$SehTransFilter@V__FrameHandler3@@@@YAHPEAU_EXCEPTION_POINTERS@@PEAUEHExceptionRecord@@PEA_KPEAU_CONTEXT@@PEAU_xDISPATCHER_CONTEXT@@PEBU_s_FuncInfo@@PEAH@Z 0000000140057618     libvcruntimed:risctrnsctrl.obj
 0004:00000624       $pdata$?StateFromControlPc@__FrameHandler3@@SAHPEBU_s_FuncInfo@@PEAU_xDISPATCHER_CONTEXT@@@Z 0000000140057624     libvcruntimed:ehstate.obj
 0004:00000630       $pdata$?StateFromIp@__FrameHandler3@@SAHPEBU_s_FuncInfo@@PEAU_xDISPATCHER_CONTEXT@@_K@Z 0000000140057630     libvcruntimed:ehstate.obj
 0004:0000063c       $pdata$?GetCurrentState@__FrameHandler3@@SAHPEA_KPEAU_xDISPATCHER_CONTEXT@@PEBU_s_FuncInfo@@@Z 000000014005763c     libvcruntimed:ehstate.obj
 0004:00000648       $pdata$?SetUnwindTryBlock@__FrameHandler3@@SAXPEA_KPEAU_xDISPATCHER_CONTEXT@@PEBU_s_FuncInfo@@H@Z 0000000140057648     libvcruntimed:ehstate.obj
 0004:00000654       $pdata$?GetUnwindTryBlock@__FrameHandler3@@SAHPEA_KPEAU_xDISPATCHER_CONTEXT@@PEBU_s_FuncInfo@@@Z 0000000140057654     libvcruntimed:ehstate.obj
 0004:00000660       $pdata$__vcrt_EncodePointer 0000000140057660     libvcruntimed:frame.obj
 0004:0000066c       $pdata$?FrameUnwindToState@__FrameHandler3@@SAXPEA_KPEAU_xDISPATCHER_CONTEXT@@PEBU_s_FuncInfo@@H@Z 000000014005766c     libvcruntimed:frame.obj
 0004:00000678       $pdata$?filt$0@?0??FrameUnwindToState@__FrameHandler3@@SAXPEA_KPEAU_xDISPATCHER_CONTEXT@@PEBU_s_FuncInfo@@H@Z@4HA 0000000140057678     libvcruntimed:frame.obj
 0004:00000684       $pdata$?fin$1@?0??FrameUnwindToState@__FrameHandler3@@SAXPEA_KPEAU_xDISPATCHER_CONTEXT@@PEBU_s_FuncInfo@@H@Z@4HA 0000000140057684     libvcruntimed:frame.obj
 0004:00000690       $pdata$?GetHandlerSearchState@__FrameHandler3@@SAHPEA_KPEAU_xDISPATCHER_CONTEXT@@PEBU_s_FuncInfo@@@Z 0000000140057690     libvcruntimed:frame.obj
 0004:0000069c       $pdata$?TypeMatch@__FrameHandler3@@SAHPEBU_s_HandlerType@@PEBU_s_CatchableType@@PEBU_s_ThrowInfo@@@Z 000000014005769c     libvcruntimed:frame.obj
 0004:0000069c       $pdata$__TypeMatch         000000014005769c     libvcruntimed:frame.obj
 0004:000006a8       $pdata$?BuildCatchObject@__FrameHandler3@@SAXPEAUEHExceptionRecord@@PEAXPEBU_s_HandlerType@@PEBU_s_CatchableType@@@Z 00000001400576a8     libvcruntimed:frame.obj
 0004:000006b4       $pdata$?isEHs@__FrameHandler3@@SA_NPEBU_s_FuncInfo@@@Z 00000001400576b4     libvcruntimed:frame.obj
 0004:000006c0       $pdata$?isNoExcept@__FrameHandler3@@SA_NPEBU_s_FuncInfo@@@Z 00000001400576c0     libvcruntimed:frame.obj
 0004:000006cc       $pdata$?getESTypes@__FrameHandler3@@SAPEBU_s_ESTypeList@@PEBU_s_FuncInfo@@@Z 00000001400576cc     libvcruntimed:frame.obj
 0004:000006d8       $pdata$?CxxCallCatchBlock@__FrameHandler3@@SAPEAXPEAU_EXCEPTION_RECORD@@@Z 00000001400576d8     libvcruntimed:frame.obj
 0004:000006e4       $pdata$?filt$0@?0??CxxCallCatchBlock@__FrameHandler3@@SAPEAXPEAU_EXCEPTION_RECORD@@@Z@4HA 00000001400576e4     libvcruntimed:frame.obj
 0004:000006f0       $pdata$?fin$1@?0??CxxCallCatchBlock@__FrameHandler3@@SAPEAXPEAU_EXCEPTION_RECORD@@@Z@4HA 00000001400576f0     libvcruntimed:frame.obj
 0004:000006fc       $pdata$??Miterator@TryBlockMap@__FrameHandler3@@QEBA_NAEBV012@@Z 00000001400576fc     libvcruntimed:frame.obj
 0004:00000708       $pdata$??8iterator@HandlerMap@__FrameHandler3@@QEBA_NAEBV012@@Z 0000000140057708     libvcruntimed:frame.obj
 0004:00000714       $pdata$??9iterator@HandlerMap@__FrameHandler3@@QEBA_NAEBV012@@Z 0000000140057714     libvcruntimed:frame.obj
 0004:00000720       $pdata$?begin@HandlerMap@__FrameHandler3@@QEAA?AViterator@12@XZ 0000000140057720     libvcruntimed:frame.obj
 0004:0000072c       $pdata$?end@HandlerMap@__FrameHandler3@@QEAA?AViterator@12@XZ 000000014005772c     libvcruntimed:frame.obj
 0004:00000738       $pdata$?_CallMemberFunction1@@YAXQEAX00@Z 0000000140057738     libvcruntimed:frame.obj
 0004:00000744       $pdata$?_CallMemberFunction2@@YAXQEAX00H@Z 0000000140057744     libvcruntimed:frame.obj
 0004:00000750       $pdata$??0exception@std@@QEAA@QEBDH@Z 0000000140057750     libvcruntimed:frame.obj
 0004:0000075c       $pdata$??0exception@std@@QEAA@AEBV01@@Z 000000014005775c     libvcruntimed:frame.obj
 0004:00000768       $pdata$??1exception@std@@UEAA@XZ 0000000140057768     libvcruntimed:frame.obj
 0004:00000774       $pdata$?what@exception@std@@UEBAPEBDXZ 0000000140057774     libvcruntimed:frame.obj
 0004:00000780       $pdata$??_Gexception@std@@UEAAPEAXI@Z 0000000140057780     libvcruntimed:frame.obj
 0004:0000078c       $pdata$??0bad_exception@std@@QEAA@XZ 000000014005778c     libvcruntimed:frame.obj
 0004:00000798       $pdata$??1bad_exception@std@@UEAA@XZ 0000000140057798     libvcruntimed:frame.obj
 0004:000007a4       $pdata$??0bad_exception@std@@QEAA@AEBV01@@Z 00000001400577a4     libvcruntimed:frame.obj
 0004:000007b0       $pdata$??_Gbad_exception@std@@UEAAPEAXI@Z 00000001400577b0     libvcruntimed:frame.obj
 0004:000007bc       $pdata$??8type_info@@QEBA_NAEBV0@@Z 00000001400577bc     libvcruntimed:frame.obj
 0004:000007c8       $pdata$?ExFilterRethrow@@YAHPEAU_EXCEPTION_POINTERS@@PEAUEHExceptionRecord@@PEAH@Z 00000001400577c8     libvcruntimed:frame.obj
 0004:000007d4       $pdata$?IsInExceptionSpec@@YAEPEAUEHExceptionRecord@@PEBU_s_ESTypeList@@@Z 00000001400577d4     libvcruntimed:frame.obj
 0004:000007e0       $pdata$?Is_bad_exception_allowed@@YAEPEBU_s_ESTypeList@@@Z 00000001400577e0     libvcruntimed:frame.obj
 0004:000007ec       $pdata$??$__InternalCxxFrameHandler@V__FrameHandler3@@@@YA?AW4_EXCEPTION_DISPOSITION@@PEAUEHExceptionRecord@@PEA_KPEAU_CONTEXT@@PEAU_xDISPATCHER_CONTEXT@@PEBU_s_FuncInfo@@H1E@Z 00000001400577ec     libvcruntimed:frame.obj
 0004:000007f8       $pdata$??$TypeMatchHelper@V__FrameHandler3@@@@YAHPEBU_s_HandlerType@@PEBU_s_CatchableType@@PEBU_s_ThrowInfo@@@Z 00000001400577f8     libvcruntimed:frame.obj
 0004:00000804       $pdata$?__RethrowException@@YAXPEAUEHExceptionRecord@@@Z 0000000140057804     libvcruntimed:frame.obj
 0004:00000810       $pdata$??$BuildCatchObjectHelperInternal@V__FrameHandler3@@@@YAHPEAUEHExceptionRecord@@PEAXPEBU_s_HandlerType@@PEBU_s_CatchableType@@@Z 0000000140057810     libvcruntimed:frame.obj
 0004:0000081c       $pdata$?filt$0@?0??is_bad_read_pointer@@YA_NQEBX_K@Z@4HA 000000014005781c     libucrtd:debug_heap.obj
 0004:0000081c       $pdata$?filt$0@?0???$BuildCatchObjectHelperInternal@V__FrameHandler3@@@@YAHPEAUEHExceptionRecord@@PEAXPEBU_s_HandlerType@@PEBU_s_CatchableType@@@Z@4HA 000000014005781c     libvcruntimed:frame.obj
 0004:0000081c       $pdata$terminate$filt$0    000000014005781c     libucrtd:terminate.obj
 0004:0000081c       $pdata$?filt$0@?0???$BuildCatchObjectInternal@V__FrameHandler3@@@@YAXPEAUEHExceptionRecord@@PEAXPEBU_s_HandlerType@@PEBU_s_CatchableType@@@Z@4HA 000000014005781c     libvcruntimed:frame.obj
 0004:00000828       $pdata$??$BuildCatchObjectInternal@V__FrameHandler3@@@@YAXPEAUEHExceptionRecord@@PEAXPEBU_s_HandlerType@@PEBU_s_CatchableType@@@Z 0000000140057828     libvcruntimed:frame.obj
 0004:00000834       $pdata$??$FindHandler@V__FrameHandler3@@@@YAXPEAUEHExceptionRecord@@PEA_KPEAU_CONTEXT@@PEAU_xDISPATCHER_CONTEXT@@PEBU_s_FuncInfo@@EH1@Z 0000000140057834     libvcruntimed:frame.obj
 0004:00000840       $pdata$??$CatchIt@V__FrameHandler3@@@@YAXPEAUEHExceptionRecord@@PEA_KPEAU_CONTEXT@@PEAU_xDISPATCHER_CONTEXT@@PEBU_s_FuncInfo@@PEBU_s_HandlerType@@PEBU_s_CatchableType@@PEBU_s_TryBlockMapEntry@@H1EE@Z 0000000140057840     libvcruntimed:frame.obj
 0004:0000084c       $pdata$??$FindHandlerForForeignException@V__FrameHandler3@@@@YAXPEAUEHExceptionRecord@@PEA_KPEAU_CONTEXT@@PEAU_xDISPATCHER_CONTEXT@@PEBU_s_FuncInfo@@HH1@Z 000000014005784c     libvcruntimed:frame.obj
 0004:00000888       $pdata$__std_exception_copy 0000000140057888     libvcruntimed:std_exception.obj
 0004:00000894       $pdata$__std_exception_destroy 0000000140057894     libvcruntimed:std_exception.obj
 0004:000008a0       $pdata$??1?$__crt_unique_heap_ptr@DU__crt_public_free_policy@@@@QEAA@XZ 00000001400578a0     libvcruntimed:std_exception.obj
 0004:000008ac       $pdata$?release@?$__crt_unique_heap_ptr@DU__crt_public_free_policy@@@@QEAAXXZ 00000001400578ac     libvcruntimed:std_exception.obj
 0004:000008b8       $pdata$??$?RD@__crt_public_free_policy@@QEBAXQEBD@Z 00000001400578b8     libvcruntimed:std_exception.obj
 0004:000008c4       $pdata$_CxxThrowException  00000001400578c4     libvcruntimed:throw.obj
 0004:000008d0       $pdata$_seh_filter_exe     00000001400578d0     libucrtd:exception_filter.obj
 0004:000008dc       $pdata$?xcptlookup@@YAPEAU__crt_signal_action_t@@KQEAU1@@Z 00000001400578dc     libucrtd:exception_filter.obj
 0004:000008e8       $pdata$__acrt_report_runtime_error 00000001400578e8     libucrtd:report_runtime_error.obj
 0004:000008f4       $pdata$_invoke_watson_if_error 00000001400578f4     libucrtd:report_runtime_error.obj
 0004:00000900       $pdata$?issue_debug_notification@@YA_NQEB_W@Z 0000000140057900     libucrtd:report_runtime_error.obj
 0004:0000090c       $pdata$?should_write_error_to_console@@YA_NXZ 000000014005790c     libucrtd:report_runtime_error.obj
 0004:00000918       $pdata$?write_string_to_console@@YAXQEB_W@Z 0000000140057918     libucrtd:report_runtime_error.obj
 0004:00000924       $pdata$__setusermatherr    0000000140057924     libucrtd:matherr.obj
 0004:00000930       $pdata$__acrt_initialize_user_matherr 0000000140057930     libucrtd:matherr.obj
 0004:0000093c       $pdata$__acrt_has_user_matherr 000000014005793c     libucrtd:matherr.obj
 0004:00000948       $pdata$__acrt_invoke_user_matherr 0000000140057948     libucrtd:matherr.obj
 0004:00000954       $pdata$?value@?$dual_state_global@P6AHPEAU_exception@@@Z@__crt_state_management@@QEAAAEAP6AHPEAU_exception@@@ZXZ 0000000140057954     libucrtd:matherr.obj
 0004:00000960       $pdata$?initialize@?$dual_state_global@P6AHPEAU_exception@@@Z@__crt_state_management@@QEAAXQ6AHPEAU_exception@@@Z@Z 0000000140057960     libucrtd:matherr.obj
 0004:0000096c       $pdata$??$__crt_fast_encode_pointer@P6AHPEAU_exception@@@Z@@YAP6AHPEAU_exception@@@ZQ6AH0@Z@Z 000000014005796c     libucrtd:matherr.obj
 0004:00000978       $pdata$??$__crt_fast_decode_pointer@P6AHPEAU_exception@@@Z@@YAP6AHPEAU_exception@@@ZQ6AH0@Z@Z 0000000140057978     libucrtd:matherr.obj
 0004:00000984       $pdata$_configure_narrow_argv 0000000140057984     libucrtd:argv_parsing.obj
 0004:00000990       $pdata$__acrt_allocate_buffer_for_argv 0000000140057990     libucrtd:argv_parsing.obj
 0004:0000099c       $pdata$?do_locale_initialization@@YAXD@Z 000000014005799c     libucrtd:argv_parsing.obj
 0004:000009a8       $pdata$?expand_argv_wildcards@@YAHQEAPEADQEAPEAPEAD@Z 00000001400579a8     libucrtd:argv_parsing.obj
 0004:000009b4       $pdata$?should_copy_another_character@@YA_ND@Z 00000001400579b4     libucrtd:argv_parsing.obj
 0004:000009c0       $pdata$??1?$__crt_unique_heap_ptr@EU__crt_internal_free_policy@@@@QEAA@XZ 00000001400579c0     libucrtd:argv_parsing.obj
 0004:000009cc       $pdata$?detach@?$__crt_unique_heap_ptr@EU__crt_internal_free_policy@@@@QEAAPEAEXZ 00000001400579cc     libucrtd:argv_parsing.obj
 0004:000009d8       $pdata$?release@?$__crt_unique_heap_ptr@EU__crt_internal_free_policy@@@@QEAAXXZ 00000001400579d8     libucrtd:argv_parsing.obj
 0004:000009e4       $pdata$?is_valid@?$__crt_unique_heap_ptr@EU__crt_internal_free_policy@@@@QEBA_NXZ 00000001400579e4     libucrtd:argv_parsing.obj
 0004:000009f0       $pdata$??B?$__crt_unique_heap_ptr@EU__crt_internal_free_policy@@@@QEBA_NXZ 00000001400579f0     libucrtd:argv_parsing.obj
 0004:000009fc       $pdata$??$common_configure_argv@D@@YAHW4_crt_argv_mode@@@Z 00000001400579fc     libucrtd:argv_parsing.obj
 0004:00000a08       $pdata$??$?RE@__crt_internal_free_policy@@QEBAXQEBE@Z 0000000140057a08     libucrtd:argv_parsing.obj
 0004:00000a14       $pdata$??$get_module_file_name@$$TAEAY0BAF@DH@?$__crt_char_traits@D@@SAK$$QEA$$TAEAY0BAF@D$$QEAH@Z 0000000140057a14     libucrtd:argv_parsing.obj
 0004:00000a20       $pdata$??$set_program_name@PEAD@?$__crt_char_traits@D@@SAX$$QEAPEAD@Z 0000000140057a20     libucrtd:argv_parsing.obj
 0004:00000a2c       $pdata$??$parse_command_line@D@@YAXPEADPEAPEAD0PEA_K2@Z 0000000140057a2c     libucrtd:argv_parsing.obj
 0004:00000a38       $pdata$??1?$__crt_unique_heap_ptr@PEADU__crt_internal_free_policy@@@@QEAA@XZ 0000000140057a38     libucrtd:argv_parsing.obj
 0004:00000a44       $pdata$?detach@?$__crt_unique_heap_ptr@PEADU__crt_internal_free_policy@@@@QEAAPEAPEADXZ 0000000140057a44     libucrtd:argv_parsing.obj
 0004:00000a50       $pdata$?release@?$__crt_unique_heap_ptr@PEADU__crt_internal_free_policy@@@@QEAAXXZ 0000000140057a50     libucrtd:argv_parsing.obj
 0004:00000a5c       $pdata$??R<lambda_df1553121bfa390f1154bd84936f2730>@@QEBAHXZ 0000000140057a5c     libucrtd:argv_parsing.obj
 0004:00000a68       $pdata$??$?RPEAD@__crt_internal_free_policy@@QEBAXQEBQEAD@Z 0000000140057a68     libucrtd:argv_parsing.obj
 0004:00000a74       $pdata$_initialize_narrow_environment 0000000140057a74     libucrtd:environment_initialization.obj
 0004:00000a80       $pdata$__dcrt_uninitialize_environments_nolock 0000000140057a80     libucrtd:environment_initialization.obj
 0004:00000a8c       $pdata$?value@?$dual_state_global@PEAPEAD@__crt_state_management@@QEAAAEAPEAPEADXZ 0000000140057a8c     libucrtd:environment_initialization.obj
 0004:00000a98       $pdata$?initialize@?$dual_state_global@PEAPEAD@__crt_state_management@@QEAAXQEAPEAD@Z 0000000140057a98     libucrtd:environment_initialization.obj
 0004:00000aa4       $pdata$?get_environment_nolock@@YAAEAPEAPEADD@Z 0000000140057aa4     libucrtd:environment_initialization.obj
 0004:00000ab0       $pdata$?pre_initialize@@YAXD@Z 0000000140057ab0     libucrtd:environment_initialization.obj
 0004:00000abc       $pdata$??$common_initialize_environment_nolock@D@@YAHXZ 0000000140057abc     libucrtd:environment_initialization.obj
 0004:00000ac8       $pdata$??$uninitialize_environment_internal@D@@YAXAEAPEAPEAD@Z 0000000140057ac8     libucrtd:environment_initialization.obj
 0004:00000ad4       $pdata$??$uninitialize@A6AXAEAPEAPEAD@_E@?$dual_state_global@PEAPEAD@__crt_state_management@@QEAAXA6AXAEAPEAPEAD@_E@Z 0000000140057ad4     libucrtd:environment_initialization.obj
 0004:00000ae0       $pdata$??$uninitialize_environment_internal@_W@@YAXAEAPEAPEA_W@Z 0000000140057ae0     libucrtd:environment_initialization.obj
 0004:00000aec       $pdata$??$uninitialize@A6AXAEAPEAPEA_W@_E@?$dual_state_global@PEAPEA_W@__crt_state_management@@QEAAXA6AXAEAPEAPEA_W@_E@Z 0000000140057aec     libucrtd:environment_initialization.obj
 0004:00000af8       $pdata$??$free_environment@D@@YAXQEAPEAD@Z 0000000140057af8     libucrtd:environment_initialization.obj
 0004:00000b04       $pdata$??$free_environment@_W@@YAXQEAPEA_W@Z 0000000140057b04     libucrtd:environment_initialization.obj
 0004:00000b10       $pdata$??$get_environment_from_os@$$V@?$__crt_char_traits@D@@SAPEADXZ 0000000140057b10     libucrtd:environment_initialization.obj
 0004:00000b1c       $pdata$?detach@?$__crt_unique_heap_ptr@DU__crt_internal_free_policy@@@@QEAAPEADXZ 0000000140057b1c     libucrtd:environment_initialization.obj
 0004:00000b28       $pdata$??$create_environment@D@@YAQEAPEADQEAD@Z 0000000140057b28     libucrtd:environment_initialization.obj
 0004:00000b34       $pdata$?is_valid@?$__crt_unique_heap_ptr@PEADU__crt_internal_free_policy@@@@QEBA_NXZ 0000000140057b34     libucrtd:environment_initialization.obj
 0004:00000b40       $pdata$??B?$__crt_unique_heap_ptr@PEADU__crt_internal_free_policy@@@@QEBA_NXZ 0000000140057b40     libucrtd:environment_initialization.obj
 0004:00000b4c       $pdata$??$count_variables_in_environment_block@D@@YA?B_KQEAD@Z 0000000140057b4c     libucrtd:environment_initialization.obj
 0004:00000b58       $pdata$??$tcslen@AEAPEAD@?$__crt_char_traits@D@@SA_KAEAPEAD@Z 0000000140057b58     libucrtd:environment_initialization.obj
 0004:00000b64       $pdata$??$tcscpy_s@PEADAEB_KAEAPEAD@?$__crt_char_traits@D@@SAH$$QEAPEADAEB_KAEAPEAD@Z 0000000140057b64     libucrtd:environment_initialization.obj
 0004:00000b70       $pdata$_get_narrow_winmain_command_line 0000000140057b70     libucrtd:argv_winmain.obj
 0004:00000b7c       $pdata$?do_locale_initialization@@YAXE@Z 0000000140057b7c     libucrtd:argv_winmain.obj
 0004:00000b88       $pdata$?should_copy_another_character@@YA_NE@Z 0000000140057b88     libucrtd:argv_winmain.obj
 0004:00000b94       $pdata$??$common_wincmdln@E@@YAPEAEXZ 0000000140057b94     libucrtd:argv_winmain.obj
 0004:00000ba0       $pdata$_initterm           0000000140057ba0     libucrtd:initterm.obj
 0004:00000bac       $pdata$_initterm_e         0000000140057bac     libucrtd:initterm.obj
 0004:00000bb8       $pdata$exit                0000000140057bb8     libucrtd:exit.obj
 0004:00000bc4       $pdata$_exit               0000000140057bc4     libucrtd:exit.obj
 0004:00000bd0       $pdata$?__crt_interlocked_read_32@@YAHPEDH@Z 0000000140057bd0     libucrtd:exit.obj
 0004:00000bdc       $pdata$_cexit              0000000140057bdc     libucrtd:exit.obj
 0004:00000be8       $pdata$_c_exit             0000000140057be8     libucrtd:exit.obj
 0004:00000bf4       $pdata$_register_thread_local_exe_atexit_callback 0000000140057bf4     libucrtd:exit.obj
 0004:00000c00       $pdata$?close@__crt_hmodule_traits@@SA_NPEAUHINSTANCE__@@@Z 0000000140057c00     libucrtd:exit.obj
 0004:00000c0c       $pdata$?is_managed_app@@YA_NXZ 0000000140057c0c     libucrtd:exit.obj
 0004:00000c18       $pdata$?try_cor_exit_process@@YAXI@Z 0000000140057c18     libucrtd:exit.obj
 0004:00000c24       $pdata$??1?$__crt_unique_handle_t@U__crt_hmodule_traits@@@@QEAA@XZ 0000000140057c24     libucrtd:exit.obj
 0004:00000c30       $pdata$?close@?$__crt_unique_handle_t@U__crt_hmodule_traits@@@@QEAAXXZ 0000000140057c30     libucrtd:exit.obj
 0004:00000c3c       $pdata$??$__crt_get_proc_address@P6AXI@Z@@YAP6AXI@ZQEAUHINSTANCE__@@QEBD@Z 0000000140057c3c     libucrtd:exit.obj
 0004:00000c48       $pdata$?should_call_terminate_process@@YA_NXZ 0000000140057c48     libucrtd:exit.obj
 0004:00000c54       $pdata$?exit_or_terminate_process@@YAXI@Z 0000000140057c54     libucrtd:exit.obj
 0004:00000c60       $pdata$??$?B$$A6AXPEAXK0@Z@__crt_fast_encoded_nullptr_t@@QEBAP6AXPEAXK0@ZXZ 0000000140057c60     libucrtd:exit.obj
 0004:00000c6c       $pdata$??$__crt_fast_encode_pointer@P6AXPEAXK0@Z@@YAP6AXPEAXK0@ZQ6AX0K0@Z@Z 0000000140057c6c     libucrtd:exit.obj
 0004:00000c78       $pdata$?common_exit@@YAXHW4_crt_exit_cleanup_mode@@W4_crt_exit_return_mode@@@Z 0000000140057c78     libucrtd:exit.obj
 0004:00000c84       $pdata$??R<lambda_6e4b09c48022b2350581041d5f6b0c4c>@@QEBA@XZ 0000000140057c84     libucrtd:exit.obj
 0004:00000c90       $pdata$?filt$0@?0???R<lambda_6e4b09c48022b2350581041d5f6b0c4c>@@QEBA@XZ@4HA 0000000140057c90     libucrtd:exit.obj
 0004:00000c9c       $pdata$??$__crt_fast_decode_pointer@P6AXPEAXK0@Z@@YAP6AXPEAXK0@ZQ6AX0K0@Z@Z 0000000140057c9c     libucrtd:exit.obj
 0004:00000ca8       $pdata$??$__acrt_lock_and_call@V<lambda_6e4b09c48022b2350581041d5f6b0c4c>@@@@YAXW4__acrt_lock_id@@$$QEAV<lambda_6e4b09c48022b2350581041d5f6b0c4c>@@@Z 0000000140057ca8     libucrtd:exit.obj
 0004:00000cb4       $pdata$??$__crt_interlocked_read@J@@YAJPEDJ@Z 0000000140057cb4     libucrtd:exit.obj
 0004:00000cc0       $pdata$??R<lambda_d80eeec6fff315bfe5c115232f3240e3>@@QEBAXXZ 0000000140057cc0     libucrtd:exit.obj
 0004:00000ccc       $pdata$??R<lambda_2358e3775559c9db80273638284d5e45>@@QEBAXXZ 0000000140057ccc     libucrtd:exit.obj
 0004:00000cd8       $pdata$??$?RV<lambda_d80eeec6fff315bfe5c115232f3240e3>@@AEAV<lambda_6e4b09c48022b2350581041d5f6b0c4c>@@V<lambda_2358e3775559c9db80273638284d5e45>@@@?$__crt_seh_guarded_call@X@@QEAAX$$QEAV<lambda_d80eeec6fff315bfe5c115232f3240e3>@@AEAV<lambda_6e4b09c48022b2350581041d5f6b0c4c>@@$$QEAV<lambda_2358e3775559c9db80273638284d5e45>@@@Z 0000000140057cd8     libucrtd:exit.obj
 0004:00000ce4       $pdata$?fin$0@?0???$?RV<lambda_d80eeec6fff315bfe5c115232f3240e3>@@AEAV<lambda_6e4b09c48022b2350581041d5f6b0c4c>@@V<lambda_2358e3775559c9db80273638284d5e45>@@@?$__crt_seh_guarded_call@X@@QEAAX$$QEAV<lambda_d80eeec6fff315bfe5c115232f3240e3>@@AEAV<lambda_6e4b09c48022b2350581041d5f6b0c4c>@@$$QEAV<lambda_2358e3775559c9db80273638284d5e45>@@@Z@4HA 0000000140057ce4     libucrtd:exit.obj
 0004:00000cf0       $pdata$_set_fmode          0000000140057cf0     libucrtd:setmode.obj
 0004:00000cfc       $pdata$?value@?$dual_state_global@H@__crt_state_management@@QEAAAEAHXZ 0000000140057cfc     libucrtd:setmode.obj
 0004:00000d08       $pdata$__ascii_towlower    0000000140057d08     libucrtd:wsetlocale.obj
 0004:00000d14       $pdata$_configthreadlocale 0000000140057d14     libucrtd:wsetlocale.obj
 0004:00000d20       $pdata$__acrt_uninitialize_locale 0000000140057d20     libucrtd:wsetlocale.obj
 0004:00000d2c       $pdata$?value@?$dual_state_global@PEAU__crt_locale_data@@@__crt_state_management@@QEAAAEAPEAU__crt_locale_data@@XZ 0000000140057d2c     libucrtd:wsetlocale.obj
 0004:00000d38       $pdata$??R<lambda_3e16ef9562a7dcce91392c22ab16ea36>@@QEBA@XZ 0000000140057d38     libucrtd:wsetlocale.obj
 0004:00000d44       $pdata$??R<lambda_363eea9039da1e8169e2d060c7fe5cbc>@@QEBAXAEAPEAU__crt_locale_data@@@Z 0000000140057d44     libucrtd:wsetlocale.obj
 0004:00000d50       $pdata$??$uninitialize@V<lambda_363eea9039da1e8169e2d060c7fe5cbc>@@@?$dual_state_global@PEAU__crt_locale_data@@@__crt_state_management@@QEAAX$$QEAV<lambda_363eea9039da1e8169e2d060c7fe5cbc>@@@Z 0000000140057d50     libucrtd:wsetlocale.obj
 0004:00000d5c       $pdata$??$__acrt_lock_and_call@V<lambda_3e16ef9562a7dcce91392c22ab16ea36>@@@@YAXW4__acrt_lock_id@@$$QEAV<lambda_3e16ef9562a7dcce91392c22ab16ea36>@@@Z 0000000140057d5c     libucrtd:wsetlocale.obj
 0004:00000d68       $pdata$??1?$__crt_unique_heap_ptr@U__crt_multibyte_data@@U__crt_internal_free_policy@@@@QEAA@XZ 0000000140057d68     libucrtd:wsetlocale.obj
 0004:00000d74       $pdata$?detach@?$__crt_unique_heap_ptr@U__crt_multibyte_data@@U__crt_internal_free_policy@@@@QEAAPEAU__crt_multibyte_data@@XZ 0000000140057d74     libucrtd:wsetlocale.obj
 0004:00000d80       $pdata$?release@?$__crt_unique_heap_ptr@U__crt_multibyte_data@@U__crt_internal_free_policy@@@@QEAAXXZ 0000000140057d80     libucrtd:wsetlocale.obj
 0004:00000d8c       $pdata$?is_valid@?$__crt_unique_heap_ptr@U__crt_multibyte_data@@U__crt_internal_free_policy@@@@QEBA_NXZ 0000000140057d8c     libucrtd:wsetlocale.obj
 0004:00000d98       $pdata$??B?$__crt_unique_heap_ptr@U__crt_multibyte_data@@U__crt_internal_free_policy@@@@QEBA_NXZ 0000000140057d98     libucrtd:wsetlocale.obj
 0004:00000da4       $pdata$??$?RU__crt_multibyte_data@@@__crt_internal_free_policy@@QEBAXQEBU__crt_multibyte_data@@@Z 0000000140057da4     libucrtd:wsetlocale.obj
 0004:00000db0       $pdata$??R<lambda_410d79af7f07d98d83a3f525b3859a53>@@QEBAXXZ 0000000140057db0     libucrtd:wsetlocale.obj
 0004:00000dbc       $pdata$??R<lambda_38119f0e861e05405d8a144b9b982f0a>@@QEBAXXZ 0000000140057dbc     libucrtd:wsetlocale.obj
 0004:00000dc8       $pdata$??$?RV<lambda_410d79af7f07d98d83a3f525b3859a53>@@AEAV<lambda_3e16ef9562a7dcce91392c22ab16ea36>@@V<lambda_38119f0e861e05405d8a144b9b982f0a>@@@?$__crt_seh_guarded_call@X@@QEAAX$$QEAV<lambda_410d79af7f07d98d83a3f525b3859a53>@@AEAV<lambda_3e16ef9562a7dcce91392c22ab16ea36>@@$$QEAV<lambda_38119f0e861e05405d8a144b9b982f0a>@@@Z 0000000140057dc8     libucrtd:wsetlocale.obj
 0004:00000dd4       $pdata$?fin$0@?0???$?RV<lambda_410d79af7f07d98d83a3f525b3859a53>@@AEAV<lambda_3e16ef9562a7dcce91392c22ab16ea36>@@V<lambda_38119f0e861e05405d8a144b9b982f0a>@@@?$__crt_seh_guarded_call@X@@QEAAX$$QEAV<lambda_410d79af7f07d98d83a3f525b3859a53>@@AEAV<lambda_3e16ef9562a7dcce91392c22ab16ea36>@@$$QEAV<lambda_38119f0e861e05405d8a144b9b982f0a>@@@Z@4HA 0000000140057dd4     libucrtd:wsetlocale.obj
 0004:00000de0       $pdata$_query_new_mode     0000000140057de0     libucrtd:new_mode.obj
 0004:00000dec       $pdata$_set_new_mode       0000000140057dec     libucrtd:new_mode.obj
 0004:00000df8       $pdata$?value@?$dual_state_global@J@__crt_state_management@@QEAAAEAJXZ 0000000140057df8     libucrtd:new_mode.obj
 0004:00000e04       $pdata$_initialize_onexit_table 0000000140057e04     libucrtd:onexit.obj
 0004:00000e10       $pdata$_register_onexit_function 0000000140057e10     libucrtd:onexit.obj
 0004:00000e1c       $pdata$_execute_onexit_table 0000000140057e1c     libucrtd:onexit.obj
 0004:00000e28       $pdata$_crt_atexit         0000000140057e28     libucrtd:onexit.obj
 0004:00000e34       $pdata$??$?BP6AXXZ@__crt_fast_encoded_nullptr_t@@QEBAPEAP6AXXZXZ 0000000140057e34     libucrtd:onexit.obj
 0004:00000e40       $pdata$??R<lambda_208ce30acdd7200aa596f2796f4d5154>@@QEBAHXZ 0000000140057e40     libucrtd:onexit.obj
 0004:00000e4c       $pdata$??1?$__crt_unique_heap_ptr@P6AXXZU__crt_internal_free_policy@@@@QEAA@XZ 0000000140057e4c     libucrtd:onexit.obj
 0004:00000e58       $pdata$?detach@?$__crt_unique_heap_ptr@P6AXXZU__crt_internal_free_policy@@@@QEAAPEAP6AXXZXZ 0000000140057e58     libucrtd:onexit.obj
 0004:00000e64       $pdata$?release@?$__crt_unique_heap_ptr@P6AXXZU__crt_internal_free_policy@@@@QEAAXXZ 0000000140057e64     libucrtd:onexit.obj
 0004:00000e70       $pdata$??$__crt_fast_encode_pointer@P6AHXZ@@YAP6AHXZQ6AHXZ@Z 0000000140057e70     libucrtd:onexit.obj
 0004:00000e7c       $pdata$??$__acrt_lock_and_call@V<lambda_208ce30acdd7200aa596f2796f4d5154>@@@@YAHW4__acrt_lock_id@@$$QEAV<lambda_208ce30acdd7200aa596f2796f4d5154>@@@Z 0000000140057e7c     libucrtd:onexit.obj
 0004:00000e88       $pdata$??R<lambda_d121dba8a4adeaf3a9819e48611155df>@@QEBAHXZ 0000000140057e88     libucrtd:onexit.obj
 0004:00000e94       $pdata$?dtor$0@?0???R<lambda_d121dba8a4adeaf3a9819e48611155df>@@QEBAHXZ@4HA 0000000140057e94     libucrtd:onexit.obj
 0004:00000ea0       $pdata$??$__acrt_lock_and_call@V<lambda_d121dba8a4adeaf3a9819e48611155df>@@@@YAHW4__acrt_lock_id@@$$QEAV<lambda_d121dba8a4adeaf3a9819e48611155df>@@@Z 0000000140057ea0     libucrtd:onexit.obj
 0004:00000eac       $pdata$??$?RP6AXXZ@__crt_internal_free_policy@@QEBAXQEBQ6AXXZ@Z 0000000140057eac     libucrtd:onexit.obj
 0004:00000eb8       $pdata$??R<lambda_80060f20ac3990516b753a27f211934c>@@QEBAXXZ 0000000140057eb8     libucrtd:onexit.obj
 0004:00000ec4       $pdata$??R<lambda_fd91b99c0687e8936f1d70d7d9b78e69>@@QEBAXXZ 0000000140057ec4     libucrtd:onexit.obj
 0004:00000ed0       $pdata$??$?RV<lambda_80060f20ac3990516b753a27f211934c>@@AEAV<lambda_208ce30acdd7200aa596f2796f4d5154>@@V<lambda_fd91b99c0687e8936f1d70d7d9b78e69>@@@?$__crt_seh_guarded_call@H@@QEAAH$$QEAV<lambda_80060f20ac3990516b753a27f211934c>@@AEAV<lambda_208ce30acdd7200aa596f2796f4d5154>@@$$QEAV<lambda_fd91b99c0687e8936f1d70d7d9b78e69>@@@Z 0000000140057ed0     libucrtd:onexit.obj
 0004:00000edc       $pdata$?fin$0@?0???$?RV<lambda_80060f20ac3990516b753a27f211934c>@@AEAV<lambda_208ce30acdd7200aa596f2796f4d5154>@@V<lambda_fd91b99c0687e8936f1d70d7d9b78e69>@@@?$__crt_seh_guarded_call@H@@QEAAH$$QEAV<lambda_80060f20ac3990516b753a27f211934c>@@AEAV<lambda_208ce30acdd7200aa596f2796f4d5154>@@$$QEAV<lambda_fd91b99c0687e8936f1d70d7d9b78e69>@@@Z@4HA 0000000140057edc     libucrtd:onexit.obj
 0004:00000ee8       $pdata$??R<lambda_6a47f4c8fd0152770a780fc1d70204eb>@@QEBAXXZ 0000000140057ee8     libucrtd:onexit.obj
 0004:00000ef4       $pdata$??R<lambda_6aaa2265f5b6a89667e7d7630012e97a>@@QEBAXXZ 0000000140057ef4     libucrtd:onexit.obj
 0004:00000f00       $pdata$??$?RV<lambda_6a47f4c8fd0152770a780fc1d70204eb>@@AEAV<lambda_d121dba8a4adeaf3a9819e48611155df>@@V<lambda_6aaa2265f5b6a89667e7d7630012e97a>@@@?$__crt_seh_guarded_call@H@@QEAAH$$QEAV<lambda_6a47f4c8fd0152770a780fc1d70204eb>@@AEAV<lambda_d121dba8a4adeaf3a9819e48611155df>@@$$QEAV<lambda_6aaa2265f5b6a89667e7d7630012e97a>@@@Z 0000000140057f00     libucrtd:onexit.obj
 0004:00000f0c       $pdata$?fin$0@?0???$?RV<lambda_6a47f4c8fd0152770a780fc1d70204eb>@@AEAV<lambda_d121dba8a4adeaf3a9819e48611155df>@@V<lambda_6aaa2265f5b6a89667e7d7630012e97a>@@@?$__crt_seh_guarded_call@H@@QEAAH$$QEAV<lambda_6a47f4c8fd0152770a780fc1d70204eb>@@AEAV<lambda_d121dba8a4adeaf3a9819e48611155df>@@$$QEAV<lambda_6aaa2265f5b6a89667e7d7630012e97a>@@@Z@4HA 0000000140057f0c     libucrtd:onexit.obj
 0004:00000f18       $pdata$__acrt_initialize   0000000140057f18     libucrtd:initialization.obj
 0004:00000f24       $pdata$__acrt_uninitialize 0000000140057f24     libucrtd:initialization.obj
 0004:00000f30       $pdata$initialize_global_variables 0000000140057f30     libucrtd:initialization.obj
 0004:00000f3c       $pdata$?initialize@?$dual_state_global@PEAU__crt_locale_data@@@__crt_state_management@@QEAAXQEAU__crt_locale_data@@@Z 0000000140057f3c     libucrtd:initialization.obj
 0004:00000f48       $pdata$initialize_c        0000000140057f48     libucrtd:initialization.obj
 0004:00000f54       $pdata$uninitialize_environment 0000000140057f54     libucrtd:initialization.obj
 0004:00000f60       $pdata$initialize_pointers 0000000140057f60     libucrtd:initialization.obj
 0004:00000f6c       $pdata$uninitialize_vcruntime 0000000140057f6c     libucrtd:initialization.obj
 0004:00000f78       $pdata$uninitialize_allocated_memory 0000000140057f78     libucrtd:initialization.obj
 0004:00000f84       $pdata$??R<lambda_af27fe6ede5d83bbdbd622796c194e9c>@@QEBAXAEAPEAU__crt_multibyte_data@@@Z 0000000140057f84     libucrtd:initialization.obj
 0004:00000f90       $pdata$??$uninitialize@V<lambda_af27fe6ede5d83bbdbd622796c194e9c>@@@?$dual_state_global@PEAU__crt_multibyte_data@@@__crt_state_management@@QEAAX$$QEAV<lambda_af27fe6ede5d83bbdbd622796c194e9c>@@@Z 0000000140057f90     libucrtd:initialization.obj
 0004:00000f9c       $pdata$uninitialize_allocated_io_buffers 0000000140057f9c     libucrtd:initialization.obj
 0004:00000fa8       $pdata$report_memory_leaks 0000000140057fa8     libucrtd:initialization.obj
 0004:00000fb4       $pdata$terminate           0000000140057fb4     libucrtd:terminate.obj
 0004:00000fc0       $pdata$_CrtSetDumpClient   0000000140057fc0     libucrtd:debug_heap.obj
 0004:00000fcc       $pdata$_CrtCheckMemory     0000000140057fcc     libucrtd:debug_heap.obj
 0004:00000fd8       $pdata$_CrtCheckMemory$fin$0 0000000140057fd8     libucrtd:debug_heap.obj
 0004:00000fd8       $pdata$_msize_dbg$fin$0    0000000140057fd8     libucrtd:debug_heap.obj
 0004:00000fd8       $pdata$_realloc_dbg$fin$0  0000000140057fd8     libucrtd:debug_heap.obj
 0004:00000fd8       $pdata$_CrtSetDbgFlag$fin$0 0000000140057fd8     libucrtd:debug_heap.obj
 0004:00000fd8       $pdata$_CrtMemDumpAllObjectsSince$fin$0 0000000140057fd8     libucrtd:debug_heap.obj
 0004:00000fe4       $pdata$_CrtDumpMemoryLeaks 0000000140057fe4     libucrtd:debug_heap.obj
 0004:00000ff0       $pdata$_CrtIsValidHeapPointer 0000000140057ff0     libucrtd:debug_heap.obj
 0004:00000ffc       $pdata$_CrtIsValidPointer  0000000140057ffc     libucrtd:debug_heap.obj
 0004:00001008       $pdata$_CrtMemCheckpoint   0000000140058008     libucrtd:debug_heap.obj
 0004:00001014       $pdata$?fin$0@?0??heap_alloc_dbg_internal@@YAPEAX_KHQEBDH@Z@4HA 0000000140058014     libucrtd:debug_heap.obj
 0004:00001014       $pdata$_CrtMemCheckpoint$fin$0 0000000140058014     libucrtd:debug_heap.obj
 0004:00001020       $pdata$_CrtMemDumpAllObjectsSince 0000000140058020     libucrtd:debug_heap.obj
 0004:0000102c       $pdata$_CrtSetDbgFlag      000000014005802c     libucrtd:debug_heap.obj
 0004:00001038       $pdata$_calloc_dbg         0000000140058038     libucrtd:debug_heap.obj
 0004:00001044       $pdata$_free_dbg           0000000140058044     libucrtd:debug_heap.obj
 0004:00001050       $pdata$_query_new_handler$fin$0 0000000140058050     libucrtd:new_handler.obj
 0004:00001050       $pdata$_free_dbg$fin$0     0000000140058050     libucrtd:debug_heap.obj
 0004:0000105c       $pdata$_malloc_dbg         000000014005805c     libucrtd:debug_heap.obj
 0004:00001068       $pdata$_msize_dbg          0000000140058068     libucrtd:debug_heap.obj
 0004:00001074       $pdata$_realloc_dbg        0000000140058074     libucrtd:debug_heap.obj
 0004:00001080       $pdata$_recalloc_dbg       0000000140058080     libucrtd:debug_heap.obj
 0004:0000108c       $pdata$__acrt_get_locale_data_prefix 000000014005808c     libucrtd:debug_heap.obj
 0004:00001098       $pdata$_chvalidchk_l       0000000140058098     libucrtd:debug_heap.obj
 0004:000010a4       $pdata$_ischartype_l       00000001400580a4     libucrtd:debug_heap.obj
 0004:000010b0       $pdata$__acrt_locale_changed 00000001400580b0     libucrtd:debug_heap.obj
 0004:000010bc       $pdata$_invoke_watson_if_oneof 00000001400580bc     libucrtd:debug_heap.obj
 0004:000010c8       $pdata$??0_LocaleUpdate@@QEAA@QEAU__crt_locale_pointers@@@Z 00000001400580c8     libucrtd:debug_heap.obj
 0004:000010d4       $pdata$??1_LocaleUpdate@@QEAA@XZ 00000001400580d4     libucrtd:debug_heap.obj
 0004:000010e0       $pdata$?is_block_type_valid@@YA_NH@Z 00000001400580e0     libucrtd:debug_heap.obj
 0004:000010ec       $pdata$?check_bytes@@YA_NQEBEE_K@Z 00000001400580ec     libucrtd:debug_heap.obj
 0004:000010f8       $pdata$?is_bad_read_pointer@@YA_NQEBX_K@Z 00000001400580f8     libucrtd:debug_heap.obj
 0004:00001104       $pdata$?is_block_an_aligned_allocation@@YA_NQEBX@Z 0000000140058104     libucrtd:debug_heap.obj
 0004:00001110       $pdata$?validate_heap_if_required_nolock@@YAXXZ 0000000140058110     libucrtd:debug_heap.obj
 0004:0000111c       $pdata$?fin$0@?0??validate_heap_if_required_nolock@@YAXXZ@4HA 000000014005811c     libucrtd:debug_heap.obj
 0004:00001128       $pdata$?heap_alloc_dbg_internal@@YAPEAX_KHQEBDH@Z 0000000140058128     libucrtd:debug_heap.obj
 0004:00001134       $pdata$?heap_alloc_dbg@@YAPEAX_KHQEBDH@Z 0000000140058134     libucrtd:debug_heap.obj
 0004:00001140       $pdata$?realloc_dbg_nolock@@YAPEAXQEAXQEA_KHQEBDH_N@Z 0000000140058140     libucrtd:debug_heap.obj
 0004:0000114c       $pdata$?free_dbg_nolock@@YAXQEAXH@Z 000000014005814c     libucrtd:debug_heap.obj
 0004:00001158       $pdata$?check_block@@YA_NQEAU_CrtMemBlockHeader@@@Z 0000000140058158     libucrtd:debug_heap.obj
 0004:00001164       $pdata$?print_block_data@@YAXQEAU__crt_locale_pointers@@QEAU_CrtMemBlockHeader@@@Z 0000000140058164     libucrtd:debug_heap.obj
 0004:00001170       $pdata$?dump_all_object_since_nolock@@YAXQEBU_CrtMemState@@@Z 0000000140058170     libucrtd:debug_heap.obj
 0004:0000117c       $pdata$strcpy_s            000000014005817c     libucrtd:strcpy_s.obj
 0004:00001188       $pdata$??$common_tcscpy_s@D@@YAHQEAD_KQEBD@Z 0000000140058188     libucrtd:strcpy_s.obj
 0004:000011ac       $pdata$abort               00000001400581ac     libucrtd:abort.obj
 0004:000011b8       $pdata$_CrtDbgReport       00000001400581b8     libucrtd:dbgrpt.obj
 0004:000011c4       $pdata$_CrtDbgReportW      00000001400581c4     libucrtd:dbgrpt.obj
 0004:000011d0       $pdata$_vsnwprintf_s_l     00000001400581d0     libucrtd:dbgrpt.obj
 0004:000011dc       $pdata$_snwprintf_s        00000001400581dc     libucrtd:dbgrpt.obj
 0004:000011e8       $pdata$__acrt_MessageWindowA 00000001400581e8     libucrtd:dbgrpt.obj
 0004:000011f4       $pdata$??$common_message_window@D@@YAHHQEAXQEBD111@Z 00000001400581f4     libucrtd:dbgrpt.obj
 0004:00001200       $pdata$__acrt_MessageWindowW 0000000140058200     libucrtd:dbgrpt.obj
 0004:0000120c       $pdata$??$common_message_window@_W@@YAHHQEAXQEB_W111@Z 000000014005820c     libucrtd:dbgrpt.obj
 0004:00001218       $pdata$??$get_module_file_name@AEAPEAUHINSTANCE__@@AEAY0BAF@DK@?$__crt_char_traits@D@@SAKAEAPEAUHINSTANCE__@@AEAY0BAF@D$$QEAK@Z 0000000140058218     libucrtd:dbgrpt.obj
 0004:00001224       $pdata$??$tcscpy_s@AEAY0BAF@D_KPEBD@?$__crt_char_traits@D@@SAHAEAY0BAF@D$$QEA_K$$QEAPEBD@Z 0000000140058224     libucrtd:dbgrpt.obj
 0004:00001230       $pdata$??$tcslen@AEAY0BAF@D@?$__crt_char_traits@D@@SA_KAEAY0BAF@D@Z 0000000140058230     libucrtd:dbgrpt.obj
 0004:0000123c       $pdata$??$tcslen@AEBQEBD@?$__crt_char_traits@D@@SA_KAEBQEBD@Z 000000014005823c     libucrtd:dbgrpt.obj
 0004:00001248       $pdata$??$get_module_file_name@AEAPEAUHINSTANCE__@@AEAY0BAF@_WK@?$__crt_char_traits@_W@@SAKAEAPEAUHINSTANCE__@@AEAY0BAF@_W$$QEAK@Z 0000000140058248     libucrtd:dbgrpt.obj
 0004:00001254       $pdata$??$tcscpy_s@AEAY0BAF@_W_KPEB_W@?$__crt_char_traits@_W@@SAHAEAY0BAF@_W$$QEA_K$$QEAPEB_W@Z 0000000140058254     libucrtd:dbgrpt.obj
 0004:00001260       $pdata$??$tcslen@AEAY0BAF@_W@?$__crt_char_traits@_W@@SA_KAEAY0BAF@_W@Z 0000000140058260     libucrtd:dbgrpt.obj
 0004:0000126c       $pdata$??$tcslen@AEBQEB_W@?$__crt_char_traits@_W@@SA_KAEBQEB_W@Z 000000014005826c     libucrtd:dbgrpt.obj
 0004:00001278       $pdata$__ascii_iswalpha    0000000140058278     libucrtd:output.obj
 0004:00001284       $pdata$__ascii_towupper    0000000140058284     libucrtd:output.obj
 0004:00001290       $pdata$__acrt_isleadbyte_l_noupdate 0000000140058290     libucrtd:output.obj
 0004:0000129c       $pdata$_isdigit_fast_internal 000000014005829c     libucrtd:output.obj
 0004:000012a8       $pdata$??0__crt_scoped_get_last_error_reset@@QEAA@XZ 00000001400582a8     libucrtd:output.obj
 0004:000012b4       $pdata$??1__crt_scoped_get_last_error_reset@@QEAA@XZ 00000001400582b4     libucrtd:output.obj
 0004:000012c0       $pdata$__stdio_common_vsnwprintf_s 00000001400582c0     libucrtd:output.obj
 0004:000012cc       $pdata$__stdio_common_vsprintf_s 00000001400582cc     libucrtd:output.obj
 0004:000012d8       $pdata$__stdio_common_vsnprintf_s 00000001400582d8     libucrtd:output.obj
 0004:000012e4       $pdata$?valid@__crt_stdio_stream@@QEBA_NXZ 00000001400582e4     libucrtd:output.obj
 0004:000012f0       $pdata$?is_string_backed@__crt_stdio_stream@@QEBA_NXZ 00000001400582f0     libucrtd:output.obj
 0004:000012fc       $pdata$?get_flags@__crt_stdio_stream@@QEBAJXZ 00000001400582fc     libucrtd:output.obj
 0004:00001308       $pdata$??0__crt_cached_ptd_host@@QEAA@QEAU__crt_locale_pointers@@@Z 0000000140058308     libucrtd:output.obj
 0004:00001314       $pdata$??1__crt_cached_ptd_host@@QEAA@XZ 0000000140058314     libucrtd:output.obj
 0004:00001320       $pdata$?get_locale@__crt_cached_ptd_host@@QEAAPEAU__crt_locale_pointers@@XZ 0000000140058320     libucrtd:output.obj
 0004:0000132c       $pdata$?get_raw_ptd@__crt_cached_ptd_host@@QEAAPEAU__acrt_ptd@@XZ 000000014005832c     libucrtd:output.obj
 0004:00001338       $pdata$?update_locale@__crt_cached_ptd_host@@AEAAXXZ 0000000140058338     libucrtd:output.obj
 0004:00001344       $pdata$?update_locale_slow@__crt_cached_ptd_host@@AEAAXXZ 0000000140058344     libucrtd:output.obj
 0004:00001350       $pdata$?check_synchronize_per_thread_data@__crt_cached_ptd_host@@AEAAPEAU__acrt_ptd@@XZ 0000000140058350     libucrtd:output.obj
 0004:0000135c       $pdata$?force_synchronize_per_thread_data@__crt_cached_ptd_host@@AEAAPEAU__acrt_ptd@@XZ 000000014005835c     libucrtd:output.obj
 0004:00001368       $pdata$?check_synchronize_global_state_index@__crt_cached_ptd_host@@AEAA_KAEBV__crt_scoped_get_last_error_reset@@@Z 0000000140058368     libucrtd:output.obj
 0004:00001374       $pdata$?force_synchronize_global_state_index@__crt_cached_ptd_host@@AEAA_KAEBV__crt_scoped_get_last_error_reset@@@Z 0000000140058374     libucrtd:output.obj
 0004:00001380       $pdata$?check@?$cached@H@__crt_cached_ptd_host@@QEBA_NH@Z 0000000140058380     libucrtd:output.obj
 0004:0000138c       $pdata$?create_guard@?$cached@H@__crt_cached_ptd_host@@QEAA?AVguard@12@XZ 000000014005838c     libucrtd:output.obj
 0004:00001398       $pdata$?parse_digit@__crt_strtox@@YAI_W@Z 0000000140058398     libucrtd:output.obj
 0004:000013a4       $pdata$??0formatting_buffer@__crt_stdio_output@@QEAA@XZ 00000001400583a4     libucrtd:output.obj
 0004:000013b0       $pdata$??4?$__crt_unique_heap_ptr@DU__crt_internal_free_policy@@@@QEAAAEAV0@$$QEAV0@@Z 00000001400583b0     libucrtd:output.obj
 0004:000013bc       $pdata$??1formatting_buffer@__crt_stdio_output@@QEAA@XZ 00000001400583bc     libucrtd:output.obj
 0004:000013c8       $pdata$?force_decimal_point@__crt_stdio_output@@YAXPEADQEAU__crt_locale_pointers@@@Z 00000001400583c8     libucrtd:output.obj
 0004:000013d4       $pdata$?crop_zeroes@__crt_stdio_output@@YAXPEADQEAU__crt_locale_pointers@@@Z 00000001400583d4     libucrtd:output.obj
 0004:000013e0       $pdata$?to_integer_size@__crt_stdio_output@@YA_KW4length_modifier@1@@Z 00000001400583e0     libucrtd:output.obj
 0004:000013ec       $pdata$??$common_vsprintf_s@D@@YAH_KQEAD0QEBDAEAV__crt_cached_ptd_host@@1@Z 00000001400583ec     libucrtd:output.obj
 0004:000013f8       $pdata$??$common_vsnprintf_s@D@@YAH_KQEAD00QEBDAEAV__crt_cached_ptd_host@@1@Z 00000001400583f8     libucrtd:output.obj
 0004:00001404       $pdata$??$common_vsnprintf_s@_W@@YAH_KQEA_W00QEB_WAEAV__crt_cached_ptd_host@@QEAD@Z 0000000140058404     libucrtd:output.obj
 0004:00001410       $pdata$??0?$common_data@D@__crt_stdio_output@@IEAA@AEAV__crt_cached_ptd_host@@@Z 0000000140058410     libucrtd:output.obj
 0004:0000141c       $pdata$?tchar_string@?$common_data@D@__crt_stdio_output@@IEAAAEAPEADXZ 000000014005841c     libucrtd:output.obj
 0004:00001428       $pdata$??1?$common_data@D@__crt_stdio_output@@QEAA@XZ 0000000140058428     libucrtd:output.obj
 0004:00001434       $pdata$??0?$common_data@_W@__crt_stdio_output@@IEAA@AEAV__crt_cached_ptd_host@@@Z 0000000140058434     libucrtd:output.obj
 0004:00001440       $pdata$?tchar_string@?$common_data@_W@__crt_stdio_output@@IEAAAEAPEA_WXZ 0000000140058440     libucrtd:output.obj
 0004:0000144c       $pdata$??1?$common_data@_W@__crt_stdio_output@@QEAA@XZ 000000014005844c     libucrtd:output.obj
 0004:00001458       $pdata$?validate@?$string_output_adapter@D@__crt_stdio_output@@QEBA_NAEAV__crt_cached_ptd_host@@@Z 0000000140058458     libucrtd:output.obj
 0004:00001464       $pdata$?write_string@?$string_output_adapter@D@__crt_stdio_output@@QEBAXQEBDHQEAHAEAV__crt_cached_ptd_host@@@Z 0000000140058464     libucrtd:output.obj
 0004:00001470       $pdata$??0?$output_adapter_data@DV?$string_output_adapter@D@__crt_stdio_output@@@__crt_stdio_output@@IEAA@AEBV?$string_output_adapter@D@1@_KQEBDAEAV__crt_cached_ptd_host@@QEAD@Z 0000000140058470     libucrtd:output.obj
 0004:0000147c       $pdata$??1?$output_adapter_data@DV?$string_output_adapter@D@__crt_stdio_output@@@__crt_stdio_output@@QEAA@XZ 000000014005847c     libucrtd:output.obj
 0004:00001488       $pdata$?advance_to_next_pass@?$standard_base@DV?$string_output_adapter@D@__crt_stdio_output@@@__crt_stdio_output@@IEAA_NXZ 0000000140058488     libucrtd:output.obj
 0004:00001494       $pdata$?update_field_width@?$standard_base@DV?$string_output_adapter@D@__crt_stdio_output@@@__crt_stdio_output@@IEAA_NXZ 0000000140058494     libucrtd:output.obj
 0004:000014a0       $pdata$?update_precision@?$standard_base@DV?$string_output_adapter@D@__crt_stdio_output@@@__crt_stdio_output@@IEAA_NXZ 00000001400584a0     libucrtd:output.obj
 0004:000014ac       $pdata$??1?$standard_base@DV?$string_output_adapter@D@__crt_stdio_output@@@__crt_stdio_output@@QEAA@XZ 00000001400584ac     libucrtd:output.obj
 0004:000014b8       $pdata$?validate@?$string_output_adapter@_W@__crt_stdio_output@@QEBA_NAEAV__crt_cached_ptd_host@@@Z 00000001400584b8     libucrtd:output.obj
 0004:000014c4       $pdata$?write_string@?$string_output_adapter@_W@__crt_stdio_output@@QEBAXQEB_WHQEAHAEAV__crt_cached_ptd_host@@@Z 00000001400584c4     libucrtd:output.obj
 0004:000014d0       $pdata$??0?$output_adapter_data@_WV?$string_output_adapter@_W@__crt_stdio_output@@@__crt_stdio_output@@IEAA@AEBV?$string_output_adapter@_W@1@_KQEB_WAEAV__crt_cached_ptd_host@@QEAD@Z 00000001400584d0     libucrtd:output.obj
 0004:000014dc       $pdata$??1?$output_adapter_data@_WV?$string_output_adapter@_W@__crt_stdio_output@@@__crt_stdio_output@@QEAA@XZ 00000001400584dc     libucrtd:output.obj
 0004:000014e8       $pdata$?advance_to_next_pass@?$standard_base@_WV?$string_output_adapter@_W@__crt_stdio_output@@@__crt_stdio_output@@IEAA_NXZ 00000001400584e8     libucrtd:output.obj
 0004:000014f4       $pdata$?update_field_width@?$standard_base@_WV?$string_output_adapter@_W@__crt_stdio_output@@@__crt_stdio_output@@IEAA_NXZ 00000001400584f4     libucrtd:output.obj
 0004:00001500       $pdata$?update_precision@?$standard_base@_WV?$string_output_adapter@_W@__crt_stdio_output@@@__crt_stdio_output@@IEAA_NXZ 0000000140058500     libucrtd:output.obj
 0004:0000150c       $pdata$??1?$standard_base@_WV?$string_output_adapter@_W@__crt_stdio_output@@@__crt_stdio_output@@QEAA@XZ 000000014005850c     libucrtd:output.obj
 0004:00001518       $pdata$??$common_vsprintf@Vformat_validation_base@__crt_stdio_output@@D@@YAH_KQEAD0QEBDAEAV__crt_cached_ptd_host@@1@Z 0000000140058518     libucrtd:output.obj
 0004:00001524       $pdata$??$common_vsprintf@Vformat_validation_base@__crt_stdio_output@@_W@@YAH_KQEA_W0QEB_WAEAV__crt_cached_ptd_host@@QEAD@Z 0000000140058524     libucrtd:output.obj
 0004:00001530       $pdata$?validate_and_update_state_at_end_of_format_string@?$format_validation_base@DV?$string_output_adapter@D@__crt_stdio_output@@@__crt_stdio_output@@IEAA_NXZ 0000000140058530     libucrtd:output.obj
 0004:0000153c       $pdata$??1?$format_validation_base@DV?$string_output_adapter@D@__crt_stdio_output@@@__crt_stdio_output@@QEAA@XZ 000000014005853c     libucrtd:output.obj
 0004:00001548       $pdata$?validate_and_update_state_at_end_of_format_string@?$format_validation_base@_WV?$string_output_adapter@_W@__crt_stdio_output@@@__crt_stdio_output@@IEAA_NXZ 0000000140058548     libucrtd:output.obj
 0004:00001554       $pdata$??1?$format_validation_base@_WV?$string_output_adapter@_W@__crt_stdio_output@@@__crt_stdio_output@@QEAA@XZ 0000000140058554     libucrtd:output.obj
 0004:00001560       $pdata$??$?0AEBV?$string_output_adapter@_W@__crt_stdio_output@@AEB_KAEBQEB_WAEAV__crt_cached_ptd_host@@AEBQEAD@?$standard_base@_WV?$string_output_adapter@_W@__crt_stdio_output@@@__crt_stdio_output@@IEAA@AEBV?$string_output_adapter@_W@1@AEB_KAEBQEB_WAEAV__crt_cached_ptd_host@@AEBQEAD@Z 0000000140058560     libucrtd:output.obj
 0004:0000156c       $pdata$??$?0AEBV?$string_output_adapter@D@__crt_stdio_output@@AEB_KAEBQEBDAEAV__crt_cached_ptd_host@@AEBQEAD@?$standard_base@DV?$string_output_adapter@D@__crt_stdio_output@@@__crt_stdio_output@@IEAA@AEBV?$string_output_adapter@D@1@AEB_KAEBQEBDAEAV__crt_cached_ptd_host@@AEBQEAD@Z 000000014005856c     libucrtd:output.obj
 0004:00001578       $pdata$??$write_multiple_characters@V?$string_output_adapter@_W@__crt_stdio_output@@D@__crt_stdio_output@@YAXAEBV?$string_output_adapter@_W@0@DHQEAHAEAV__crt_cached_ptd_host@@@Z 0000000140058578     libucrtd:output.obj
 0004:00001584       $pdata$??$_tcstol_internal@_WPEAPEA_W$0A@@@YAJAEAV__crt_cached_ptd_host@@QEB_WQEAPEA_WH@Z 0000000140058584     libucrtd:output.obj
 0004:00001590       $pdata$??$read_va_arg@H@__crt_stdio_output@@YAHAEAPEAD@Z 0000000140058590     libucrtd:output.obj
 0004:0000159c       $pdata$??$read_va_arg@_J@__crt_stdio_output@@YA_JAEAPEAD@Z 000000014005859c     libucrtd:output.obj
 0004:000015a8       $pdata$??$read_va_arg@PEAX@__crt_stdio_output@@YAPEAXAEAPEAD@Z 00000001400585a8     libucrtd:output.obj
 0004:000015b4       $pdata$??$read_va_arg@U_CRT_DOUBLE@@@__crt_stdio_output@@YA?AU_CRT_DOUBLE@@AEAPEAD@Z 00000001400585b4     libucrtd:output.obj
 0004:000015c0       $pdata$??$write_multiple_characters@V?$string_output_adapter@D@__crt_stdio_output@@D@__crt_stdio_output@@YAXAEBV?$string_output_adapter@D@0@DHQEAHAEAV__crt_cached_ptd_host@@@Z 00000001400585c0     libucrtd:output.obj
 0004:000015cc       $pdata$??$_tcstol_internal@DPEAPEAD$0A@@@YAJAEAV__crt_cached_ptd_host@@QEBDQEAPEADH@Z 00000001400585cc     libucrtd:output.obj
 0004:000015d8       $pdata$??$ensure_buffer_is_big_enough@D@formatting_buffer@__crt_stdio_output@@QEAA_N_KAEAV__crt_cached_ptd_host@@@Z 00000001400585d8     libucrtd:output.obj
 0004:000015e4       $pdata$??$count@D@formatting_buffer@__crt_stdio_output@@QEBA_KXZ 00000001400585e4     libucrtd:output.obj
 0004:000015f0       $pdata$??$data@D@formatting_buffer@__crt_stdio_output@@QEAAPEADXZ 00000001400585f0     libucrtd:output.obj
 0004:000015fc       $pdata$??$scratch_data@D@formatting_buffer@__crt_stdio_output@@QEAAPEADXZ 00000001400585fc     libucrtd:output.obj
 0004:00001608       $pdata$??$scratch_count@D@formatting_buffer@__crt_stdio_output@@QEBA_KXZ 0000000140058608     libucrtd:output.obj
 0004:00001614       $pdata$??$is_wide_character_specifier@_W@__crt_stdio_output@@YA_N_K_WW4length_modifier@0@@Z 0000000140058614     libucrtd:output.obj
 0004:00001620       $pdata$??$is_wide_character_specifier@D@__crt_stdio_output@@YA_N_KDW4length_modifier@0@@Z 0000000140058620     libucrtd:output.obj
 0004:0000162c       $pdata$??$extract_argument_from_va_list@PEAXPEAX@?$standard_base@_WV?$string_output_adapter@_W@__crt_stdio_output@@@__crt_stdio_output@@IEAA_NAEAPEAX@Z 000000014005862c     libucrtd:output.obj
 0004:00001638       $pdata$??$extract_argument_from_va_list@U_CRT_DOUBLE@@U1@@?$standard_base@_WV?$string_output_adapter@_W@__crt_stdio_output@@@__crt_stdio_output@@IEAA_NAEAU_CRT_DOUBLE@@@Z 0000000140058638     libucrtd:output.obj
 0004:00001644       $pdata$??$extract_argument_from_va_list@PEADPEAD@?$standard_base@_WV?$string_output_adapter@_W@__crt_stdio_output@@@__crt_stdio_output@@IEAA_NAEAPEAD@Z 0000000140058644     libucrtd:output.obj
 0004:00001650       $pdata$??$extract_argument_from_va_list@PEAXPEAX@?$standard_base@DV?$string_output_adapter@D@__crt_stdio_output@@@__crt_stdio_output@@IEAA_NAEAPEAX@Z 0000000140058650     libucrtd:output.obj
 0004:0000165c       $pdata$??$extract_argument_from_va_list@U_CRT_DOUBLE@@U1@@?$standard_base@DV?$string_output_adapter@D@__crt_stdio_output@@@__crt_stdio_output@@IEAA_NAEAU_CRT_DOUBLE@@@Z 000000014005865c     libucrtd:output.obj
 0004:00001668       $pdata$??$extract_argument_from_va_list@PEADPEAD@?$standard_base@DV?$string_output_adapter@D@__crt_stdio_output@@@__crt_stdio_output@@IEAA_NAEAPEAD@Z 0000000140058668     libucrtd:output.obj
 0004:00001674       $pdata$??$data@_W@formatting_buffer@__crt_stdio_output@@QEAAPEA_WXZ 0000000140058674     libucrtd:output.obj
 0004:00001680       $pdata$??$extract_argument_from_va_list@_W_W@?$standard_base@_WV?$string_output_adapter@_W@__crt_stdio_output@@@__crt_stdio_output@@IEAA_NAEA_W@Z 0000000140058680     libucrtd:output.obj
 0004:0000168c       $pdata$??$extract_argument_from_va_list@_W_W@?$standard_base@DV?$string_output_adapter@D@__crt_stdio_output@@@__crt_stdio_output@@IEAA_NAEA_W@Z 000000014005868c     libucrtd:output.obj
 0004:00001698       $pdata$??$extract_argument_from_va_list@GD@?$standard_base@DV?$string_output_adapter@D@__crt_stdio_output@@@__crt_stdio_output@@IEAA_NAEAD@Z 0000000140058698     libucrtd:output.obj
 0004:000016a4       $pdata$??0?$output_processor@DV?$string_output_adapter@D@__crt_stdio_output@@V?$format_validation_base@DV?$string_output_adapter@D@__crt_stdio_output@@@2@@__crt_stdio_output@@QEAA@AEBV?$string_output_adapter@D@1@_KQEBDAEAV__crt_cached_ptd_host@@QEAD@Z 00000001400586a4     libucrtd:output.obj
 0004:000016b0       $pdata$?process@?$output_processor@DV?$string_output_adapter@D@__crt_stdio_output@@V?$format_validation_base@DV?$string_output_adapter@D@__crt_stdio_output@@@2@@__crt_stdio_output@@QEAAHXZ 00000001400586b0     libucrtd:output.obj
 0004:000016bc       $pdata$?state_case_normal@?$output_processor@DV?$string_output_adapter@D@__crt_stdio_output@@V?$format_validation_base@DV?$string_output_adapter@D@__crt_stdio_output@@@2@@__crt_stdio_output@@AEAA_NXZ 00000001400586bc     libucrtd:output.obj
 0004:000016c8       $pdata$?state_case_normal_common@?$output_processor@DV?$string_output_adapter@D@__crt_stdio_output@@V?$format_validation_base@DV?$string_output_adapter@D@__crt_stdio_output@@@2@@__crt_stdio_output@@AEAA_NXZ 00000001400586c8     libucrtd:output.obj
 0004:000016d4       $pdata$?state_case_normal_tchar@?$output_processor@DV?$string_output_adapter@D@__crt_stdio_output@@V?$format_validation_base@DV?$string_output_adapter@D@__crt_stdio_output@@@2@@__crt_stdio_output@@AEAA_ND@Z 00000001400586d4     libucrtd:output.obj
 0004:000016e0       $pdata$?state_case_flag@?$output_processor@DV?$string_output_adapter@D@__crt_stdio_output@@V?$format_validation_base@DV?$string_output_adapter@D@__crt_stdio_output@@@2@@__crt_stdio_output@@AEAA_NXZ 00000001400586e0     libucrtd:output.obj
 0004:000016ec       $pdata$?parse_int_from_format_string@?$output_processor@DV?$string_output_adapter@D@__crt_stdio_output@@V?$format_validation_base@DV?$string_output_adapter@D@__crt_stdio_output@@@2@@__crt_stdio_output@@AEAA_NQEAH@Z 00000001400586ec     libucrtd:output.obj
 0004:000016f8       $pdata$?state_case_width@?$output_processor@DV?$string_output_adapter@D@__crt_stdio_output@@V?$format_validation_base@DV?$string_output_adapter@D@__crt_stdio_output@@@2@@__crt_stdio_output@@AEAA_NXZ 00000001400586f8     libucrtd:output.obj
 0004:00001704       $pdata$?state_case_precision@?$output_processor@DV?$string_output_adapter@D@__crt_stdio_output@@V?$format_validation_base@DV?$string_output_adapter@D@__crt_stdio_output@@@2@@__crt_stdio_output@@AEAA_NXZ 0000000140058704     libucrtd:output.obj
 0004:00001710       $pdata$?state_case_size@?$output_processor@DV?$string_output_adapter@D@__crt_stdio_output@@V?$format_validation_base@DV?$string_output_adapter@D@__crt_stdio_output@@@2@@__crt_stdio_output@@AEAA_NXZ 0000000140058710     libucrtd:output.obj
 0004:0000171c       $pdata$?state_case_type@?$output_processor@DV?$string_output_adapter@D@__crt_stdio_output@@V?$format_validation_base@DV?$string_output_adapter@D@__crt_stdio_output@@@2@@__crt_stdio_output@@AEAA_NXZ 000000014005871c     libucrtd:output.obj
 0004:00001728       $pdata$?type_case_c@?$output_processor@DV?$string_output_adapter@D@__crt_stdio_output@@V?$format_validation_base@DV?$string_output_adapter@D@__crt_stdio_output@@@2@@__crt_stdio_output@@AEAA_NXZ 0000000140058728     libucrtd:output.obj
 0004:00001734       $pdata$?type_case_c_tchar@?$output_processor@DV?$string_output_adapter@D@__crt_stdio_output@@V?$format_validation_base@DV?$string_output_adapter@D@__crt_stdio_output@@@2@@__crt_stdio_output@@AEAA_ND@Z 0000000140058734     libucrtd:output.obj
 0004:00001740       $pdata$?type_case_Z@?$output_processor@DV?$string_output_adapter@D@__crt_stdio_output@@V?$format_validation_base@DV?$string_output_adapter@D@__crt_stdio_output@@@2@@__crt_stdio_output@@AEAA_NXZ 0000000140058740     libucrtd:output.obj
 0004:0000174c       $pdata$?type_case_s@?$output_processor@DV?$string_output_adapter@D@__crt_stdio_output@@V?$format_validation_base@DV?$string_output_adapter@D@__crt_stdio_output@@@2@@__crt_stdio_output@@AEAA_NXZ 000000014005874c     libucrtd:output.obj
 0004:00001758       $pdata$?type_case_s_compute_narrow_string_length@?$output_processor@DV?$string_output_adapter@D@__crt_stdio_output@@V?$format_validation_base@DV?$string_output_adapter@D@__crt_stdio_output@@@2@@__crt_stdio_output@@AEAAHHD@Z 0000000140058758     libucrtd:output.obj
 0004:00001764       $pdata$?type_case_a@?$output_processor@DV?$string_output_adapter@D@__crt_stdio_output@@V?$format_validation_base@DV?$string_output_adapter@D@__crt_stdio_output@@@2@@__crt_stdio_output@@AEAA_NXZ 0000000140058764     libucrtd:output.obj
 0004:00001770       $pdata$?type_case_d@?$output_processor@DV?$string_output_adapter@D@__crt_stdio_output@@V?$format_validation_base@DV?$string_output_adapter@D@__crt_stdio_output@@@2@@__crt_stdio_output@@AEAA_NXZ 0000000140058770     libucrtd:output.obj
 0004:0000177c       $pdata$?type_case_u@?$output_processor@DV?$string_output_adapter@D@__crt_stdio_output@@V?$format_validation_base@DV?$string_output_adapter@D@__crt_stdio_output@@@2@@__crt_stdio_output@@AEAA_NXZ 000000014005877c     libucrtd:output.obj
 0004:00001788       $pdata$?type_case_o@?$output_processor@DV?$string_output_adapter@D@__crt_stdio_output@@V?$format_validation_base@DV?$string_output_adapter@D@__crt_stdio_output@@@2@@__crt_stdio_output@@AEAA_NXZ 0000000140058788     libucrtd:output.obj
 0004:00001794       $pdata$?type_case_X@?$output_processor@DV?$string_output_adapter@D@__crt_stdio_output@@V?$format_validation_base@DV?$string_output_adapter@D@__crt_stdio_output@@@2@@__crt_stdio_output@@AEAA_NXZ 0000000140058794     libucrtd:output.obj
 0004:000017a0       $pdata$?type_case_x@?$output_processor@DV?$string_output_adapter@D@__crt_stdio_output@@V?$format_validation_base@DV?$string_output_adapter@D@__crt_stdio_output@@@2@@__crt_stdio_output@@AEAA_NXZ 00000001400587a0     libucrtd:output.obj
 0004:000017ac       $pdata$?type_case_p@?$output_processor@DV?$string_output_adapter@D@__crt_stdio_output@@V?$format_validation_base@DV?$string_output_adapter@D@__crt_stdio_output@@@2@@__crt_stdio_output@@AEAA_NXZ 00000001400587ac     libucrtd:output.obj
 0004:000017b8       $pdata$?type_case_n@?$output_processor@DV?$string_output_adapter@D@__crt_stdio_output@@V?$format_validation_base@DV?$string_output_adapter@D@__crt_stdio_output@@@2@@__crt_stdio_output@@AEAA_NXZ 00000001400587b8     libucrtd:output.obj
 0004:000017c4       $pdata$?write_stored_string_tchar@?$output_processor@DV?$string_output_adapter@D@__crt_stdio_output@@V?$format_validation_base@DV?$string_output_adapter@D@__crt_stdio_output@@@2@@__crt_stdio_output@@AEAA_ND@Z 00000001400587c4     libucrtd:output.obj
 0004:000017d0       $pdata$?has_flag@?$output_processor@DV?$string_output_adapter@D@__crt_stdio_output@@V?$format_validation_base@DV?$string_output_adapter@D@__crt_stdio_output@@@2@@__crt_stdio_output@@AEBA_NI@Z 00000001400587d0     libucrtd:output.obj
 0004:000017dc       $pdata$?find_next_state@?$output_processor@DV?$string_output_adapter@D@__crt_stdio_output@@V?$format_validation_base@DV?$string_output_adapter@D@__crt_stdio_output@@@2@@__crt_stdio_output@@AEBA?AW4state@2@DW432@@Z 00000001400587dc     libucrtd:output.obj
 0004:000017e8       $pdata$?adjust_hexit@?$output_processor@DV?$string_output_adapter@D@__crt_stdio_output@@V?$format_validation_base@DV?$string_output_adapter@D@__crt_stdio_output@@@2@@__crt_stdio_output@@CADH_N@Z 00000001400587e8     libucrtd:output.obj
 0004:000017f4       $pdata$??1?$output_processor@DV?$string_output_adapter@D@__crt_stdio_output@@V?$format_validation_base@DV?$string_output_adapter@D@__crt_stdio_output@@@2@@__crt_stdio_output@@QEAA@XZ 00000001400587f4     libucrtd:output.obj
 0004:00001800       $pdata$??0?$output_processor@_WV?$string_output_adapter@_W@__crt_stdio_output@@V?$format_validation_base@_WV?$string_output_adapter@_W@__crt_stdio_output@@@2@@__crt_stdio_output@@QEAA@AEBV?$string_output_adapter@_W@1@_KQEB_WAEAV__crt_cached_ptd_host@@QEAD@Z 0000000140058800     libucrtd:output.obj
 0004:0000180c       $pdata$?process@?$output_processor@_WV?$string_output_adapter@_W@__crt_stdio_output@@V?$format_validation_base@_WV?$string_output_adapter@_W@__crt_stdio_output@@@2@@__crt_stdio_output@@QEAAHXZ 000000014005880c     libucrtd:output.obj
 0004:00001818       $pdata$?state_case_normal@?$output_processor@_WV?$string_output_adapter@_W@__crt_stdio_output@@V?$format_validation_base@_WV?$string_output_adapter@_W@__crt_stdio_output@@@2@@__crt_stdio_output@@AEAA_NXZ 0000000140058818     libucrtd:output.obj
 0004:00001824       $pdata$?state_case_normal_common@?$output_processor@_WV?$string_output_adapter@_W@__crt_stdio_output@@V?$format_validation_base@_WV?$string_output_adapter@_W@__crt_stdio_output@@@2@@__crt_stdio_output@@AEAA_NXZ 0000000140058824     libucrtd:output.obj
 0004:00001830       $pdata$?state_case_flag@?$output_processor@_WV?$string_output_adapter@_W@__crt_stdio_output@@V?$format_validation_base@_WV?$string_output_adapter@_W@__crt_stdio_output@@@2@@__crt_stdio_output@@AEAA_NXZ 0000000140058830     libucrtd:output.obj
 0004:0000183c       $pdata$?parse_int_from_format_string@?$output_processor@_WV?$string_output_adapter@_W@__crt_stdio_output@@V?$format_validation_base@_WV?$string_output_adapter@_W@__crt_stdio_output@@@2@@__crt_stdio_output@@AEAA_NQEAH@Z 000000014005883c     libucrtd:output.obj
 0004:00001848       $pdata$?state_case_width@?$output_processor@_WV?$string_output_adapter@_W@__crt_stdio_output@@V?$format_validation_base@_WV?$string_output_adapter@_W@__crt_stdio_output@@@2@@__crt_stdio_output@@AEAA_NXZ 0000000140058848     libucrtd:output.obj
 0004:00001854       $pdata$?state_case_precision@?$output_processor@_WV?$string_output_adapter@_W@__crt_stdio_output@@V?$format_validation_base@_WV?$string_output_adapter@_W@__crt_stdio_output@@@2@@__crt_stdio_output@@AEAA_NXZ 0000000140058854     libucrtd:output.obj
 0004:00001860       $pdata$?state_case_size@?$output_processor@_WV?$string_output_adapter@_W@__crt_stdio_output@@V?$format_validation_base@_WV?$string_output_adapter@_W@__crt_stdio_output@@@2@@__crt_stdio_output@@AEAA_NXZ 0000000140058860     libucrtd:output.obj
 0004:0000186c       $pdata$?state_case_type@?$output_processor@_WV?$string_output_adapter@_W@__crt_stdio_output@@V?$format_validation_base@_WV?$string_output_adapter@_W@__crt_stdio_output@@@2@@__crt_stdio_output@@AEAA_NXZ 000000014005886c     libucrtd:output.obj
 0004:00001878       $pdata$?type_case_c@?$output_processor@_WV?$string_output_adapter@_W@__crt_stdio_output@@V?$format_validation_base@_WV?$string_output_adapter@_W@__crt_stdio_output@@@2@@__crt_stdio_output@@AEAA_NXZ 0000000140058878     libucrtd:output.obj
 0004:00001884       $pdata$?type_case_c_tchar@?$output_processor@_WV?$string_output_adapter@_W@__crt_stdio_output@@V?$format_validation_base@_WV?$string_output_adapter@_W@__crt_stdio_output@@@2@@__crt_stdio_output@@AEAA_N_W@Z 0000000140058884     libucrtd:output.obj
 0004:00001890       $pdata$?type_case_Z@?$output_processor@_WV?$string_output_adapter@_W@__crt_stdio_output@@V?$format_validation_base@_WV?$string_output_adapter@_W@__crt_stdio_output@@@2@@__crt_stdio_output@@AEAA_NXZ 0000000140058890     libucrtd:output.obj
 0004:0000189c       $pdata$?type_case_s@?$output_processor@_WV?$string_output_adapter@_W@__crt_stdio_output@@V?$format_validation_base@_WV?$string_output_adapter@_W@__crt_stdio_output@@@2@@__crt_stdio_output@@AEAA_NXZ 000000014005889c     libucrtd:output.obj
 0004:000018a8       $pdata$?type_case_s_compute_narrow_string_length@?$output_processor@_WV?$string_output_adapter@_W@__crt_stdio_output@@V?$format_validation_base@_WV?$string_output_adapter@_W@__crt_stdio_output@@@2@@__crt_stdio_output@@AEAAHH_W@Z 00000001400588a8     libucrtd:output.obj
 0004:000018b4       $pdata$?type_case_a@?$output_processor@_WV?$string_output_adapter@_W@__crt_stdio_output@@V?$format_validation_base@_WV?$string_output_adapter@_W@__crt_stdio_output@@@2@@__crt_stdio_output@@AEAA_NXZ 00000001400588b4     libucrtd:output.obj
 0004:000018c0       $pdata$?type_case_d@?$output_processor@_WV?$string_output_adapter@_W@__crt_stdio_output@@V?$format_validation_base@_WV?$string_output_adapter@_W@__crt_stdio_output@@@2@@__crt_stdio_output@@AEAA_NXZ 00000001400588c0     libucrtd:output.obj
 0004:000018cc       $pdata$?type_case_u@?$output_processor@_WV?$string_output_adapter@_W@__crt_stdio_output@@V?$format_validation_base@_WV?$string_output_adapter@_W@__crt_stdio_output@@@2@@__crt_stdio_output@@AEAA_NXZ 00000001400588cc     libucrtd:output.obj
 0004:000018d8       $pdata$?type_case_o@?$output_processor@_WV?$string_output_adapter@_W@__crt_stdio_output@@V?$format_validation_base@_WV?$string_output_adapter@_W@__crt_stdio_output@@@2@@__crt_stdio_output@@AEAA_NXZ 00000001400588d8     libucrtd:output.obj
 0004:000018e4       $pdata$?type_case_X@?$output_processor@_WV?$string_output_adapter@_W@__crt_stdio_output@@V?$format_validation_base@_WV?$string_output_adapter@_W@__crt_stdio_output@@@2@@__crt_stdio_output@@AEAA_NXZ 00000001400588e4     libucrtd:output.obj
 0004:000018f0       $pdata$?type_case_x@?$output_processor@_WV?$string_output_adapter@_W@__crt_stdio_output@@V?$format_validation_base@_WV?$string_output_adapter@_W@__crt_stdio_output@@@2@@__crt_stdio_output@@AEAA_NXZ 00000001400588f0     libucrtd:output.obj
 0004:000018fc       $pdata$?type_case_p@?$output_processor@_WV?$string_output_adapter@_W@__crt_stdio_output@@V?$format_validation_base@_WV?$string_output_adapter@_W@__crt_stdio_output@@@2@@__crt_stdio_output@@AEAA_NXZ 00000001400588fc     libucrtd:output.obj
 0004:00001908       $pdata$?type_case_n@?$output_processor@_WV?$string_output_adapter@_W@__crt_stdio_output@@V?$format_validation_base@_WV?$string_output_adapter@_W@__crt_stdio_output@@@2@@__crt_stdio_output@@AEAA_NXZ 0000000140058908     libucrtd:output.obj
 0004:00001914       $pdata$?write_stored_string_tchar@?$output_processor@_WV?$string_output_adapter@_W@__crt_stdio_output@@V?$format_validation_base@_WV?$string_output_adapter@_W@__crt_stdio_output@@@2@@__crt_stdio_output@@AEAA_N_W@Z 0000000140058914     libucrtd:output.obj
 0004:00001920       $pdata$?has_flag@?$output_processor@_WV?$string_output_adapter@_W@__crt_stdio_output@@V?$format_validation_base@_WV?$string_output_adapter@_W@__crt_stdio_output@@@2@@__crt_stdio_output@@AEBA_NI@Z 0000000140058920     libucrtd:output.obj
 0004:0000192c       $pdata$?find_next_state@?$output_processor@_WV?$string_output_adapter@_W@__crt_stdio_output@@V?$format_validation_base@_WV?$string_output_adapter@_W@__crt_stdio_output@@@2@@__crt_stdio_output@@AEBA?AW4state@2@_WW432@@Z 000000014005892c     libucrtd:output.obj
 0004:00001938       $pdata$?adjust_hexit@?$output_processor@_WV?$string_output_adapter@_W@__crt_stdio_output@@V?$format_validation_base@_WV?$string_output_adapter@_W@__crt_stdio_output@@@2@@__crt_stdio_output@@CADH_N@Z 0000000140058938     libucrtd:output.obj
 0004:00001944       $pdata$??1?$output_processor@_WV?$string_output_adapter@_W@__crt_stdio_output@@V?$format_validation_base@_WV?$string_output_adapter@_W@__crt_stdio_output@@@2@@__crt_stdio_output@@QEAA@XZ 0000000140058944     libucrtd:output.obj
 0004:00001950       $pdata$??$?0AEBV?$string_output_adapter@_W@__crt_stdio_output@@AEB_KAEBQEB_WAEAV__crt_cached_ptd_host@@AEBQEAD@?$format_validation_base@_WV?$string_output_adapter@_W@__crt_stdio_output@@@__crt_stdio_output@@IEAA@AEBV?$string_output_adapter@_W@1@AEB_KAEBQEB_WAEAV__crt_cached_ptd_host@@AEBQEAD@Z 0000000140058950     libucrtd:output.obj
 0004:0000195c       $pdata$??$?0AEBV?$string_output_adapter@D@__crt_stdio_output@@AEB_KAEBQEBDAEAV__crt_cached_ptd_host@@AEBQEAD@?$format_validation_base@DV?$string_output_adapter@D@__crt_stdio_output@@@__crt_stdio_output@@IEAA@AEBV?$string_output_adapter@D@1@AEB_KAEBQEBDAEAV__crt_cached_ptd_host@@AEBQEAD@Z 000000014005895c     libucrtd:output.obj
 0004:00001968       $pdata$??$make_c_string_character_source@_WPEAPEA_W@__crt_strtox@@YA?AV?$c_string_character_source@_W@0@QEB_WQEAPEA_W@Z 0000000140058968     libucrtd:output.obj
 0004:00001974       $pdata$?validate@?$c_string_character_source@_W@__crt_strtox@@QEBA_NXZ 0000000140058974     libucrtd:output.obj
 0004:00001980       $pdata$?get@?$c_string_character_source@_W@__crt_strtox@@QEAA_WXZ 0000000140058980     libucrtd:output.obj
 0004:0000198c       $pdata$?unget@?$c_string_character_source@_W@__crt_strtox@@QEAAX_W@Z 000000014005898c     libucrtd:output.obj
 0004:00001998       $pdata$??$parse_integer@KV?$c_string_character_source@_W@__crt_strtox@@$0A@@__crt_strtox@@YAKAEAV__crt_cached_ptd_host@@V?$c_string_character_source@_W@0@H_N@Z 0000000140058998     libucrtd:output.obj
 0004:000019a4       $pdata$??$make_c_string_character_source@DPEAPEAD@__crt_strtox@@YA?AV?$c_string_character_source@D@0@QEBDQEAPEAD@Z 00000001400589a4     libucrtd:output.obj
 0004:000019b0       $pdata$?validate@?$c_string_character_source@D@__crt_strtox@@QEBA_NXZ 00000001400589b0     libucrtd:output.obj
 0004:000019bc       $pdata$?get@?$c_string_character_source@D@__crt_strtox@@QEAADXZ 00000001400589bc     libucrtd:output.obj
 0004:000019c8       $pdata$?unget@?$c_string_character_source@D@__crt_strtox@@QEAAXD@Z 00000001400589c8     libucrtd:output.obj
 0004:000019d4       $pdata$??$parse_integer@KV?$c_string_character_source@D@__crt_strtox@@$0A@@__crt_strtox@@YAKAEAV__crt_cached_ptd_host@@V?$c_string_character_source@D@0@H_N@Z 00000001400589d4     libucrtd:output.obj
 0004:000019e0       $pdata$??$ensure_buffer_is_big_enough@_W@formatting_buffer@__crt_stdio_output@@QEAA_N_KAEAV__crt_cached_ptd_host@@@Z 00000001400589e0     libucrtd:output.obj
 0004:000019ec       $pdata$??$extract_argument_from_va_list@C_J@?$standard_base@_WV?$string_output_adapter@_W@__crt_stdio_output@@@__crt_stdio_output@@IEAA_NAEA_J@Z 00000001400589ec     libucrtd:output.obj
 0004:000019f8       $pdata$??$extract_argument_from_va_list@E_J@?$standard_base@_WV?$string_output_adapter@_W@__crt_stdio_output@@@__crt_stdio_output@@IEAA_NAEA_J@Z 00000001400589f8     libucrtd:output.obj
 0004:00001a04       $pdata$??$extract_argument_from_va_list@F_J@?$standard_base@_WV?$string_output_adapter@_W@__crt_stdio_output@@@__crt_stdio_output@@IEAA_NAEA_J@Z 0000000140058a04     libucrtd:output.obj
 0004:00001a10       $pdata$??$extract_argument_from_va_list@G_J@?$standard_base@_WV?$string_output_adapter@_W@__crt_stdio_output@@@__crt_stdio_output@@IEAA_NAEA_J@Z 0000000140058a10     libucrtd:output.obj
 0004:00001a1c       $pdata$??$extract_argument_from_va_list@H_J@?$standard_base@_WV?$string_output_adapter@_W@__crt_stdio_output@@@__crt_stdio_output@@IEAA_NAEA_J@Z 0000000140058a1c     libucrtd:output.obj
 0004:00001a28       $pdata$??$extract_argument_from_va_list@I_J@?$standard_base@_WV?$string_output_adapter@_W@__crt_stdio_output@@@__crt_stdio_output@@IEAA_NAEA_J@Z 0000000140058a28     libucrtd:output.obj
 0004:00001a34       $pdata$??$extract_argument_from_va_list@_J_J@?$standard_base@_WV?$string_output_adapter@_W@__crt_stdio_output@@@__crt_stdio_output@@IEAA_NAEA_J@Z 0000000140058a34     libucrtd:output.obj
 0004:00001a40       $pdata$??$extract_argument_from_va_list@_K_J@?$standard_base@_WV?$string_output_adapter@_W@__crt_stdio_output@@@__crt_stdio_output@@IEAA_NAEA_J@Z 0000000140058a40     libucrtd:output.obj
 0004:00001a4c       $pdata$??$read_va_arg@PEAD@__crt_stdio_output@@YAPEADAEAPEAD@Z 0000000140058a4c     libucrtd:output.obj
 0004:00001a58       $pdata$??$extract_argument_from_va_list@C_J@?$standard_base@DV?$string_output_adapter@D@__crt_stdio_output@@@__crt_stdio_output@@IEAA_NAEA_J@Z 0000000140058a58     libucrtd:output.obj
 0004:00001a64       $pdata$??$extract_argument_from_va_list@E_J@?$standard_base@DV?$string_output_adapter@D@__crt_stdio_output@@@__crt_stdio_output@@IEAA_NAEA_J@Z 0000000140058a64     libucrtd:output.obj
 0004:00001a70       $pdata$??$extract_argument_from_va_list@F_J@?$standard_base@DV?$string_output_adapter@D@__crt_stdio_output@@@__crt_stdio_output@@IEAA_NAEA_J@Z 0000000140058a70     libucrtd:output.obj
 0004:00001a7c       $pdata$??$extract_argument_from_va_list@G_J@?$standard_base@DV?$string_output_adapter@D@__crt_stdio_output@@@__crt_stdio_output@@IEAA_NAEA_J@Z 0000000140058a7c     libucrtd:output.obj
 0004:00001a88       $pdata$??$extract_argument_from_va_list@H_J@?$standard_base@DV?$string_output_adapter@D@__crt_stdio_output@@@__crt_stdio_output@@IEAA_NAEA_J@Z 0000000140058a88     libucrtd:output.obj
 0004:00001a94       $pdata$??$extract_argument_from_va_list@I_J@?$standard_base@DV?$string_output_adapter@D@__crt_stdio_output@@@__crt_stdio_output@@IEAA_NAEA_J@Z 0000000140058a94     libucrtd:output.obj
 0004:00001aa0       $pdata$??$extract_argument_from_va_list@_J_J@?$standard_base@DV?$string_output_adapter@D@__crt_stdio_output@@@__crt_stdio_output@@IEAA_NAEA_J@Z 0000000140058aa0     libucrtd:output.obj
 0004:00001aac       $pdata$??$extract_argument_from_va_list@_K_J@?$standard_base@DV?$string_output_adapter@D@__crt_stdio_output@@@__crt_stdio_output@@IEAA_NAEA_J@Z 0000000140058aac     libucrtd:output.obj
 0004:00001ab8       $pdata$??$read_va_arg@_W@__crt_stdio_output@@YA_WAEAPEAD@Z 0000000140058ab8     libucrtd:output.obj
 0004:00001ac4       $pdata$??$read_va_arg@G@__crt_stdio_output@@YAGAEAPEAD@Z 0000000140058ac4     libucrtd:output.obj
 0004:00001ad0       $pdata$??$type_case_integer@$0BA@@?$output_processor@_WV?$string_output_adapter@_W@__crt_stdio_output@@V?$format_validation_base@_WV?$string_output_adapter@_W@__crt_stdio_output@@@2@@__crt_stdio_output@@AEAA_N_N@Z 0000000140058ad0     libucrtd:output.obj
 0004:00001adc       $pdata$??$type_case_integer@$07@?$output_processor@_WV?$string_output_adapter@_W@__crt_stdio_output@@V?$format_validation_base@_WV?$string_output_adapter@_W@__crt_stdio_output@@@2@@__crt_stdio_output@@AEAA_N_N@Z 0000000140058adc     libucrtd:output.obj
 0004:00001ae8       $pdata$??$type_case_integer@$09@?$output_processor@_WV?$string_output_adapter@_W@__crt_stdio_output@@V?$format_validation_base@_WV?$string_output_adapter@_W@__crt_stdio_output@@@2@@__crt_stdio_output@@AEAA_N_N@Z 0000000140058ae8     libucrtd:output.obj
 0004:00001af4       $pdata$??$extract_argument_from_va_list@PEAUansi_string@?1??type_case_Z@?$output_processor@_WV?$string_output_adapter@_W@__crt_stdio_output@@V?$format_validation_base@_WV?$string_output_adapter@_W@__crt_stdio_output@@@2@@__crt_stdio_output@@AEAA_NXZ@PEAU1?1??234@AEAA_NXZ@@?$standard_base@_WV?$string_output_adapter@_W@__crt_stdio_output@@@__crt_stdio_output@@IEAA_NAEAPEAUansi_string@?1??type_case_Z@?$output_processor@_WV?$string_output_adapter@_W@__crt_stdio_output@@V?$format_validation_base@_WV?$string_output_adapter@_W@__crt_stdio_output@@@2@@1@AEAA_NXZ@@Z 0000000140058af4     libucrtd:output.obj
 0004:00001b00       $pdata$??$type_case_integer@$0BA@@?$output_processor@DV?$string_output_adapter@D@__crt_stdio_output@@V?$format_validation_base@DV?$string_output_adapter@D@__crt_stdio_output@@@2@@__crt_stdio_output@@AEAA_N_N@Z 0000000140058b00     libucrtd:output.obj
 0004:00001b0c       $pdata$??$type_case_integer@$07@?$output_processor@DV?$string_output_adapter@D@__crt_stdio_output@@V?$format_validation_base@DV?$string_output_adapter@D@__crt_stdio_output@@@2@@__crt_stdio_output@@AEAA_N_N@Z 0000000140058b0c     libucrtd:output.obj
 0004:00001b18       $pdata$??$type_case_integer@$09@?$output_processor@DV?$string_output_adapter@D@__crt_stdio_output@@V?$format_validation_base@DV?$string_output_adapter@D@__crt_stdio_output@@@2@@__crt_stdio_output@@AEAA_N_N@Z 0000000140058b18     libucrtd:output.obj
 0004:00001b24       $pdata$??$extract_argument_from_va_list@PEAUansi_string@?1??type_case_Z@?$output_processor@DV?$string_output_adapter@D@__crt_stdio_output@@V?$format_validation_base@DV?$string_output_adapter@D@__crt_stdio_output@@@2@@__crt_stdio_output@@AEAA_NXZ@PEAU1?1??234@AEAA_NXZ@@?$standard_base@DV?$string_output_adapter@D@__crt_stdio_output@@@__crt_stdio_output@@IEAA_NAEAPEAUansi_string@?1??type_case_Z@?$output_processor@DV?$string_output_adapter@D@__crt_stdio_output@@V?$format_validation_base@DV?$string_output_adapter@D@__crt_stdio_output@@@2@@1@AEAA_NXZ@@Z 0000000140058b24     libucrtd:output.obj
 0004:00001b30       $pdata$??$is_overflow_condition@K@__crt_strtox@@YA_NIK@Z 0000000140058b30     libucrtd:output.obj
 0004:00001b3c       $pdata$??$count@_W@formatting_buffer@__crt_stdio_output@@QEBA_KXZ 0000000140058b3c     libucrtd:output.obj
 0004:00001b48       $pdata$??$read_va_arg@C@__crt_stdio_output@@YACAEAPEAD@Z 0000000140058b48     libucrtd:output.obj
 0004:00001b54       $pdata$??$read_va_arg@E@__crt_stdio_output@@YAEAEAPEAD@Z 0000000140058b54     libucrtd:output.obj
 0004:00001b60       $pdata$??$read_va_arg@F@__crt_stdio_output@@YAFAEAPEAD@Z 0000000140058b60     libucrtd:output.obj
 0004:00001b6c       $pdata$??$read_va_arg@I@__crt_stdio_output@@YAIAEAPEAD@Z 0000000140058b6c     libucrtd:output.obj
 0004:00001b78       $pdata$??$read_va_arg@_K@__crt_stdio_output@@YA_KAEAPEAD@Z 0000000140058b78     libucrtd:output.obj
 0004:00001b84       $pdata$??$type_case_integer_parse_into_buffer@_K$0BA@@?$output_processor@_WV?$string_output_adapter@_W@__crt_stdio_output@@V?$format_validation_base@_WV?$string_output_adapter@_W@__crt_stdio_output@@@2@@__crt_stdio_output@@AEAAX_K_N@Z 0000000140058b84     libucrtd:output.obj
 0004:00001b90       $pdata$??$type_case_integer_parse_into_buffer@I$0BA@@?$output_processor@_WV?$string_output_adapter@_W@__crt_stdio_output@@V?$format_validation_base@_WV?$string_output_adapter@_W@__crt_stdio_output@@@2@@__crt_stdio_output@@AEAAXI_N@Z 0000000140058b90     libucrtd:output.obj
 0004:00001b9c       $pdata$??$type_case_integer_parse_into_buffer@_K$07@?$output_processor@_WV?$string_output_adapter@_W@__crt_stdio_output@@V?$format_validation_base@_WV?$string_output_adapter@_W@__crt_stdio_output@@@2@@__crt_stdio_output@@AEAAX_K_N@Z 0000000140058b9c     libucrtd:output.obj
 0004:00001ba8       $pdata$??$type_case_integer_parse_into_buffer@I$07@?$output_processor@_WV?$string_output_adapter@_W@__crt_stdio_output@@V?$format_validation_base@_WV?$string_output_adapter@_W@__crt_stdio_output@@@2@@__crt_stdio_output@@AEAAXI_N@Z 0000000140058ba8     libucrtd:output.obj
 0004:00001bb4       $pdata$??$type_case_integer_parse_into_buffer@_K$09@?$output_processor@_WV?$string_output_adapter@_W@__crt_stdio_output@@V?$format_validation_base@_WV?$string_output_adapter@_W@__crt_stdio_output@@@2@@__crt_stdio_output@@AEAAX_K_N@Z 0000000140058bb4     libucrtd:output.obj
 0004:00001bc0       $pdata$??$type_case_integer_parse_into_buffer@I$09@?$output_processor@_WV?$string_output_adapter@_W@__crt_stdio_output@@V?$format_validation_base@_WV?$string_output_adapter@_W@__crt_stdio_output@@@2@@__crt_stdio_output@@AEAAXI_N@Z 0000000140058bc0     libucrtd:output.obj
 0004:00001bcc       $pdata$??$read_va_arg@PEAUansi_string@?1??type_case_Z@?$output_processor@_WV?$string_output_adapter@_W@__crt_stdio_output@@V?$format_validation_base@_WV?$string_output_adapter@_W@__crt_stdio_output@@@2@@__crt_stdio_output@@AEAA_NXZ@@__crt_stdio_output@@YAPEAUansi_string@?1??type_case_Z@?$output_processor@_WV?$string_output_adapter@_W@__crt_stdio_output@@V?$format_validation_base@_WV?$string_output_adapter@_W@__crt_stdio_output@@@2@@0@AEAA_NXZ@AEAPEAD@Z 0000000140058bcc     libucrtd:output.obj
 0004:00001bd8       $pdata$??$type_case_integer_parse_into_buffer@_K$0BA@@?$output_processor@DV?$string_output_adapter@D@__crt_stdio_output@@V?$format_validation_base@DV?$string_output_adapter@D@__crt_stdio_output@@@2@@__crt_stdio_output@@AEAAX_K_N@Z 0000000140058bd8     libucrtd:output.obj
 0004:00001be4       $pdata$??$type_case_integer_parse_into_buffer@I$0BA@@?$output_processor@DV?$string_output_adapter@D@__crt_stdio_output@@V?$format_validation_base@DV?$string_output_adapter@D@__crt_stdio_output@@@2@@__crt_stdio_output@@AEAAXI_N@Z 0000000140058be4     libucrtd:output.obj
 0004:00001bf0       $pdata$??$type_case_integer_parse_into_buffer@_K$07@?$output_processor@DV?$string_output_adapter@D@__crt_stdio_output@@V?$format_validation_base@DV?$string_output_adapter@D@__crt_stdio_output@@@2@@__crt_stdio_output@@AEAAX_K_N@Z 0000000140058bf0     libucrtd:output.obj
 0004:00001bfc       $pdata$??$type_case_integer_parse_into_buffer@I$07@?$output_processor@DV?$string_output_adapter@D@__crt_stdio_output@@V?$format_validation_base@DV?$string_output_adapter@D@__crt_stdio_output@@@2@@__crt_stdio_output@@AEAAXI_N@Z 0000000140058bfc     libucrtd:output.obj
 0004:00001c08       $pdata$??$type_case_integer_parse_into_buffer@_K$09@?$output_processor@DV?$string_output_adapter@D@__crt_stdio_output@@V?$format_validation_base@DV?$string_output_adapter@D@__crt_stdio_output@@@2@@__crt_stdio_output@@AEAAX_K_N@Z 0000000140058c08     libucrtd:output.obj
 0004:00001c14       $pdata$??$type_case_integer_parse_into_buffer@I$09@?$output_processor@DV?$string_output_adapter@D@__crt_stdio_output@@V?$format_validation_base@DV?$string_output_adapter@D@__crt_stdio_output@@@2@@__crt_stdio_output@@AEAAXI_N@Z 0000000140058c14     libucrtd:output.obj
 0004:00001c20       $pdata$??$read_va_arg@PEAUansi_string@?1??type_case_Z@?$output_processor@DV?$string_output_adapter@D@__crt_stdio_output@@V?$format_validation_base@DV?$string_output_adapter@D@__crt_stdio_output@@@2@@__crt_stdio_output@@AEAA_NXZ@@__crt_stdio_output@@YAPEAUansi_string@?1??type_case_Z@?$output_processor@DV?$string_output_adapter@D@__crt_stdio_output@@V?$format_validation_base@DV?$string_output_adapter@D@__crt_stdio_output@@@2@@0@AEAA_NXZ@AEAPEAD@Z 0000000140058c20     libucrtd:output.obj
 0004:00001c38       $pdata$free                0000000140058c38     libucrtd:free.obj
 0004:00001c44       $pdata$malloc              0000000140058c44     libucrtd:malloc.obj
 0004:00001c50       $pdata$__acrt_initialize_ptd 0000000140058c50     libucrtd:per_thread_data.obj
 0004:00001c5c       $pdata$__acrt_uninitialize_ptd 0000000140058c5c     libucrtd:per_thread_data.obj
 0004:00001c68       $pdata$__acrt_getptd       0000000140058c68     libucrtd:per_thread_data.obj
 0004:00001c74       $pdata$__acrt_getptd_head  0000000140058c74     libucrtd:per_thread_data.obj
 0004:00001c80       $pdata$__acrt_getptd_noexit 0000000140058c80     libucrtd:per_thread_data.obj
 0004:00001c8c       $pdata$__acrt_getptd_noexit_explicit 0000000140058c8c     libucrtd:per_thread_data.obj
 0004:00001c98       $pdata$?destroy_fls@@YAXPEAX@Z 0000000140058c98     libucrtd:per_thread_data.obj
 0004:00001ca4       $pdata$?replace_current_thread_locale_nolock@@YAXQEAU__acrt_ptd@@QEAU__crt_locale_data@@@Z 0000000140058ca4     libucrtd:per_thread_data.obj
 0004:00001cb0       $pdata$?construct_ptd@@YAXQEAU__acrt_ptd@@QEAPEAU__crt_locale_data@@@Z 0000000140058cb0     libucrtd:per_thread_data.obj
 0004:00001cbc       $pdata$??$__acrt_lock_and_call@V<lambda_8d0ee55de4b1038c4002e0adecdf1839>@@@@YAXW4__acrt_lock_id@@$$QEAV<lambda_8d0ee55de4b1038c4002e0adecdf1839>@@@Z 0000000140058cbc     libucrtd:per_thread_data.obj
 0004:00001cc8       $pdata$??R<lambda_92619d2358a28f41a33ba319515a20b9>@@QEBAXXZ 0000000140058cc8     libucrtd:per_thread_data.obj
 0004:00001cd4       $pdata$??$__acrt_lock_and_call@V<lambda_92619d2358a28f41a33ba319515a20b9>@@@@YAXW4__acrt_lock_id@@$$QEAV<lambda_92619d2358a28f41a33ba319515a20b9>@@@Z 0000000140058cd4     libucrtd:per_thread_data.obj
 0004:00001ce0       $pdata$?construct_ptd_array@@YAXQEAU__acrt_ptd@@@Z 0000000140058ce0     libucrtd:per_thread_data.obj
 0004:00001cec       $pdata$?destroy_ptd@@YAXQEAU__acrt_ptd@@@Z 0000000140058cec     libucrtd:per_thread_data.obj
 0004:00001cf8       $pdata$??R<lambda_e157831efee4ea0afb0a2ace5dd5fd0d>@@QEBAXXZ 0000000140058cf8     libucrtd:per_thread_data.obj
 0004:00001d04       $pdata$??$__acrt_lock_and_call@V<lambda_e157831efee4ea0afb0a2ace5dd5fd0d>@@@@YAXW4__acrt_lock_id@@$$QEAV<lambda_e157831efee4ea0afb0a2ace5dd5fd0d>@@@Z 0000000140058d04     libucrtd:per_thread_data.obj
 0004:00001d10       $pdata$??R<lambda_8f455de75cd7d7f24b4096f044d8b9e6>@@QEBAXXZ 0000000140058d10     libucrtd:per_thread_data.obj
 0004:00001d1c       $pdata$??$__acrt_lock_and_call@V<lambda_8f455de75cd7d7f24b4096f044d8b9e6>@@@@YAXW4__acrt_lock_id@@$$QEAV<lambda_8f455de75cd7d7f24b4096f044d8b9e6>@@@Z 0000000140058d1c     libucrtd:per_thread_data.obj
 0004:00001d28       $pdata$?destroy_ptd_array@@YAXQEAU__acrt_ptd@@@Z 0000000140058d28     libucrtd:per_thread_data.obj
 0004:00001d34       $pdata$?try_get_ptd_head@@YAPEAU__acrt_ptd@@XZ 0000000140058d34     libucrtd:per_thread_data.obj
 0004:00001d40       $pdata$?internal_get_ptd_head@@YAPEAU__acrt_ptd@@XZ 0000000140058d40     libucrtd:per_thread_data.obj
 0004:00001d4c       $pdata$??1?$__crt_unique_heap_ptr@U__acrt_ptd@@U__crt_internal_free_policy@@@@QEAA@XZ 0000000140058d4c     libucrtd:per_thread_data.obj
 0004:00001d58       $pdata$?detach@?$__crt_unique_heap_ptr@U__acrt_ptd@@U__crt_internal_free_policy@@@@QEAAPEAU__acrt_ptd@@XZ 0000000140058d58     libucrtd:per_thread_data.obj
 0004:00001d64       $pdata$?release@?$__crt_unique_heap_ptr@U__acrt_ptd@@U__crt_internal_free_policy@@@@QEAAXXZ 0000000140058d64     libucrtd:per_thread_data.obj
 0004:00001d70       $pdata$?is_valid@?$__crt_unique_heap_ptr@U__acrt_ptd@@U__crt_internal_free_policy@@@@QEBA_NXZ 0000000140058d70     libucrtd:per_thread_data.obj
 0004:00001d7c       $pdata$??B?$__crt_unique_heap_ptr@U__acrt_ptd@@U__crt_internal_free_policy@@@@QEBA_NXZ 0000000140058d7c     libucrtd:per_thread_data.obj
 0004:00001d88       $pdata$?internal_getptd_noexit@@YAPEAU__acrt_ptd@@AEBV__crt_scoped_get_last_error_reset@@_K@Z 0000000140058d88     libucrtd:per_thread_data.obj
 0004:00001d94       $pdata$?internal_getptd_noexit@@YAPEAU__acrt_ptd@@XZ 0000000140058d94     libucrtd:per_thread_data.obj
 0004:00001da0       $pdata$??$?RU__acrt_ptd@@@__crt_internal_free_policy@@QEBAXQEBU__acrt_ptd@@@Z 0000000140058da0     libucrtd:per_thread_data.obj
 0004:00001dac       $pdata$??R<lambda_0ae27a3a962d80f24befdcbee591983d>@@QEBAXXZ 0000000140058dac     libucrtd:per_thread_data.obj
 0004:00001db8       $pdata$??R<lambda_dc504788e8f1664fe9b84e20bfb512f2>@@QEBAXXZ 0000000140058db8     libucrtd:per_thread_data.obj
 0004:00001dc4       $pdata$??$?RV<lambda_0ae27a3a962d80f24befdcbee591983d>@@AEAV<lambda_8d0ee55de4b1038c4002e0adecdf1839>@@V<lambda_dc504788e8f1664fe9b84e20bfb512f2>@@@?$__crt_seh_guarded_call@X@@QEAAX$$QEAV<lambda_0ae27a3a962d80f24befdcbee591983d>@@AEAV<lambda_8d0ee55de4b1038c4002e0adecdf1839>@@$$QEAV<lambda_dc504788e8f1664fe9b84e20bfb512f2>@@@Z 0000000140058dc4     libucrtd:per_thread_data.obj
 0004:00001dd0       $pdata$?fin$0@?0???$?RV<lambda_0ae27a3a962d80f24befdcbee591983d>@@AEAV<lambda_8d0ee55de4b1038c4002e0adecdf1839>@@V<lambda_dc504788e8f1664fe9b84e20bfb512f2>@@@?$__crt_seh_guarded_call@X@@QEAAX$$QEAV<lambda_0ae27a3a962d80f24befdcbee591983d>@@AEAV<lambda_8d0ee55de4b1038c4002e0adecdf1839>@@$$QEAV<lambda_dc504788e8f1664fe9b84e20bfb512f2>@@@Z@4HA 0000000140058dd0     libucrtd:per_thread_data.obj
 0004:00001ddc       $pdata$??R<lambda_aa87e3671a710a21b5dc78c0bdf72e11>@@QEBAXXZ 0000000140058ddc     libucrtd:per_thread_data.obj
 0004:00001de8       $pdata$??R<lambda_6992ecaafeb10aed2b74cb1fae11a551>@@QEBAXXZ 0000000140058de8     libucrtd:per_thread_data.obj
 0004:00001df4       $pdata$??$?RV<lambda_aa87e3671a710a21b5dc78c0bdf72e11>@@AEAV<lambda_92619d2358a28f41a33ba319515a20b9>@@V<lambda_6992ecaafeb10aed2b74cb1fae11a551>@@@?$__crt_seh_guarded_call@X@@QEAAX$$QEAV<lambda_aa87e3671a710a21b5dc78c0bdf72e11>@@AEAV<lambda_92619d2358a28f41a33ba319515a20b9>@@$$QEAV<lambda_6992ecaafeb10aed2b74cb1fae11a551>@@@Z 0000000140058df4     libucrtd:per_thread_data.obj
 0004:00001e00       $pdata$?fin$0@?0???$?RV<lambda_aa87e3671a710a21b5dc78c0bdf72e11>@@AEAV<lambda_92619d2358a28f41a33ba319515a20b9>@@V<lambda_6992ecaafeb10aed2b74cb1fae11a551>@@@?$__crt_seh_guarded_call@X@@QEAAX$$QEAV<lambda_aa87e3671a710a21b5dc78c0bdf72e11>@@AEAV<lambda_92619d2358a28f41a33ba319515a20b9>@@$$QEAV<lambda_6992ecaafeb10aed2b74cb1fae11a551>@@@Z@4HA 0000000140058e00     libucrtd:per_thread_data.obj
 0004:00001e0c       $pdata$??R<lambda_74a0ef281e44d15e1136f792f539efb3>@@QEBAXXZ 0000000140058e0c     libucrtd:per_thread_data.obj
 0004:00001e18       $pdata$??R<lambda_04ddeca75b7c13fd67716e8dfcef87ee>@@QEBAXXZ 0000000140058e18     libucrtd:per_thread_data.obj
 0004:00001e24       $pdata$??$?RV<lambda_74a0ef281e44d15e1136f792f539efb3>@@AEAV<lambda_e157831efee4ea0afb0a2ace5dd5fd0d>@@V<lambda_04ddeca75b7c13fd67716e8dfcef87ee>@@@?$__crt_seh_guarded_call@X@@QEAAX$$QEAV<lambda_74a0ef281e44d15e1136f792f539efb3>@@AEAV<lambda_e157831efee4ea0afb0a2ace5dd5fd0d>@@$$QEAV<lambda_04ddeca75b7c13fd67716e8dfcef87ee>@@@Z 0000000140058e24     libucrtd:per_thread_data.obj
 0004:00001e30       $pdata$?fin$0@?0???$?RV<lambda_74a0ef281e44d15e1136f792f539efb3>@@AEAV<lambda_e157831efee4ea0afb0a2ace5dd5fd0d>@@V<lambda_04ddeca75b7c13fd67716e8dfcef87ee>@@@?$__crt_seh_guarded_call@X@@QEAAX$$QEAV<lambda_74a0ef281e44d15e1136f792f539efb3>@@AEAV<lambda_e157831efee4ea0afb0a2ace5dd5fd0d>@@$$QEAV<lambda_04ddeca75b7c13fd67716e8dfcef87ee>@@@Z@4HA 0000000140058e30     libucrtd:per_thread_data.obj
 0004:00001e3c       $pdata$??R<lambda_2d41944a1d46af3157314b8a01080d33>@@QEBAXXZ 0000000140058e3c     libucrtd:per_thread_data.obj
 0004:00001e48       $pdata$??R<lambda_aa500f224e6afead328df44964fe2772>@@QEBAXXZ 0000000140058e48     libucrtd:per_thread_data.obj
 0004:00001e54       $pdata$??$?RV<lambda_2d41944a1d46af3157314b8a01080d33>@@AEAV<lambda_8f455de75cd7d7f24b4096f044d8b9e6>@@V<lambda_aa500f224e6afead328df44964fe2772>@@@?$__crt_seh_guarded_call@X@@QEAAX$$QEAV<lambda_2d41944a1d46af3157314b8a01080d33>@@AEAV<lambda_8f455de75cd7d7f24b4096f044d8b9e6>@@$$QEAV<lambda_aa500f224e6afead328df44964fe2772>@@@Z 0000000140058e54     libucrtd:per_thread_data.obj
 0004:00001e60       $pdata$?fin$0@?0???$?RV<lambda_2d41944a1d46af3157314b8a01080d33>@@AEAV<lambda_8f455de75cd7d7f24b4096f044d8b9e6>@@V<lambda_aa500f224e6afead328df44964fe2772>@@@?$__crt_seh_guarded_call@X@@QEAAX$$QEAV<lambda_2d41944a1d46af3157314b8a01080d33>@@AEAV<lambda_8f455de75cd7d7f24b4096f044d8b9e6>@@$$QEAV<lambda_aa500f224e6afead328df44964fe2772>@@@Z@4HA 0000000140058e60     libucrtd:per_thread_data.obj
 0004:00001e6c       $pdata$_invalid_parameter  0000000140058e6c     libucrtd:invalid_parameter.obj
 0004:00001e78       $pdata$_invalid_parameter_noinfo 0000000140058e78     libucrtd:invalid_parameter.obj
 0004:00001e84       $pdata$_invoke_watson      0000000140058e84     libucrtd:invalid_parameter.obj
 0004:00001e90       $pdata$__acrt_call_reportfault 0000000140058e90     libucrtd:invalid_parameter.obj
 0004:00001e9c       $pdata$__acrt_initialize_invalid_parameter_handler 0000000140058e9c     libucrtd:invalid_parameter.obj
 0004:00001ea8       $pdata$_invalid_parameter_internal 0000000140058ea8     libucrtd:invalid_parameter.obj
 0004:00001eb4       $pdata$?get_current_global_state_index@__crt_cached_ptd_host@@QEAA_KXZ 0000000140058eb4     libucrtd:invalid_parameter.obj
 0004:00001ec0       $pdata$?get_raw_ptd_noexit@__crt_cached_ptd_host@@QEAAPEAU__acrt_ptd@@XZ 0000000140058ec0     libucrtd:invalid_parameter.obj
 0004:00001ecc       $pdata$?try_synchronize_per_thread_data@__crt_cached_ptd_host@@AEAAPEAU__acrt_ptd@@XZ 0000000140058ecc     libucrtd:invalid_parameter.obj
 0004:00001ed8       $pdata$?check_synchronize_global_state_index@__crt_cached_ptd_host@@AEAA_KXZ 0000000140058ed8     libucrtd:invalid_parameter.obj
 0004:00001ee4       $pdata$?value@?$dual_state_global@P6AXPEB_W00I_K@Z@__crt_state_management@@QEAAAEAP6AXPEB_W00I_K@ZAEAV__crt_cached_ptd_host@@@Z 0000000140058ee4     libucrtd:invalid_parameter.obj
 0004:00001ef0       $pdata$?capture_current_context@@YAXQEAU_CONTEXT@@@Z 0000000140058ef0     libucrtd:invalid_parameter.obj
 0004:00001efc       $pdata$??$initialize_from_array@$$BY00Q6AXPEB_W00I_K@Z@?$dual_state_global@P6AXPEB_W00I_K@Z@__crt_state_management@@QEAAXAEAY00Q6AXPEB_W00I_K@Z@Z 0000000140058efc     libucrtd:invalid_parameter.obj
 0004:00001f08       $pdata$??$__crt_fast_decode_pointer@P6AXPEB_W00I_K@Z@@YAP6AXPEB_W00I_K@ZQ6AX000I1@Z@Z 0000000140058f08     libucrtd:invalid_parameter.obj
 0004:00001f14       $pdata$_set_error_mode     0000000140058f14     libucrtd:set_error_mode.obj
 0004:00001f20       $pdata$wcscat_s            0000000140058f20     libucrtd:wcscat_s.obj
 0004:00001f2c       $pdata$??$common_tcscat_s@_W@@YAHQEA_W_KQEB_W@Z 0000000140058f2c     libucrtd:wcscat_s.obj
 0004:00001f38       $pdata$wcscpy_s            0000000140058f38     libucrtd:wcscpy_s.obj
 0004:00001f44       $pdata$??$common_tcscpy_s@_W@@YAHQEA_W_KQEB_W@Z 0000000140058f44     libucrtd:wcscpy_s.obj
 0004:00001f50       $pdata$wcsncpy_s           0000000140058f50     libucrtd:wcsncpy_s.obj
 0004:00001f5c       $pdata$??$common_tcsncpy_s@_W@@YAHQEA_W_KQEB_W1@Z 0000000140058f5c     libucrtd:wcsncpy_s.obj
 0004:00001f68       $pdata$wcslen              0000000140058f68     libucrtd:strnlen.obj
 0004:00001f74       $pdata$wcsnlen             0000000140058f74     libucrtd:strnlen.obj
 0004:00001f80       $pdata$strnlen             0000000140058f80     libucrtd:strnlen.obj
 0004:00001f8c       $pdata$?get_zero_pack@?$__crt_simd_pack_traits@$0A@@@SA?AT__m128i@@XZ 0000000140058f8c     libucrtd:strnlen.obj
 0004:00001f98       $pdata$?compare_equals@?$__crt_simd_traits@$0A@E@@SA?AT__m128i@@T2@0@Z 0000000140058f98     libucrtd:strnlen.obj
 0004:00001fa4       $pdata$?compare_equals@?$__crt_simd_traits@$0A@G@@SA?AT__m128i@@T2@0@Z 0000000140058fa4     libucrtd:strnlen.obj
 0004:00001fb0       $pdata$?get_zero_pack@?$__crt_simd_pack_traits@$00@@SA?AT__m256i@@XZ 0000000140058fb0     libucrtd:strnlen.obj
 0004:00001fbc       $pdata$?compare_equals@?$__crt_simd_traits@$00E@@SA?AT__m256i@@T2@0@Z 0000000140058fbc     libucrtd:strnlen.obj
 0004:00001fc8       $pdata$?compare_equals@?$__crt_simd_traits@$00G@@SA?AT__m256i@@T2@0@Z 0000000140058fc8     libucrtd:strnlen.obj
 0004:00001fd4       $pdata$??$common_strnlen@$0A@E@@YA_KQEBE_K@Z 0000000140058fd4     libucrtd:strnlen.obj
 0004:00001fe0       $pdata$??$common_strnlen@$0A@G@@YA_KQEBG_K@Z 0000000140058fe0     libucrtd:strnlen.obj
 0004:00001fec       $pdata$??$common_strnlen@$00G@@YA_KQEBG_K@Z 0000000140058fec     libucrtd:strnlen.obj
 0004:00001ff8       $pdata$??$common_strnlen_simd@$0A@$00E@@YA_KQEBE_K@Z 0000000140058ff8     libucrtd:strnlen.obj
 0004:00002004       $pdata$??$common_strnlen_simd@$0A@$0A@E@@YA_KQEBE_K@Z 0000000140059004     libucrtd:strnlen.obj
 0004:00002010       $pdata$??$common_strnlen_c@$0A@E@@YA_KQEBE_K@Z 0000000140059010     libucrtd:strnlen.obj
 0004:0000201c       $pdata$??$common_strnlen_simd@$0A@$00G@@YA_KQEBG_K@Z 000000014005901c     libucrtd:strnlen.obj
 0004:00002028       $pdata$??$common_strnlen_simd@$0A@$0A@G@@YA_KQEBG_K@Z 0000000140059028     libucrtd:strnlen.obj
 0004:00002034       $pdata$??$common_strnlen_c@$0A@G@@YA_KQEBG_K@Z 0000000140059034     libucrtd:strnlen.obj
 0004:00002040       $pdata$??$common_strnlen_simd@$00$00G@@YA_KQEBG_K@Z 0000000140059040     libucrtd:strnlen.obj
 0004:0000204c       $pdata$??$common_strnlen_simd@$00$0A@G@@YA_KQEBG_K@Z 000000014005904c     libucrtd:strnlen.obj
 0004:00002058       $pdata$??$common_strnlen_c@$00G@@YA_KQEBG_K@Z 0000000140059058     libucrtd:strnlen.obj
 0004:00002064       $pdata$??$last_reached@$0A@@@YA_NQEBX0@Z 0000000140059064     libucrtd:strnlen.obj
 0004:00002070       $pdata$__acrt_show_wide_message_box 0000000140059070     libucrtd:crtmbox.obj
 0004:0000207c       $pdata$??$common_show_message_box@_W@@YAHQEB_W0I@Z 000000014005907c     libucrtd:crtmbox.obj
 0004:00002088       $pdata$??$output_debug_string@AEBQEB_W@?$__crt_char_traits@_W@@SAXAEBQEB_W@Z 0000000140059088     libucrtd:crtmbox.obj
 0004:00002094       $pdata$??$message_box@$$TAEBQEB_WAEBQEB_WK@?$__crt_char_traits@_W@@SAH$$QEA$$TAEBQEB_W1$$QEAK@Z 0000000140059094     libucrtd:crtmbox.obj
 0004:000020a0       $pdata$??$message_box@PEAUHWND__@@AEBQEB_WAEBQEB_WAEBI@?$__crt_char_traits@_W@@SAH$$QEAPEAUHWND__@@AEBQEB_W1AEBI@Z 00000001400590a0     libucrtd:crtmbox.obj
 0004:000020ac       $pdata$_errno              00000001400590ac     libucrtd:errno.obj
 0004:000020b8       $pdata$__doserrno          00000001400590b8     libucrtd:errno.obj
 0004:000020c4       $pdata$__acrt_errno_map_os_error 00000001400590c4     libucrtd:errno.obj
 0004:000020d0       $pdata$__acrt_errno_from_os_error 00000001400590d0     libucrtd:errno.obj
 0004:000020dc       $pdata$__acrt_errno_map_os_error_ptd 00000001400590dc     libucrtd:errno.obj
 0004:000020e8       $pdata$?strpbrk@@YAPEADQEADQEBD@Z 00000001400590e8     libucrtd:argv_wildcards.obj
 0004:000020f4       $pdata$__acrt_expand_narrow_argv_wildcards 00000001400590f4     libucrtd:argv_wildcards.obj
 0004:00002100       $pdata$?close@__crt_findfile_traits@@SA_NPEAX@Z 0000000140059100     libucrtd:argv_wildcards.obj
 0004:0000210c       $pdata$?allocate@__crt_win32_buffer_internal_dynamic_resizing@@SAHQEAPEAX_KAEBV__crt_win32_buffer_empty_debug_info@@@Z 000000014005910c     libucrtd:argv_wildcards.obj
 0004:00002118       $pdata$?deallocate@__crt_win32_buffer_internal_dynamic_resizing@@SAXQEAXAEBV__crt_win32_buffer_empty_debug_info@@@Z 0000000140059118     libucrtd:argv_wildcards.obj
 0004:00002124       $pdata$?__acrt_get_utf8_acp_compatibility_codepage@@YAIXZ 0000000140059124     libucrtd:argv_wildcards.obj
 0004:00002130       $pdata$?previous_character@@YAPEADQEAD0@Z 0000000140059130     libucrtd:argv_wildcards.obj
 0004:0000213c       $pdata$?get_wide@@YAPEA_WQEAV?$__crt_win32_buffer@_WU__crt_win32_buffer_internal_dynamic_resizing@@@@QEAD@Z 000000014005913c     libucrtd:argv_wildcards.obj
 0004:00002148       $pdata$??1?$__crt_win32_buffer@_WU__crt_win32_buffer_internal_dynamic_resizing@@@@QEAA@XZ 0000000140059148     libucrtd:argv_wildcards.obj
 0004:00002154       $pdata$?allocate@?$__crt_win32_buffer@_WU__crt_win32_buffer_internal_dynamic_resizing@@@@QEAAH_K@Z 0000000140059154     libucrtd:argv_wildcards.obj
 0004:00002160       $pdata$?set_to_nullptr@?$__crt_win32_buffer@_WU__crt_win32_buffer_internal_dynamic_resizing@@@@QEAAXXZ 0000000140059160     libucrtd:argv_wildcards.obj
 0004:0000216c       $pdata$?_deallocate@?$__crt_win32_buffer@_WU__crt_win32_buffer_internal_dynamic_resizing@@@@AEAAXXZ 000000014005916c     libucrtd:argv_wildcards.obj
 0004:00002178       $pdata$??$__acrt_mbs_to_wcs_cp@U__crt_win32_buffer_internal_dynamic_resizing@@@@YAHQEBDAEAV?$__crt_win32_buffer@_WU__crt_win32_buffer_internal_dynamic_resizing@@@@I@Z 0000000140059178     libucrtd:argv_wildcards.obj
 0004:00002184       $pdata$?get_file_name@@YAPEADQEAV?$__crt_win32_buffer@DU__crt_win32_buffer_internal_dynamic_resizing@@@@QEA_W@Z 0000000140059184     libucrtd:argv_wildcards.obj
 0004:00002190       $pdata$??1?$__crt_win32_buffer@DU__crt_win32_buffer_internal_dynamic_resizing@@@@QEAA@XZ 0000000140059190     libucrtd:argv_wildcards.obj
 0004:0000219c       $pdata$?allocate@?$__crt_win32_buffer@DU__crt_win32_buffer_internal_dynamic_resizing@@@@QEAAH_K@Z 000000014005919c     libucrtd:argv_wildcards.obj
 0004:000021a8       $pdata$?set_to_nullptr@?$__crt_win32_buffer@DU__crt_win32_buffer_internal_dynamic_resizing@@@@QEAAXXZ 00000001400591a8     libucrtd:argv_wildcards.obj
 0004:000021b4       $pdata$?_deallocate@?$__crt_win32_buffer@DU__crt_win32_buffer_internal_dynamic_resizing@@@@AEAAXXZ 00000001400591b4     libucrtd:argv_wildcards.obj
 0004:000021c0       $pdata$??$__acrt_wcs_to_mbs_cp@U__crt_win32_buffer_internal_dynamic_resizing@@@@YAHQEB_WAEAV?$__crt_win32_buffer@DU__crt_win32_buffer_internal_dynamic_resizing@@@@I@Z 00000001400591c0     libucrtd:argv_wildcards.obj
 0004:000021cc       $pdata$??$common_expand_argv_wildcards@D@@YAHQEAPEADQEAPEAPEAD@Z 00000001400591cc     libucrtd:argv_wildcards.obj
 0004:000021d8       $pdata$??R<lambda_7c9dea7b4ca7285d2cdb541a38da6275>@@QEBAHIQEBDQEA_W_K@Z 00000001400591d8     libucrtd:argv_wildcards.obj
 0004:000021e4       $pdata$??$__acrt_convert_wcs_mbs_cp@D_WV<lambda_7c9dea7b4ca7285d2cdb541a38da6275>@@U__crt_win32_buffer_internal_dynamic_resizing@@@@YAHQEBDAEAV?$__crt_win32_buffer@_WU__crt_win32_buffer_internal_dynamic_resizing@@@@AEBV<lambda_7c9dea7b4ca7285d2cdb541a38da6275>@@I@Z 00000001400591e4     libucrtd:argv_wildcards.obj
 0004:000021f0       $pdata$??R<lambda_d8593a27d1aa8c02be35c86a17d324c4>@@QEBAHIQEB_WQEAD_K@Z 00000001400591f0     libucrtd:argv_wildcards.obj
 0004:000021fc       $pdata$??$__acrt_convert_wcs_mbs_cp@_WDV<lambda_d8593a27d1aa8c02be35c86a17d324c4>@@U__crt_win32_buffer_internal_dynamic_resizing@@@@YAHQEB_WAEAV?$__crt_win32_buffer@DU__crt_win32_buffer_internal_dynamic_resizing@@@@AEBV<lambda_d8593a27d1aa8c02be35c86a17d324c4>@@I@Z 00000001400591fc     libucrtd:argv_wildcards.obj
 0004:00002208       $pdata$?append@?$argument_list@D@?A0x5f5c8891@@QEAAHQEAD@Z 0000000140059208     libucrtd:argv_wildcards.obj
 0004:00002214       $pdata$??1?$argument_list@D@?A0x5f5c8891@@QEAA@XZ 0000000140059214     libucrtd:argv_wildcards.obj
 0004:00002220       $pdata$?expand_if_necessary@?$argument_list@D@?A0x5f5c8891@@AEAAHXZ 0000000140059220     libucrtd:argv_wildcards.obj
 0004:0000222c       $pdata$??$tcspbrk@AEAPEADAEAY02$$CBD@?$__crt_char_traits@D@@SAPEADAEAPEADAEAY02$$CBD@Z 000000014005922c     libucrtd:argv_wildcards.obj
 0004:00002238       $pdata$??$copy_and_add_argument_to_buffer@D@@YAHQEBD0_KAEAV?$argument_list@D@?A0x5f5c8891@@@Z 0000000140059238     libucrtd:argv_wildcards.obj
 0004:00002244       $pdata$??$expand_argument_wildcards@D@@YAHQEAD0AEAV?$argument_list@D@?A0x5f5c8891@@@Z 0000000140059244     libucrtd:argv_wildcards.obj
 0004:00002250       $pdata$??$tcsncpy_s@AEAPEAD_KAEAPEADAEB_K@?$__crt_char_traits@D@@SAHAEAPEAD$$QEA_K0AEB_K@Z 0000000140059250     libucrtd:argv_wildcards.obj
 0004:0000225c       $pdata$??$tcsncpy_s@PEADAEB_KAEBQEBDAEB_K@?$__crt_char_traits@D@@SAH$$QEAPEADAEB_KAEBQEBD1@Z 000000014005925c     libucrtd:argv_wildcards.obj
 0004:00002268       $pdata$??$tcsncpy_s@PEAD_KAEBQEBDAEB_K@?$__crt_char_traits@D@@SAH$$QEAPEAD$$QEA_KAEBQEBDAEB_K@Z 0000000140059268     libucrtd:argv_wildcards.obj
 0004:00002274       $pdata$??R<lambda_cfae5a0e6efa98e0d1aa03c4cec8f74e>@@QEBA_ND@Z 0000000140059274     libucrtd:argv_wildcards.obj
 0004:00002280       $pdata$??1?$__crt_unique_handle_t@U__crt_findfile_traits@@@@QEAA@XZ 0000000140059280     libucrtd:argv_wildcards.obj
 0004:0000228c       $pdata$?close@?$__crt_unique_handle_t@U__crt_findfile_traits@@@@QEAAXXZ 000000014005928c     libucrtd:argv_wildcards.obj
 0004:00002298       $pdata$?<lambda_invoker_cdecl>@<lambda_a1ce4c8ae42411fd470c77163914f50e>@@CAHPEBX0@Z 0000000140059298     libucrtd:argv_wildcards.obj
 0004:000022a4       $pdata$__acrt_GetModuleFileNameA 00000001400592a4     libucrtd:getmodulefilenamea.obj
 0004:000022b0       $pdata$?allocate@__crt_win32_buffer_no_resizing@@SAHQEAPEAX_KAEBV__crt_win32_buffer_empty_debug_info@@@Z 00000001400592b0     libucrtd:getmodulefilenamea.obj
 0004:000022bc       $pdata$??1?$__crt_win32_buffer@DU__crt_win32_buffer_no_resizing@@@@QEAA@XZ 00000001400592bc     libucrtd:getmodulefilenamea.obj
 0004:000022c8       $pdata$?allocate@?$__crt_win32_buffer@DU__crt_win32_buffer_no_resizing@@@@QEAAH_K@Z 00000001400592c8     libucrtd:getmodulefilenamea.obj
 0004:000022d4       $pdata$?set_to_nullptr@?$__crt_win32_buffer@DU__crt_win32_buffer_no_resizing@@@@QEAAXXZ 00000001400592d4     libucrtd:getmodulefilenamea.obj
 0004:000022e0       $pdata$?_deallocate@?$__crt_win32_buffer@DU__crt_win32_buffer_no_resizing@@@@AEAAXXZ 00000001400592e0     libucrtd:getmodulefilenamea.obj
 0004:000022ec       $pdata$??$__acrt_wcs_to_mbs_cp@U__crt_win32_buffer_no_resizing@@@@YAHQEB_WAEAV?$__crt_win32_buffer@DU__crt_win32_buffer_no_resizing@@@@I@Z 00000001400592ec     libucrtd:getmodulefilenamea.obj
 0004:000022f8       $pdata$??R<lambda_f788ae46380686e8b737efdd8c720d07>@@QEBAHIQEB_WQEAD_K@Z 00000001400592f8     libucrtd:getmodulefilenamea.obj
 0004:00002304       $pdata$??$__acrt_convert_wcs_mbs_cp@_WDV<lambda_f788ae46380686e8b737efdd8c720d07>@@U__crt_win32_buffer_no_resizing@@@@YAHQEB_WAEAV?$__crt_win32_buffer@DU__crt_win32_buffer_no_resizing@@@@AEBV<lambda_f788ae46380686e8b737efdd8c720d07>@@I@Z 0000000140059304     libucrtd:getmodulefilenamea.obj
 0004:00002310       $pdata$memcpy_s            0000000140059310     libucrtd:mbctype.obj
 0004:0000231c       $pdata$__acrt_update_thread_multibyte_data 000000014005931c     libucrtd:mbctype.obj
 0004:00002328       $pdata$__acrt_initialize_multibyte 0000000140059328     libucrtd:mbctype.obj
 0004:00002334       $pdata$__acrt_should_sync_with_global_locale 0000000140059334     libucrtd:mbctype.obj
 0004:00002340       $pdata$?value@?$dual_state_global@PEAE@__crt_state_management@@QEAAAEAPEAEXZ 0000000140059340     libucrtd:mbctype.obj
 0004:0000234c       $pdata$?value@?$dual_state_global@PEAU__crt_multibyte_data@@@__crt_state_management@@QEAAAEAPEAU__crt_multibyte_data@@XZ 000000014005934c     libucrtd:mbctype.obj
 0004:00002358       $pdata$?initialize@?$dual_state_global@PEAU__crt_multibyte_data@@@__crt_state_management@@QEAAXQEAU__crt_multibyte_data@@@Z 0000000140059358     libucrtd:mbctype.obj
 0004:00002364       $pdata$_setmbcp_nolock     0000000140059364     libucrtd:mbctype.obj
 0004:00002370       $pdata$?getSystemCP@@YAHH@Z 0000000140059370     libucrtd:mbctype.obj
 0004:0000237c       $pdata$?setSBCS@@YAXPEAU__crt_multibyte_data@@@Z 000000014005937c     libucrtd:mbctype.obj
 0004:00002388       $pdata$?update_thread_multibyte_data_internal@@YAPEAU__crt_multibyte_data@@QEAU__acrt_ptd@@QEAPEAU1@@Z 0000000140059388     libucrtd:mbctype.obj
 0004:00002394       $pdata$?fin$0@?0??update_thread_multibyte_data_internal@@YAPEAU__crt_multibyte_data@@QEAU__acrt_ptd@@QEAPEAU1@@Z@4HA 0000000140059394     libucrtd:mbctype.obj
 0004:000023a0       $pdata$?setmbcp_internal@@YAHH_NQEAU__acrt_ptd@@QEAPEAU__crt_multibyte_data@@@Z 00000001400593a0     libucrtd:mbctype.obj
 0004:000023ac       $pdata$??R<lambda_bd5a608237428601b7e45fbdc72b1ae8>@@QEBAXXZ 00000001400593ac     libucrtd:mbctype.obj
 0004:000023b8       $pdata$??$__acrt_lock_and_call@V<lambda_bd5a608237428601b7e45fbdc72b1ae8>@@@@YAXW4__acrt_lock_id@@$$QEAV<lambda_bd5a608237428601b7e45fbdc72b1ae8>@@@Z 00000001400593b8     libucrtd:mbctype.obj
 0004:000023c4       $pdata$?CPtoLocaleName@@YAPEB_WH@Z 00000001400593c4     libucrtd:mbctype.obj
 0004:000023d0       $pdata$?setSBUpLow@@YAXPEAU__crt_multibyte_data@@@Z 00000001400593d0     libucrtd:mbctype.obj
 0004:000023dc       $pdata$??$initialize_from_array@$$BY10BAA@E@?$dual_state_global@PEAE@__crt_state_management@@QEAAXAEAY10BAA@E@Z 00000001400593dc     libucrtd:mbctype.obj
 0004:000023e8       $pdata$??$initialize_from_array@$$BY10BAB@E@?$dual_state_global@PEAE@__crt_state_management@@QEAAXAEAY10BAB@E@Z 00000001400593e8     libucrtd:mbctype.obj
 0004:000023f4       $pdata$??R<lambda_efa02eb69bf647d2f7ff0dd6f1103f72>@@QEBAXXZ 00000001400593f4     libucrtd:mbctype.obj
 0004:00002400       $pdata$??R<lambda_728235dc0fc2b1f82d1fa5b3e7102d8f>@@QEBAXXZ 0000000140059400     libucrtd:mbctype.obj
 0004:0000240c       $pdata$??$?RV<lambda_efa02eb69bf647d2f7ff0dd6f1103f72>@@AEAV<lambda_bd5a608237428601b7e45fbdc72b1ae8>@@V<lambda_728235dc0fc2b1f82d1fa5b3e7102d8f>@@@?$__crt_seh_guarded_call@X@@QEAAX$$QEAV<lambda_efa02eb69bf647d2f7ff0dd6f1103f72>@@AEAV<lambda_bd5a608237428601b7e45fbdc72b1ae8>@@$$QEAV<lambda_728235dc0fc2b1f82d1fa5b3e7102d8f>@@@Z 000000014005940c     libucrtd:mbctype.obj
 0004:00002418       $pdata$?fin$0@?0???$?RV<lambda_efa02eb69bf647d2f7ff0dd6f1103f72>@@AEAV<lambda_bd5a608237428601b7e45fbdc72b1ae8>@@V<lambda_728235dc0fc2b1f82d1fa5b3e7102d8f>@@@?$__crt_seh_guarded_call@X@@QEAAX$$QEAV<lambda_efa02eb69bf647d2f7ff0dd6f1103f72>@@AEAV<lambda_bd5a608237428601b7e45fbdc72b1ae8>@@$$QEAV<lambda_728235dc0fc2b1f82d1fa5b3e7102d8f>@@@Z@4HA 0000000140059418     libucrtd:mbctype.obj
 0004:00002424       $pdata$_ismbblead          0000000140059424     libucrtd:ismbbyte.obj
 0004:00002430       $pdata$?x_ismbbtype_l@@YAHPEAU__crt_locale_pointers@@IHH@Z 0000000140059430     libucrtd:ismbbyte.obj
 0004:0000243c       $pdata$__acrt_initialize_command_line 000000014005943c     libucrtd:argv_data.obj
 0004:00002448       $pdata$__acrt_MultiByteToWideChar 0000000140059448     libucrtd:multibytetowidechar.obj
 0004:00002454       $pdata$?filter_mbtowcs_flags@@YAKIK@Z 0000000140059454     libucrtd:multibytetowidechar.obj
 0004:00002460       $pdata$__acrt_WideCharToMultiByte 0000000140059460     libucrtd:widechartomultibyte.obj
 0004:0000246c       $pdata$?filter_wcstomb_flags@@YAKIK@Z 000000014005946c     libucrtd:widechartomultibyte.obj
 0004:00002478       $pdata$__dcrt_get_narrow_environment_from_os 0000000140059478     libucrtd:get_environment_from_os.obj
 0004:00002484       $pdata$?close@environment_strings_traits@?A0x1bf47908@@SA_NPEA_W@Z 0000000140059484     libucrtd:get_environment_from_os.obj
 0004:00002490       $pdata$?find_end_of_double_null_terminated_sequence@@YAPEB_WQEB_W@Z 0000000140059490     libucrtd:get_environment_from_os.obj
 0004:0000249c       $pdata$??1?$__crt_unique_handle_t@Uenvironment_strings_traits@?A0x1bf47908@@@@QEAA@XZ 000000014005949c     libucrtd:get_environment_from_os.obj
 0004:000024a8       $pdata$?close@?$__crt_unique_handle_t@Uenvironment_strings_traits@?A0x1bf47908@@@@QEAAXXZ 00000001400594a8     libucrtd:get_environment_from_os.obj
 0004:000024b4       $pdata$?is_valid@?$__crt_unique_handle_t@Uenvironment_strings_traits@?A0x1bf47908@@@@QEBA_NXZ 00000001400594b4     libucrtd:get_environment_from_os.obj
 0004:000024c0       $pdata$__acrt_initialize_locks 00000001400594c0     libucrtd:locks.obj
 0004:000024cc       $pdata$__acrt_uninitialize_locks 00000001400594cc     libucrtd:locks.obj
 0004:000024d8       $pdata$__acrt_lock         00000001400594d8     libucrtd:locks.obj
 0004:000024e4       $pdata$__acrt_unlock       00000001400594e4     libucrtd:locks.obj
 0004:000024f0       $pdata$__acrt_get_process_end_policy 00000001400594f0     libucrtd:win_policies.obj
 0004:000024fc       $pdata$__acrt_get_developer_information_policy 00000001400594fc     libucrtd:win_policies.obj
 0004:00002508       $pdata$__acrt_get_windowing_model_policy 0000000140059508     libucrtd:win_policies.obj
 0004:00002514       $pdata$?appmodel_get_policy@process_end_policy_properties@?1??__acrt_get_process_end_policy@@YA?AW4process_end_policy@@XZ@SAJPEAW4AppPolicyProcessTerminationMethod@@@Z 0000000140059514     libucrtd:win_policies.obj
 0004:00002520       $pdata$??$get_win_policy@Uprocess_end_policy_properties@?1??__acrt_get_process_end_policy@@YA?AW4process_end_policy@@XZ@@@YA?AW4process_end_policy@@W4AppPolicyProcessTerminationMethod@@@Z 0000000140059520     libucrtd:win_policies.obj
 0004:0000252c       $pdata$?appmodel_get_policy@developer_information_policy_properties@?1??__acrt_get_developer_information_policy@@YA?AW4developer_information_policy@@XZ@SAJPEAW4AppPolicyShowDeveloperDiagnostic@@@Z 000000014005952c     libucrtd:win_policies.obj
 0004:00002538       $pdata$??$get_cached_win_policy@Udeveloper_information_policy_properties@?1??__acrt_get_developer_information_policy@@YA?AW4developer_information_policy@@XZ@@@YA?AW4developer_information_policy@@W4AppPolicyShowDeveloperDiagnostic@@@Z 0000000140059538     libucrtd:win_policies.obj
 0004:00002544       $pdata$?appmodel_policy_to_policy_type@windowing_model_policy_properties@?1??__acrt_get_windowing_model_policy@@YA?AW4windowing_model_policy@@XZ@SA?AW43@J@Z 0000000140059544     libucrtd:win_policies.obj
 0004:00002550       $pdata$?appmodel_get_policy@windowing_model_policy_properties@?1??__acrt_get_windowing_model_policy@@YA?AW4windowing_model_policy@@XZ@SAJPEAW4AppPolicyWindowingModel@@@Z 0000000140059550     libucrtd:win_policies.obj
 0004:0000255c       $pdata$??$get_cached_win_policy@Uwindowing_model_policy_properties@?1??__acrt_get_windowing_model_policy@@YA?AW4windowing_model_policy@@XZ@@@YA?AW4windowing_model_policy@@W4AppPolicyWindowingModel@@@Z 000000014005955c     libucrtd:win_policies.obj
 0004:00002568       $pdata$_get_osfhandle      0000000140059568     libucrtd:osfinfo.obj
 0004:00002574       $pdata$_free_osfhnd        0000000140059574     libucrtd:osfinfo.obj
 0004:00002580       $pdata$__acrt_lowio_create_handle_array 0000000140059580     libucrtd:osfinfo.obj
 0004:0000258c       $pdata$__acrt_lowio_destroy_handle_array 000000014005958c     libucrtd:osfinfo.obj
 0004:00002598       $pdata$__acrt_lowio_ensure_fh_exists 0000000140059598     libucrtd:osfinfo.obj
 0004:000025a4       $pdata$__acrt_lowio_ensure_fh_exists$fin$0 00000001400595a4     libucrtd:osfinfo.obj
 0004:000025b0       $pdata$__acrt_lowio_lock_fh 00000001400595b0     libucrtd:osfinfo.obj
 0004:000025bc       $pdata$__acrt_lowio_unlock_fh 00000001400595bc     libucrtd:osfinfo.obj
 0004:000025c8       $pdata$??1?$__crt_unique_heap_ptr@U__crt_lowio_handle_data@@U__crt_internal_free_policy@@@@QEAA@XZ 00000001400595c8     libucrtd:osfinfo.obj
 0004:000025d4       $pdata$?detach@?$__crt_unique_heap_ptr@U__crt_lowio_handle_data@@U__crt_internal_free_policy@@@@QEAAPEAU__crt_lowio_handle_data@@XZ 00000001400595d4     libucrtd:osfinfo.obj
 0004:000025e0       $pdata$?release@?$__crt_unique_heap_ptr@U__crt_lowio_handle_data@@U__crt_internal_free_policy@@@@QEAAXXZ 00000001400595e0     libucrtd:osfinfo.obj
 0004:000025ec       $pdata$?is_valid@?$__crt_unique_heap_ptr@U__crt_lowio_handle_data@@U__crt_internal_free_policy@@@@QEBA_NXZ 00000001400595ec     libucrtd:osfinfo.obj
 0004:000025f8       $pdata$??B?$__crt_unique_heap_ptr@U__crt_lowio_handle_data@@U__crt_internal_free_policy@@@@QEBA_NXZ 00000001400595f8     libucrtd:osfinfo.obj
 0004:00002604       $pdata$??$?RU__crt_lowio_handle_data@@@__crt_internal_free_policy@@QEBAXQEBU__crt_lowio_handle_data@@@Z 0000000140059604     libucrtd:osfinfo.obj
 0004:00002610       $pdata$__acrt_initialize_fmode 0000000140059610     libucrtd:txtmode.obj
 0004:0000261c       $pdata$__acrt_initialize_lowio 000000014005961c     libucrtd:ioinit.obj
 0004:00002628       $pdata$__acrt_initialize_lowio$fin$0 0000000140059628     libucrtd:ioinit.obj
 0004:00002634       $pdata$__acrt_uninitialize_lowio 0000000140059634     libucrtd:ioinit.obj
 0004:00002640       $pdata$?get_std_handle_id@@YAKH@Z 0000000140059640     libucrtd:ioinit.obj
 0004:0000264c       $pdata$?initialize_inherited_file_handles_nolock@@YAXXZ 000000014005964c     libucrtd:ioinit.obj
 0004:00002658       $pdata$?initialize_stdio_handles_nolock@@YAXXZ 0000000140059658     libucrtd:ioinit.obj
 0004:00002664       $pdata$__acrt_locale_free_monetary 0000000140059664     libucrtd:initmon.obj
 0004:00002670       $pdata$__acrt_locale_free_numeric 0000000140059670     libucrtd:initnum.obj
 0004:0000267c       $pdata$__acrt_locale_free_time 000000014005967c     libucrtd:inittime.obj
 0004:00002688       $pdata$?free_crt_array_internal@@YAXQEAPEBX_K@Z 0000000140059688     libucrtd:inittime.obj
 0004:00002694       $pdata$??$free_crt_array@D$06@@YAXAEAY06PEAD@Z 0000000140059694     libucrtd:inittime.obj
 0004:000026a0       $pdata$??$free_crt_array@D$0M@@@YAXAEAY0M@PEAD@Z 00000001400596a0     libucrtd:inittime.obj
 0004:000026ac       $pdata$??$free_crt_array@D$01@@YAXAEAY01PEAD@Z 00000001400596ac     libucrtd:inittime.obj
 0004:000026b8       $pdata$??$free_crt_array@_W$06@@YAXAEAY06PEA_W@Z 00000001400596b8     libucrtd:inittime.obj
 0004:000026c4       $pdata$??$free_crt_array@_W$0M@@@YAXAEAY0M@PEA_W@Z 00000001400596c4     libucrtd:inittime.obj
 0004:000026d0       $pdata$??$free_crt_array@_W$01@@YAXAEAY01PEA_W@Z 00000001400596d0     libucrtd:inittime.obj
 0004:000026dc       $pdata$_isctype_l          00000001400596dc     libucrtd:isctype.obj
 0004:000026e8       $pdata$_chvalidator_l      00000001400596e8     libucrtd:isctype.obj
 0004:000026f4       $pdata$_isleadbyte_fast_internal 00000001400596f4     libucrtd:isctype.obj
 0004:00002700       $pdata$_MallocaComputeSize 0000000140059700     libucrtd:getstringtypea.obj
 0004:0000270c       $pdata$_freea_crt          000000014005970c     libucrtd:getstringtypea.obj
 0004:00002718       $pdata$__acrt_GetStringTypeA 0000000140059718     libucrtd:getstringtypea.obj
 0004:00002724       $pdata$??1?$__crt_scoped_stack_ptr@_W@@QEAA@XZ 0000000140059724     libucrtd:getstringtypea.obj
 0004:00002730       $pdata$__acrt_add_locale_ref 0000000140059730     libucrtd:locale_refcounting.obj
 0004:0000273c       $pdata$__acrt_release_locale_ref 000000014005973c     libucrtd:locale_refcounting.obj
 0004:00002748       $pdata$__acrt_free_locale  0000000140059748     libucrtd:locale_refcounting.obj
 0004:00002754       $pdata$__acrt_locale_free_lc_time_if_unreferenced 0000000140059754     libucrtd:locale_refcounting.obj
 0004:00002760       $pdata$__acrt_update_thread_locale_data 0000000140059760     libucrtd:locale_refcounting.obj
 0004:0000276c       $pdata$__acrt_update_thread_locale_data$fin$0 000000014005976c     libucrtd:locale_refcounting.obj
 0004:00002778       $pdata$_updatetlocinfoEx_nolock 0000000140059778     libucrtd:locale_refcounting.obj
 0004:00002784       $pdata$__acrt_initialize_winapi_thunks 0000000140059784     libucrtd:winapi_thunks.obj
 0004:00002790       $pdata$__acrt_uninitialize_winapi_thunks 0000000140059790     libucrtd:winapi_thunks.obj
 0004:0000279c       $pdata$__acrt_AreFileApisANSI 000000014005979c     libucrtd:winapi_thunks.obj
 0004:000027a8       $pdata$__acrt_FlsAlloc     00000001400597a8     libucrtd:winapi_thunks.obj
 0004:000027b4       $pdata$__acrt_FlsFree      00000001400597b4     libucrtd:winapi_thunks.obj
 0004:000027c0       $pdata$__acrt_FlsGetValue  00000001400597c0     libucrtd:winapi_thunks.obj
 0004:000027cc       $pdata$__acrt_FlsSetValue  00000001400597cc     libucrtd:winapi_thunks.obj
 0004:000027d8       $pdata$__acrt_InitializeCriticalSectionEx 00000001400597d8     libucrtd:winapi_thunks.obj
 0004:000027e4       $pdata$__acrt_LCMapStringEx 00000001400597e4     libucrtd:winapi_thunks.obj
 0004:000027f0       $pdata$__acrt_LocaleNameToLCID 00000001400597f0     libucrtd:winapi_thunks.obj
 0004:000027fc       $pdata$__acrt_MessageBoxW  00000001400597fc     libucrtd:winapi_thunks.obj
 0004:00002808       $pdata$__acrt_AppPolicyGetProcessTerminationMethodInternal 0000000140059808     libucrtd:winapi_thunks.obj
 0004:00002814       $pdata$__acrt_AppPolicyGetShowDeveloperDiagnosticInternal 0000000140059814     libucrtd:winapi_thunks.obj
 0004:00002820       $pdata$__acrt_AppPolicyGetWindowingModelInternal 0000000140059820     libucrtd:winapi_thunks.obj
 0004:0000282c       $pdata$__acrt_can_show_message_box 000000014005982c     libucrtd:winapi_thunks.obj
 0004:00002838       $pdata$__acrt_get_parent_window 0000000140059838     libucrtd:winapi_thunks.obj
 0004:00002844       $pdata$__acrt_is_interactive 0000000140059844     libucrtd:winapi_thunks.obj
 0004:00002850       $pdata$?try_load_library_from_system_directory@@YAPEAUHINSTANCE__@@QEB_W@Z 0000000140059850     libucrtd:winapi_thunks.obj
 0004:0000285c       $pdata$?try_get_module@@YAPEAUHINSTANCE__@@W4module_id@?A0x391cf84c@@@Z 000000014005985c     libucrtd:winapi_thunks.obj
 0004:00002868       $pdata$?try_get_first_available_module@@YAPEAUHINSTANCE__@@QEBW4module_id@?A0x391cf84c@@0@Z 0000000140059868     libucrtd:winapi_thunks.obj
 0004:00002874       $pdata$?try_get_proc_address_from_first_available_module@@YAPEAXQEBDQEBW4module_id@?A0x391cf84c@@1@Z 0000000140059874     libucrtd:winapi_thunks.obj
 0004:00002880       $pdata$?try_get_function@@YAPEAXW4function_id@?A0x391cf84c@@QEBDQEBW4module_id@2@2@Z 0000000140059880     libucrtd:winapi_thunks.obj
 0004:0000288c       $pdata$?try_get_AreFileApisANSI@@YAP6AHXZXZ 000000014005988c     libucrtd:winapi_thunks.obj
 0004:00002898       $pdata$?try_get_GetActiveWindow@@YAP6APEAUHWND__@@XZXZ 0000000140059898     libucrtd:winapi_thunks.obj
 0004:000028a4       $pdata$?try_get_GetLastActivePopup@@YAP6APEAUHWND__@@PEAU1@@ZXZ 00000001400598a4     libucrtd:winapi_thunks.obj
 0004:000028b0       $pdata$?try_get_GetProcessWindowStation@@YAP6APEAUHWINSTA__@@XZXZ 00000001400598b0     libucrtd:winapi_thunks.obj
 0004:000028bc       $pdata$?try_get_GetUserObjectInformationW@@YAP6AHPEAXH0KPEAK@ZXZ 00000001400598bc     libucrtd:winapi_thunks.obj
 0004:000028c8       $pdata$?try_get_InitializeCriticalSectionEx@@YAP6AHPEAU_RTL_CRITICAL_SECTION@@KK@ZXZ 00000001400598c8     libucrtd:winapi_thunks.obj
 0004:000028d4       $pdata$?try_get_LCMapStringEx@@YAP6AHPEB_WK0HPEA_WHPEAU_nlsversioninfo@@PEAX_J@ZXZ 00000001400598d4     libucrtd:winapi_thunks.obj
 0004:000028e0       $pdata$?try_get_LocaleNameToLCID@@YAP6AKPEB_WK@ZXZ 00000001400598e0     libucrtd:winapi_thunks.obj
 0004:000028ec       $pdata$?try_get_MessageBoxA@@YAP6AHPEAUHWND__@@PEBD1I@ZXZ 00000001400598ec     libucrtd:winapi_thunks.obj
 0004:000028f8       $pdata$?try_get_MessageBoxW@@YAP6AHPEAUHWND__@@PEB_W1I@ZXZ 00000001400598f8     libucrtd:winapi_thunks.obj
 0004:00002904       $pdata$?try_get_AppPolicyGetProcessTerminationMethod@@YAP6AJPEAXPEAW4AppPolicyProcessTerminationMethod@@@ZXZ 0000000140059904     libucrtd:winapi_thunks.obj
 0004:00002910       $pdata$?try_get_AppPolicyGetShowDeveloperDiagnostic@@YAP6AJPEAXPEAW4AppPolicyShowDeveloperDiagnostic@@@ZXZ 0000000140059910     libucrtd:winapi_thunks.obj
 0004:0000291c       $pdata$?try_get_AppPolicyGetWindowingModel@@YAP6AJPEAXPEAW4AppPolicyWindowingModel@@@ZXZ 000000014005991c     libucrtd:winapi_thunks.obj
 0004:00002928       $pdata$__acrt_initialize_heap 0000000140059928     libucrtd:heap_handle.obj
 0004:00002934       $pdata$__acrt_execute_initializers 0000000140059934     libucrtd:shared_initialization.obj
 0004:00002940       $pdata$__acrt_execute_uninitializers 0000000140059940     libucrtd:shared_initialization.obj
 0004:0000294c       $pdata$_callnewh           000000014005994c     libucrtd:new_handler.obj
 0004:00002958       $pdata$__acrt_initialize_new_handler 0000000140059958     libucrtd:new_handler.obj
 0004:00002964       $pdata$_query_new_handler  0000000140059964     libucrtd:new_handler.obj
 0004:00002970       $pdata$?value@?$dual_state_global@P6AH_K@Z@__crt_state_management@@QEAAAEAP6AH_K@ZXZ 0000000140059970     libucrtd:new_handler.obj
 0004:0000297c       $pdata$?initialize@?$dual_state_global@P6AH_K@Z@__crt_state_management@@QEAAXQ6AH_K@Z@Z 000000014005997c     libucrtd:new_handler.obj
 0004:00002988       $pdata$??$__crt_fast_decode_pointer@P6AH_K@Z@@YAP6AH_K@ZQ6AH0@Z@Z 0000000140059988     libucrtd:new_handler.obj
 0004:00002994       $pdata$__acrt_initialize_signal_handlers 0000000140059994     libucrtd:signal.obj
 0004:000029a0       $pdata$__acrt_get_sigabrt_handler 00000001400599a0     libucrtd:signal.obj
 0004:000029ac       $pdata$__fpecode           00000001400599ac     libucrtd:signal.obj
 0004:000029b8       $pdata$raise               00000001400599b8     libucrtd:signal.obj
 0004:000029c4       $pdata$raise$fin$0         00000001400599c4     libucrtd:signal.obj
 0004:000029d0       $pdata$?value@?$dual_state_global@P6AXH@Z@__crt_state_management@@QEAAAEAP6AXH@ZXZ 00000001400599d0     libucrtd:signal.obj
 0004:000029dc       $pdata$?initialize@?$dual_state_global@P6AXH@Z@__crt_state_management@@QEAAXQ6AXH@Z@Z 00000001400599dc     libucrtd:signal.obj
 0004:000029e8       $pdata$?get_global_action_nolock@@YAPEAP6AXH@ZH@Z 00000001400599e8     libucrtd:signal.obj
 0004:000029f4       $pdata$?siglookup@@YAPEAU__crt_signal_action_t@@HQEAU1@@Z 00000001400599f4     libucrtd:signal.obj
 0004:00002a00       $pdata$??$__crt_fast_decode_pointer@P6AXH@Z@@YAP6AXH@ZQ6AXH@Z@Z 0000000140059a00     libucrtd:signal.obj
 0004:00002a0c       $pdata$??$?B$$A6AXH@Z@__crt_fast_encoded_nullptr_t@@QEBAP6AXH@ZXZ 0000000140059a0c     libucrtd:signal.obj
 0004:00002a18       $pdata$??$__crt_fast_encode_pointer@P6AXH@Z@@YAP6AXH@ZQ6AXH@Z@Z 0000000140059a18     libucrtd:signal.obj
 0004:00002a24       $pdata$??R<lambda_44731a7d0e6d81c3e6aa82d741081786>@@QEBAP6AXH@ZXZ 0000000140059a24     libucrtd:signal.obj
 0004:00002a30       $pdata$??$__acrt_lock_and_call@V<lambda_44731a7d0e6d81c3e6aa82d741081786>@@@@YAP6AXH@ZW4__acrt_lock_id@@$$QEAV<lambda_44731a7d0e6d81c3e6aa82d741081786>@@@Z 0000000140059a30     libucrtd:signal.obj
 0004:00002a3c       $pdata$??R<lambda_450d765d439847d4c735a33c368b5fc0>@@QEBAXXZ 0000000140059a3c     libucrtd:signal.obj
 0004:00002a48       $pdata$??R<lambda_601a2a7da3b7a96e9554ac7215c4b07c>@@QEBAXXZ 0000000140059a48     libucrtd:signal.obj
 0004:00002a54       $pdata$??$?RV<lambda_450d765d439847d4c735a33c368b5fc0>@@AEAV<lambda_44731a7d0e6d81c3e6aa82d741081786>@@V<lambda_601a2a7da3b7a96e9554ac7215c4b07c>@@@?$__crt_seh_guarded_call@P6AXH@Z@@QEAAP6AXH@Z$$QEAV<lambda_450d765d439847d4c735a33c368b5fc0>@@AEAV<lambda_44731a7d0e6d81c3e6aa82d741081786>@@$$QEAV<lambda_601a2a7da3b7a96e9554ac7215c4b07c>@@@Z 0000000140059a54     libucrtd:signal.obj
 0004:00002a60       $pdata$?fin$0@?0???$?RV<lambda_450d765d439847d4c735a33c368b5fc0>@@AEAV<lambda_44731a7d0e6d81c3e6aa82d741081786>@@V<lambda_601a2a7da3b7a96e9554ac7215c4b07c>@@@?$__crt_seh_guarded_call@P6AXH@Z@@QEAAP6AXH@Z$$QEAV<lambda_450d765d439847d4c735a33c368b5fc0>@@AEAV<lambda_44731a7d0e6d81c3e6aa82d741081786>@@$$QEAV<lambda_601a2a7da3b7a96e9554ac7215c4b07c>@@@Z@4HA 0000000140059a60     libucrtd:signal.obj
 0004:00002a6c       $pdata$?has_any_of@__crt_stdio_stream@@QEBA_NJ@Z 0000000140059a6c     libucrtd:_sftbuf.obj
 0004:00002a78       $pdata$?set_flags@__crt_stdio_stream@@QEBA_NJ@Z 0000000140059a78     libucrtd:_sftbuf.obj
 0004:00002a84       $pdata$?unset_flags@__crt_stdio_stream@@QEBA_NJ@Z 0000000140059a84     libucrtd:_sftbuf.obj
 0004:00002a90       $pdata$_free_base          0000000140059a90     libucrtd:free_base.obj
 0004:00002a9c       $pdata$_realloc_base       0000000140059a9c     libucrtd:realloc_base.obj
 0004:00002aa8       $pdata$_expand_base        0000000140059aa8     libucrtd:expand.obj
 0004:00002ab4       $pdata$?is_contraction_possible@@YA_N_K@Z 0000000140059ab4     libucrtd:expand.obj
 0004:00002ac0       $pdata$__acrt_update_locale_info 0000000140059ac0     libucrtd:locale_update.obj
 0004:00002acc       $pdata$__acrt_update_multibyte_info 0000000140059acc     libucrtd:locale_update.obj
 0004:00002ad8       $pdata$__acrt_update_locale_info_explicit 0000000140059ad8     libucrtd:locale_update.obj
 0004:00002ae4       $pdata$__acrt_update_multibyte_info_explicit 0000000140059ae4     libucrtd:locale_update.obj
 0004:00002af0       $pdata$_VCrtDbgReportA     0000000140059af0     libucrtd:dbgrptt.obj
 0004:00002afc       $pdata$_VCrtDbgReportA$fin$0 0000000140059afc     libucrtd:dbgrptt.obj
 0004:00002b08       $pdata$_VCrtDbgReportA$fin$1 0000000140059b08     libucrtd:dbgrptt.obj
 0004:00002b14       $pdata$_VCrtDbgReportW     0000000140059b14     libucrtd:dbgrptt.obj
 0004:00002b20       $pdata$_VCrtDbgReportW$fin$0 0000000140059b20     libucrtd:dbgrptt.obj
 0004:00002b2c       $pdata$_VCrtDbgReportW$fin$1 0000000140059b2c     libucrtd:dbgrptt.obj
 0004:00002b38       $pdata$_vsnprintf_s_l      0000000140059b38     libucrtd:dbgrptt.obj
 0004:00002b44       $pdata$_vsnprintf_s        0000000140059b44     libucrtd:dbgrptt.obj
 0004:00002b50       $pdata$_snprintf_s         0000000140059b50     libucrtd:dbgrptt.obj
 0004:00002b5c       $pdata$?strrchr@@YAPEADQEADH@Z 0000000140059b5c     libucrtd:cvt.obj
 0004:00002b68       $pdata$?__acrt_fp_classify@@YA?AW4__acrt_fp_class@@AEBN@Z 0000000140059b68     libucrtd:cvt.obj
 0004:00002b74       $pdata$?__acrt_fp_is_negative@@YA_NAEBN@Z 0000000140059b74     libucrtd:cvt.obj
 0004:00002b80       $pdata$__acrt_fp_format    0000000140059b80     libucrtd:cvt.obj
 0004:00002b8c       $pdata$?shift_bytes@@YAXQEAD_K0H@Z 0000000140059b8c     libucrtd:cvt.obj
 0004:00002b98       $pdata$?fp_format_nan_or_infinity@@YAHW4__acrt_fp_class@@_NPEAD_K1@Z 0000000140059b98     libucrtd:cvt.obj
 0004:00002ba4       $pdata$?fp_format_e_internal@@YAHQEAD_KH_NIQEAU_strflt@@2AEAV__crt_cached_ptd_host@@@Z 0000000140059ba4     libucrtd:cvt.obj
 0004:00002bb0       $pdata$?fp_format_e@@YAHQEBNQEAD_K12H_NIW4__acrt_rounding_mode@@AEAV__crt_cached_ptd_host@@@Z 0000000140059bb0     libucrtd:cvt.obj
 0004:00002bbc       $pdata$?fe_to_nearest@@YA_NQEBN_KF@Z 0000000140059bbc     libucrtd:cvt.obj
 0004:00002bc8       $pdata$?should_round_up@@YA_NQEBN_KFW4__acrt_rounding_mode@@@Z 0000000140059bc8     libucrtd:cvt.obj
 0004:00002bd4       $pdata$?fp_format_a@@YAHQEBNPEAD_KQEAD2H_NIW4__acrt_rounding_mode@@AEAV__crt_cached_ptd_host@@@Z 0000000140059bd4     libucrtd:cvt.obj
 0004:00002be0       $pdata$?fp_format_f_internal@@YAHQEAD_KHQEAU_strflt@@_NAEAV__crt_cached_ptd_host@@@Z 0000000140059be0     libucrtd:cvt.obj
 0004:00002bec       $pdata$?fp_format_f@@YAHQEBNQEAD_K12HW4__acrt_rounding_mode@@AEAV__crt_cached_ptd_host@@@Z 0000000140059bec     libucrtd:cvt.obj
 0004:00002bf8       $pdata$?fp_format_g@@YAHQEBNQEAD_K12H_NIW4__acrt_rounding_mode@@AEAV__crt_cached_ptd_host@@@Z 0000000140059bf8     libucrtd:cvt.obj
 0004:00002c04       $pdata$_wctomb_internal    0000000140059c04     libucrtd:wctomb.obj
 0004:00002c10       $pdata$_mbtowc_internal    0000000140059c10     libucrtd:mbtowc.obj
 0004:00002c1c       $pdata$_fileno             0000000140059c1c     libucrtd:fileno.obj
 0004:00002c28       $pdata$?lowio_handle@__crt_stdio_stream@@QEBAHXZ 0000000140059c28     libucrtd:fileno.obj
 0004:00002c34       $pdata$_lock_file          0000000140059c34     libucrtd:_file.obj
 0004:00002c40       $pdata$_unlock_file        0000000140059c40     libucrtd:_file.obj
 0004:00002c4c       $pdata$__acrt_initialize_stdio 0000000140059c4c     libucrtd:_file.obj
 0004:00002c58       $pdata$??1?$__crt_unique_heap_ptr@PEAU__crt_stdio_stream_data@@U__crt_internal_free_policy@@@@QEAA@XZ 0000000140059c58     libucrtd:_file.obj
 0004:00002c64       $pdata$?detach@?$__crt_unique_heap_ptr@PEAU__crt_stdio_stream_data@@U__crt_internal_free_policy@@@@QEAAPEAPEAU__crt_stdio_stream_data@@XZ 0000000140059c64     libucrtd:_file.obj
 0004:00002c70       $pdata$?release@?$__crt_unique_heap_ptr@PEAU__crt_stdio_stream_data@@U__crt_internal_free_policy@@@@QEAAXXZ 0000000140059c70     libucrtd:_file.obj
 0004:00002c7c       $pdata$__acrt_uninitialize_stdio 0000000140059c7c     libucrtd:_file.obj
 0004:00002c88       $pdata$??$?RPEAU__crt_stdio_stream_data@@@__crt_internal_free_policy@@QEBAXQEBQEAU__crt_stdio_stream_data@@@Z 0000000140059c88     libucrtd:_file.obj
 0004:00002c94       $pdata$_get_printf_count_output 0000000140059c94     libucrtd:printf_count_output.obj
 0004:00002cac       $pdata$__acrt_OutputDebugStringA 0000000140059cac     libucrtd:outputdebugstringa.obj
 0004:00002cb8       $pdata$qsort               0000000140059cb8     libucrtd:qsort.obj
 0004:00002cc4       $pdata$?swap@@YAXPEAD0_K@Z 0000000140059cc4     libucrtd:qsort.obj
 0004:00002cd0       $pdata$?shortsort@@YAXPEAD0_KP6AHPEBX2@Z@Z 0000000140059cd0     libucrtd:qsort.obj
 0004:00002cdc       $pdata$?dtor$0@?0??shortsort@@YAXPEAD0_KP6AHPEBX2@Z@Z@4HA 0000000140059cdc     libucrtd:qsort.obj
 0004:00002ce8       $pdata$strncpy_s           0000000140059ce8     libucrtd:strncpy_s.obj
 0004:00002cf4       $pdata$??$common_tcsncpy_s@D@@YAHQEAD_KQEBD1@Z 0000000140059cf4     libucrtd:strncpy_s.obj
 0004:00002d00       $pdata$strpbrk             0000000140059d00     libucrtd:strpbrk.obj
 0004:00002d0c       $pdata$fallbackMethod      0000000140059d0c     libucrtd:strpbrk.obj
 0004:00002d18       $pdata$_mbsdec             0000000140059d18     libucrtd:mbsdec.obj
 0004:00002d24       $pdata$_mbsdec_l           0000000140059d24     libucrtd:mbsdec.obj
 0004:00002d30       $pdata$__acrt_LCMapStringA 0000000140059d30     libucrtd:lcmapstringa.obj
 0004:00002d3c       $pdata$?__acrt_LCMapStringA_stat@@YAHPEAU__crt_locale_pointers@@PEB_WKPEBDHPEADHHH@Z 0000000140059d3c     libucrtd:lcmapstringa.obj
 0004:00002d48       $pdata$??B?$__crt_scoped_stack_ptr@_W@@QEBA_NXZ 0000000140059d48     libucrtd:lcmapstringa.obj
 0004:00002d54       $pdata$?initialize_multibyte@@YAHXZ 0000000140059d54     libucrtd:multibyte_initializer.obj
 0004:00002d60       $pdata$_itow_s             0000000140059d60     libucrtd:xtoa.obj
 0004:00002d6c       $pdata$_itoa_s             0000000140059d6c     libucrtd:xtoa.obj
 0004:00002d78       $pdata$??$common_xtox_s@KD@@YAHKQEAD_KI_N@Z 0000000140059d78     libucrtd:xtoa.obj
 0004:00002d84       $pdata$??$common_xtox@KD@@YAHKQEAD_KI_N@Z 0000000140059d84     libucrtd:xtoa.obj
 0004:00002d90       $pdata$??$common_xtox_s@K_W@@YAHKQEA_W_KI_N@Z 0000000140059d90     libucrtd:xtoa.obj
 0004:00002d9c       $pdata$??$common_xtox@K_W@@YAHKQEA_W_KI_N@Z 0000000140059d9c     libucrtd:xtoa.obj
 0004:00002da8       $pdata$__ascii_wcsnicmp    0000000140059da8     libucrtd:wcsnicmp.obj
 0004:00002db4       $pdata$__acrt_DownlevelLocaleNameToLCID 0000000140059db4     libucrtd:lcidtoname_downlevel.obj
 0004:00002dc0       $pdata$?GetTableIndexFromLocaleName@@YAHPEB_W@Z 0000000140059dc0     libucrtd:lcidtoname_downlevel.obj
 0004:00002dcc       $pdata$_isatty             0000000140059dcc     libucrtd:isatty.obj
 0004:00002dd8       $pdata$_flushall           0000000140059dd8     libucrtd:fflush.obj
 0004:00002de4       $pdata$_fflush_nolock      0000000140059de4     libucrtd:fflush.obj
 0004:00002df0       $pdata$?has_all_of@__crt_stdio_stream@@QEBA_NJ@Z 0000000140059df0     libucrtd:fflush.obj
 0004:00002dfc       $pdata$__acrt_stdio_flush_nolock 0000000140059dfc     libucrtd:fflush.obj
 0004:00002e08       $pdata$?__acrt_stdio_reset_buffer@@YAXV__crt_stdio_stream@@@Z 0000000140059e08     libucrtd:fflush.obj
 0004:00002e14       $pdata$?is_stream_allocated@@YA_NJ@Z 0000000140059e14     libucrtd:fflush.obj
 0004:00002e20       $pdata$?is_stream_flushable_or_commitable@@YA_NJ@Z 0000000140059e20     libucrtd:fflush.obj
 0004:00002e2c       $pdata$?common_flush_all_should_try_to_flush_stream@@YA_NV__crt_stdio_stream@@QEAH@Z 0000000140059e2c     libucrtd:fflush.obj
 0004:00002e38       $pdata$?common_flush_all@@YAH_N@Z 0000000140059e38     libucrtd:fflush.obj
 0004:00002e44       $pdata$??R<lambda_ab61a845afdef5b7c387490eaf3616ee>@@QEBA@XZ 0000000140059e44     libucrtd:fflush.obj
 0004:00002e50       $pdata$??R<lambda_c5860995281e5c4ce005b3de8f5874ee>@@QEBAXXZ 0000000140059e50     libucrtd:fflush.obj
 0004:00002e5c       $pdata$??$__acrt_lock_stream_and_call@V<lambda_c5860995281e5c4ce005b3de8f5874ee>@@@@YAXQEAU_iobuf@@$$QEAV<lambda_c5860995281e5c4ce005b3de8f5874ee>@@@Z 0000000140059e5c     libucrtd:fflush.obj
 0004:00002e68       $pdata$??$__acrt_lock_and_call@V<lambda_ab61a845afdef5b7c387490eaf3616ee>@@@@YAXW4__acrt_lock_id@@$$QEAV<lambda_ab61a845afdef5b7c387490eaf3616ee>@@@Z 0000000140059e68     libucrtd:fflush.obj
 0004:00002e74       $pdata$?_fflush_nolock_internal@@YAHQEAU_iobuf@@AEAV__crt_cached_ptd_host@@@Z 0000000140059e74     libucrtd:fflush.obj
 0004:00002e80       $pdata$??R<lambda_842d9ff0dc9ef11c61343bbaebe7f885>@@QEBAXXZ 0000000140059e80     libucrtd:fflush.obj
 0004:00002e8c       $pdata$??R<lambda_d90129c13df834fdcbf8d2b88dafcf2d>@@QEBAXXZ 0000000140059e8c     libucrtd:fflush.obj
 0004:00002e98       $pdata$??$?RV<lambda_842d9ff0dc9ef11c61343bbaebe7f885>@@AEAV<lambda_c5860995281e5c4ce005b3de8f5874ee>@@V<lambda_d90129c13df834fdcbf8d2b88dafcf2d>@@@?$__crt_seh_guarded_call@X@@QEAAX$$QEAV<lambda_842d9ff0dc9ef11c61343bbaebe7f885>@@AEAV<lambda_c5860995281e5c4ce005b3de8f5874ee>@@$$QEAV<lambda_d90129c13df834fdcbf8d2b88dafcf2d>@@@Z 0000000140059e98     libucrtd:fflush.obj
 0004:00002ea4       $pdata$?fin$0@?0???$?RV<lambda_842d9ff0dc9ef11c61343bbaebe7f885>@@AEAV<lambda_c5860995281e5c4ce005b3de8f5874ee>@@V<lambda_d90129c13df834fdcbf8d2b88dafcf2d>@@@?$__crt_seh_guarded_call@X@@QEAAX$$QEAV<lambda_842d9ff0dc9ef11c61343bbaebe7f885>@@AEAV<lambda_c5860995281e5c4ce005b3de8f5874ee>@@$$QEAV<lambda_d90129c13df834fdcbf8d2b88dafcf2d>@@@Z@4HA 0000000140059ea4     libucrtd:fflush.obj
 0004:00002eb0       $pdata$??R<lambda_886d6c58226a84441f68b9f2b8217b83>@@QEBAXXZ 0000000140059eb0     libucrtd:fflush.obj
 0004:00002ebc       $pdata$??R<lambda_f7f22ab5edc0698d5f6905b0d3f44752>@@QEBAXXZ 0000000140059ebc     libucrtd:fflush.obj
 0004:00002ec8       $pdata$??$?RV<lambda_886d6c58226a84441f68b9f2b8217b83>@@AEAV<lambda_ab61a845afdef5b7c387490eaf3616ee>@@V<lambda_f7f22ab5edc0698d5f6905b0d3f44752>@@@?$__crt_seh_guarded_call@X@@QEAAX$$QEAV<lambda_886d6c58226a84441f68b9f2b8217b83>@@AEAV<lambda_ab61a845afdef5b7c387490eaf3616ee>@@$$QEAV<lambda_f7f22ab5edc0698d5f6905b0d3f44752>@@@Z 0000000140059ec8     libucrtd:fflush.obj
 0004:00002ed4       $pdata$?fin$0@?0???$?RV<lambda_886d6c58226a84441f68b9f2b8217b83>@@AEAV<lambda_ab61a845afdef5b7c387490eaf3616ee>@@V<lambda_f7f22ab5edc0698d5f6905b0d3f44752>@@@?$__crt_seh_guarded_call@X@@QEAAX$$QEAV<lambda_886d6c58226a84441f68b9f2b8217b83>@@AEAV<lambda_ab61a845afdef5b7c387490eaf3616ee>@@$$QEAV<lambda_f7f22ab5edc0698d5f6905b0d3f44752>@@@Z@4HA 0000000140059ed4     libucrtd:fflush.obj
 0004:00002ee0       $pdata$_malloc_base        0000000140059ee0     libucrtd:malloc_base.obj
 0004:00002eec       $pdata$mbstowcs_s          0000000140059eec     libucrtd:mbstowcs.obj
 0004:00002ef8       $pdata$?_mbstowcs_l_helper@@YA_KPEA_WPEBD_KAEAV__crt_cached_ptd_host@@@Z 0000000140059ef8     libucrtd:mbstowcs.obj
 0004:00002f04       $pdata$?_mbstowcs_internal@@YAHPEA_KPEA_W_KPEBD2AEAV__crt_cached_ptd_host@@@Z 0000000140059f04     libucrtd:mbstowcs.obj
 0004:00002f10       $pdata$wcstombs_s          0000000140059f10     libucrtd:wcstombs.obj
 0004:00002f1c       $pdata$?wcsncnt@@YA_KPEB_W_K@Z 0000000140059f1c     libucrtd:wcstombs.obj
 0004:00002f28       $pdata$?_wcstombs_l_helper@@YA_KPEADPEB_W_KAEAV__crt_cached_ptd_host@@@Z 0000000140059f28     libucrtd:wcstombs.obj
 0004:00002f34       $pdata$?_wcstombs_internal@@YAHPEA_KPEAD_KPEB_W2AEAV__crt_cached_ptd_host@@@Z 0000000140059f34     libucrtd:wcstombs.obj
 0004:00002f40       $pdata$strcat_s            0000000140059f40     libucrtd:strcat_s.obj
 0004:00002f4c       $pdata$??$common_tcscat_s@D@@YAHQEAD_KQEBD@Z 0000000140059f4c     libucrtd:strcat_s.obj
 0004:00002f58       $pdata$__acrt_fp_strflt_to_string 0000000140059f58     libucrtd:_fptostr.obj
 0004:00002f64       $pdata$?should_round_up@@YA_NQEBD0HW4__acrt_has_trailing_digits@@W4__acrt_rounding_mode@@@Z 0000000140059f64     libucrtd:_fptostr.obj
 0004:00002f70       $pdata$memcpy_s            0000000140059f70     libucrtd:cfout.obj
 0004:00002f7c       $pdata$__acrt_fltout       0000000140059f7c     libucrtd:cfout.obj
 0004:00002f88       $pdata$??0big_integer@__crt_strtox@@QEAA@XZ 0000000140059f88     libucrtd:cfout.obj
 0004:00002f94       $pdata$??0big_integer@__crt_strtox@@QEAA@AEBU01@@Z 0000000140059f94     libucrtd:cfout.obj
 0004:00002fa0       $pdata$??4big_integer@__crt_strtox@@QEAAAEAU01@AEBU01@@Z 0000000140059fa0     libucrtd:cfout.obj
 0004:00002fac       $pdata$??8__crt_strtox@@YA_NAEBUbig_integer@0@0@Z 0000000140059fac     libucrtd:cfout.obj
 0004:00002fb8       $pdata$??9__crt_strtox@@YA_NAEBUbig_integer@0@0@Z 0000000140059fb8     libucrtd:cfout.obj
 0004:00002fc4       $pdata$?make_big_integer@__crt_strtox@@YA?AUbig_integer@1@_K@Z 0000000140059fc4     libucrtd:cfout.obj
 0004:00002fd0       $pdata$?make_big_integer_power_of_two@__crt_strtox@@YA?AUbig_integer@1@I@Z 0000000140059fd0     libucrtd:cfout.obj
 0004:00002fdc       $pdata$?is_zero@__crt_strtox@@YA_NAEBUbig_integer@1@@Z 0000000140059fdc     libucrtd:cfout.obj
 0004:00002fe8       $pdata$?bit_scan_reverse@__crt_strtox@@YAII@Z 0000000140059fe8     libucrtd:cfout.obj
 0004:00002ff4       $pdata$?shift_left@__crt_strtox@@YA_NAEAUbig_integer@1@I@Z 0000000140059ff4     libucrtd:cfout.obj
 0004:00003000       $pdata$?add_carry@__crt_strtox@@YAIAEAIII@Z 000000014005a000     libucrtd:cfout.obj
 0004:0000300c       $pdata$?add_multiply_carry@__crt_strtox@@YAIAEAIIII@Z 000000014005a00c     libucrtd:cfout.obj
 0004:00003018       $pdata$?multiply_core@__crt_strtox@@YAIQEAIII@Z 000000014005a018     libucrtd:cfout.obj
 0004:00003024       $pdata$?multiply@__crt_strtox@@YA_NAEAUbig_integer@1@I@Z 000000014005a024     libucrtd:cfout.obj
 0004:00003030       $pdata$?multiply@__crt_strtox@@YA_NAEAUbig_integer@1@AEBU21@@Z 000000014005a030     libucrtd:cfout.obj
 0004:0000303c       $pdata$?multiply_by_power_of_ten@__crt_strtox@@YA_NAEAUbig_integer@1@I@Z 000000014005a03c     libucrtd:cfout.obj
 0004:00003048       $pdata$?count_sequential_high_zeroes@__crt_strtox@@YAII@Z 000000014005a048     libucrtd:cfout.obj
 0004:00003054       $pdata$?divide@__crt_strtox@@YA_KAEAUbig_integer@1@AEBU21@@Z 000000014005a054     libucrtd:cfout.obj
 0004:00003060       $pdata$??0scoped_fp_state_reset@?A0x71ca7cfb@@QEAA@XZ 000000014005a060     libucrtd:cfout.obj
 0004:0000306c       $pdata$??1scoped_fp_state_reset@?A0x71ca7cfb@@QEAA@XZ 000000014005a06c     libucrtd:cfout.obj
 0004:00003078       $pdata$??$convert_to_fos_high_precision@N@@YA?AW4__acrt_has_trailing_digits@@NIW4__acrt_precision_style@@QEAHQEAD_K@Z 000000014005a078     libucrtd:cfout.obj
 0004:00003084       $pdata$fegetround          000000014005a084     libucrtd:fegetround.obj
 0004:00003090       $pdata$?__c32rtomb_utf8@__crt_mbstring@@YA_KPEAD_UPEAU_Mbstatet@@AEAV__crt_cached_ptd_host@@@Z 000000014005a090     libucrtd:c32rtomb.obj
 0004:0000309c       $pdata$?__mbrtowc_utf8@__crt_mbstring@@YA_KPEA_WPEBD_KPEAU_Mbstatet@@AEAV__crt_cached_ptd_host@@@Z 000000014005a09c     libucrtd:mbrtowc.obj
 0004:000030a8       $pdata$?__mbsrtowcs_utf8@__crt_mbstring@@YA_KPEA_WPEAPEBD_KPEAU_Mbstatet@@AEAV__crt_cached_ptd_host@@@Z 000000014005a0a8     libucrtd:mbrtowc.obj
 0004:000030b4       $pdata$_fcloseall          000000014005a0b4     libucrtd:closeall.obj
 0004:000030c0       $pdata$_fcloseall$fin$0    000000014005a0c0     libucrtd:closeall.obj
 0004:000030cc       $pdata$?is_in_use@__crt_stdio_stream@@QEBA_NXZ 000000014005a0cc     libucrtd:closeall.obj
 0004:000030d8       $pdata$?has_crt_buffer@__crt_stdio_stream@@QEBA_NXZ 000000014005a0d8     libucrtd:_freebuf.obj
 0004:000030e4       $pdata$__acrt_stdio_free_buffer_nolock 000000014005a0e4     libucrtd:_freebuf.obj
 0004:000030f0       $pdata$__strncnt           000000014005a0f0     libucrtd:strncnt.obj
 0004:000030fc       $pdata$_commit             000000014005a0fc     libucrtd:commit.obj
 0004:00003108       $pdata$??R<lambda_3e4146214822e0ea86c47ff907aef2ff>@@QEBAHXZ 000000014005a108     libucrtd:commit.obj
 0004:00003114       $pdata$??$__acrt_lowio_lock_fh_and_call@V<lambda_3e4146214822e0ea86c47ff907aef2ff>@@@@YAHH$$QEAV<lambda_3e4146214822e0ea86c47ff907aef2ff>@@@Z 000000014005a114     libucrtd:commit.obj
 0004:00003120       $pdata$??R<lambda_7d29013d608e9f25a034de83c9b9e983>@@QEBAXXZ 000000014005a120     libucrtd:commit.obj
 0004:0000312c       $pdata$??R<lambda_b869e5a4e1069fcb5c3da79c0d999133>@@QEBAXXZ 000000014005a12c     libucrtd:commit.obj
 0004:00003138       $pdata$??$?RV<lambda_7d29013d608e9f25a034de83c9b9e983>@@AEAV<lambda_3e4146214822e0ea86c47ff907aef2ff>@@V<lambda_b869e5a4e1069fcb5c3da79c0d999133>@@@?$__crt_seh_guarded_call@H@@QEAAH$$QEAV<lambda_7d29013d608e9f25a034de83c9b9e983>@@AEAV<lambda_3e4146214822e0ea86c47ff907aef2ff>@@$$QEAV<lambda_b869e5a4e1069fcb5c3da79c0d999133>@@@Z 000000014005a138     libucrtd:commit.obj
 0004:00003144       $pdata$?fin$0@?0???$?RV<lambda_7d29013d608e9f25a034de83c9b9e983>@@AEAV<lambda_3e4146214822e0ea86c47ff907aef2ff>@@V<lambda_b869e5a4e1069fcb5c3da79c0d999133>@@@?$__crt_seh_guarded_call@H@@QEAAH$$QEAV<lambda_7d29013d608e9f25a034de83c9b9e983>@@AEAV<lambda_3e4146214822e0ea86c47ff907aef2ff>@@$$QEAV<lambda_b869e5a4e1069fcb5c3da79c0d999133>@@@Z@4HA 000000014005a144     libucrtd:commit.obj
 0004:00003150       $pdata$_write_nolock       000000014005a150     libucrtd:write.obj
 0004:0000315c       $pdata$_write_internal     000000014005a15c     libucrtd:write.obj
 0004:00003168       $pdata$_write_internal$fin$0 000000014005a168     libucrtd:write.obj
 0004:00003174       $pdata$?write_requires_double_translation_nolock@@YA_NHAEAV__crt_cached_ptd_host@@@Z 000000014005a174     libucrtd:write.obj
 0004:00003180       $pdata$?write_double_translated_ansi_nolock@@YA?AUwrite_result@?A0x17268360@@HQEBDIAEAV__crt_cached_ptd_host@@@Z 000000014005a180     libucrtd:write.obj
 0004:0000318c       $pdata$?write_double_translated_unicode_nolock@@YA?AUwrite_result@?A0x17268360@@QEBDI@Z 000000014005a18c     libucrtd:write.obj
 0004:00003198       $pdata$?write_text_ansi_nolock@@YA?AUwrite_result@?A0x17268360@@HQEBDI@Z 000000014005a198     libucrtd:write.obj
 0004:000031a4       $pdata$?write_text_utf16le_nolock@@YA?AUwrite_result@?A0x17268360@@HQEBDI@Z 000000014005a1a4     libucrtd:write.obj
 0004:000031b0       $pdata$?write_text_utf8_nolock@@YA?AUwrite_result@?A0x17268360@@HQEBDI@Z 000000014005a1b0     libucrtd:write.obj
 0004:000031bc       $pdata$?write_binary_nolock@@YA?AUwrite_result@?A0x17268360@@HQEBDI@Z 000000014005a1bc     libucrtd:write.obj
 0004:000031c8       $pdata$?__wcsrtombs_utf8@__crt_mbstring@@YA_KPEADPEAPEB_W_KPEAU_Mbstatet@@AEAV__crt_cached_ptd_host@@@Z 000000014005a1c8     libucrtd:wcrtomb.obj
 0004:000031e0       $pdata$ceil                000000014005a1e0     libucrtd:ceil.obj
 0004:000031ec       $pdata$_controlfp_s        000000014005a1ec     libucrtd:contrlfp.obj
 0004:000031f8       $pdata$fegetenv            000000014005a1f8     libucrtd:fegetenv.obj
 0004:00003204       $pdata$fesetenv            000000014005a204     libucrtd:fesetenv.obj
 0004:00003210       $pdata$feholdexcept        000000014005a210     libucrtd:feholdexcept.obj
 0004:0000321c       $pdata$??$__acrt_fenv_shift_bits@W4__acrt_fenv_abstract_status@@@@YA?AW4__acrt_fenv_abstract_status@@W40@0I@Z 000000014005a21c     libucrtd:_fenvutils.obj
 0004:00003228       $pdata$??$__acrt_fenv_unshift_bits@W4__acrt_fenv_abstract_status@@@@YA?AW4__acrt_fenv_abstract_status@@W40@0I@Z 000000014005a228     libucrtd:_fenvutils.obj
 0004:00003234       $pdata$?__acrt_fenv_shift_abstract_sse_status@@YA?AW4__acrt_fenv_abstract_status@@W41@@Z 000000014005a234     libucrtd:_fenvutils.obj
 0004:00003240       $pdata$?__acrt_fenv_unshift_abstract_sse_status@@YA?AW4__acrt_fenv_abstract_status@@W41@@Z 000000014005a240     libucrtd:_fenvutils.obj
 0004:0000324c       $pdata$??$__acrt_fenv_shift_bits@W4__acrt_fenv_abstract_control@@@@YA?AW4__acrt_fenv_abstract_control@@W40@0I@Z 000000014005a24c     libucrtd:_fenvutils.obj
 0004:00003258       $pdata$??$__acrt_fenv_unshift_bits@W4__acrt_fenv_abstract_control@@@@YA?AW4__acrt_fenv_abstract_control@@W40@0I@Z 000000014005a258     libucrtd:_fenvutils.obj
 0004:00003264       $pdata$?__acrt_fenv_shift_abstract_sse_control@@YA?AW4__acrt_fenv_abstract_control@@W41@@Z 000000014005a264     libucrtd:_fenvutils.obj
 0004:00003270       $pdata$?__acrt_fenv_unshift_abstract_sse_control@@YA?AW4__acrt_fenv_abstract_control@@W41@@Z 000000014005a270     libucrtd:_fenvutils.obj
 0004:0000327c       $pdata$__acrt_fenv_get_status 000000014005a27c     libucrtd:_fenvutils.obj
 0004:00003288       $pdata$__acrt_fenv_set_status 000000014005a288     libucrtd:_fenvutils.obj
 0004:00003294       $pdata$__acrt_fenv_get_control 000000014005a294     libucrtd:_fenvutils.obj
 0004:000032a0       $pdata$__acrt_fenv_set_control 000000014005a2a0     libucrtd:_fenvutils.obj
 0004:000032ac       $pdata$__acrt_fenv_get_common_round_control 000000014005a2ac     libucrtd:_fenvutils.obj
 0004:000032b8       $pdata$?to_machine_sse_status@@YA?AW4__acrt_fenv_machine_sse_status@@W4__acrt_fenv_abstract_status@@@Z 000000014005a2b8     libucrtd:_fenvutils.obj
 0004:000032c4       $pdata$??$translate_status@W4__acrt_fenv_machine_sse_status@@W4__acrt_fenv_abstract_status@@@@YA?AW4__acrt_fenv_machine_sse_status@@W4__acrt_fenv_abstract_status@@@Z 000000014005a2c4     libucrtd:_fenvutils.obj
 0004:000032d0       $pdata$?translate_control_denormal_control_to_sse@@YA?AW4__acrt_fenv_machine_sse_control@@W4__acrt_fenv_abstract_control@@@Z 000000014005a2d0     libucrtd:_fenvutils.obj
 0004:000032dc       $pdata$?translate_control_denormal_control_from_sse@@YA?AW4__acrt_fenv_abstract_control@@W4__acrt_fenv_machine_sse_control@@@Z 000000014005a2dc     libucrtd:_fenvutils.obj
 0004:000032e8       $pdata$?to_abstract_control@@YA?AW4__acrt_fenv_abstract_control@@W4__acrt_fenv_machine_sse_control@@@Z 000000014005a2e8     libucrtd:_fenvutils.obj
 0004:000032f4       $pdata$??$translate_control_exception_mask@W4__acrt_fenv_abstract_control@@W4__acrt_fenv_machine_sse_control@@@@YA?AW4__acrt_fenv_abstract_control@@W4__acrt_fenv_machine_sse_control@@@Z 000000014005a2f4     libucrtd:_fenvutils.obj
 0004:00003300       $pdata$??$translate_control_rounding_control@W4__acrt_fenv_abstract_control@@W4__acrt_fenv_machine_sse_control@@@@YA?AW4__acrt_fenv_abstract_control@@W4__acrt_fenv_machine_sse_control@@@Z 000000014005a300     libucrtd:_fenvutils.obj
 0004:0000330c       $pdata$?to_machine_sse_control@@YA?AW4__acrt_fenv_machine_sse_control@@W4__acrt_fenv_abstract_control@@@Z 000000014005a30c     libucrtd:_fenvutils.obj
 0004:00003318       $pdata$??$translate_control_exception_mask@W4__acrt_fenv_machine_sse_control@@W4__acrt_fenv_abstract_control@@@@YA?AW4__acrt_fenv_machine_sse_control@@W4__acrt_fenv_abstract_control@@@Z 000000014005a318     libucrtd:_fenvutils.obj
 0004:00003324       $pdata$??$translate_control_rounding_control@W4__acrt_fenv_machine_sse_control@@W4__acrt_fenv_abstract_control@@@@YA?AW4__acrt_fenv_machine_sse_control@@W4__acrt_fenv_abstract_control@@@Z 000000014005a324     libucrtd:_fenvutils.obj
 0004:00003330       $pdata$?get_machine_sse_status@@YA?AW4__acrt_fenv_machine_sse_status@@XZ 000000014005a330     libucrtd:_fenvutils.obj
 0004:0000333c       $pdata$?set_machine_sse_status@@YAXW4__acrt_fenv_machine_sse_status@@@Z 000000014005a33c     libucrtd:_fenvutils.obj
 0004:00003348       $pdata$?get_machine_sse_control@@YA?AW4__acrt_fenv_machine_sse_control@@XZ 000000014005a348     libucrtd:_fenvutils.obj
 0004:00003354       $pdata$?set_machine_sse_control@@YAXW4__acrt_fenv_machine_sse_control@@@Z 000000014005a354     libucrtd:_fenvutils.obj
 0004:00003360       $pdata$??$to_abstract_status@W4__acrt_fenv_machine_sse_status@@@@YA?AW4__acrt_fenv_abstract_status@@W4__acrt_fenv_machine_sse_status@@@Z 000000014005a360     libucrtd:_fenvutils.obj
 0004:0000336c       $pdata$??$__acrt_fenv_translate_bit@W4__acrt_fenv_machine_sse_status@@W4__acrt_fenv_abstract_status@@@@YA?AW4__acrt_fenv_machine_sse_status@@W4__acrt_fenv_abstract_status@@0W40@1@Z 000000014005a36c     libucrtd:_fenvutils.obj
 0004:00003378       $pdata$??$__acrt_fenv_translate_bit@W4__acrt_fenv_abstract_control@@W4__acrt_fenv_machine_sse_control@@@@YA?AW4__acrt_fenv_abstract_control@@W4__acrt_fenv_machine_sse_control@@0W40@1@Z 000000014005a378     libucrtd:_fenvutils.obj
 0004:00003384       $pdata$??$__acrt_fenv_translate_bit@W4__acrt_fenv_machine_sse_control@@W4__acrt_fenv_abstract_control@@@@YA?AW4__acrt_fenv_machine_sse_control@@W4__acrt_fenv_abstract_control@@0W40@1@Z 000000014005a384     libucrtd:_fenvutils.obj
 0004:00003390       $pdata$??$translate_status@W4__acrt_fenv_abstract_status@@W4__acrt_fenv_machine_sse_status@@@@YA?AW4__acrt_fenv_abstract_status@@W4__acrt_fenv_machine_sse_status@@@Z 000000014005a390     libucrtd:_fenvutils.obj
 0004:0000339c       $pdata$??$__acrt_fenv_translate_bit@W4__acrt_fenv_abstract_status@@W4__acrt_fenv_machine_sse_status@@@@YA?AW4__acrt_fenv_abstract_status@@W4__acrt_fenv_machine_sse_status@@0W40@1@Z 000000014005a39c     libucrtd:_fenvutils.obj
 0004:000033a8       $pdata$?return_illegal_sequence@__crt_mbstring@@YA_KPEAU_Mbstatet@@AEAV__crt_cached_ptd_host@@@Z 000000014005a3a8     libucrtd:common_utf8.obj
 0004:000033b4       $pdata$?reset_and_return@__crt_mbstring@@YA_K_KPEAU_Mbstatet@@@Z 000000014005a3b4     libucrtd:common_utf8.obj
 0004:000033c0       $pdata$?__mbrtoc32_utf8@__crt_mbstring@@YA_KPEA_UPEBD_KPEAU_Mbstatet@@AEAV__crt_cached_ptd_host@@@Z 000000014005a3c0     libucrtd:mbrtoc32.obj
 0004:000033cc       $pdata$fclose              000000014005a3cc     libucrtd:fclose.obj
 0004:000033d8       $pdata$?_fclose_nolock_internal@@YAHQEAU_iobuf@@AEAV__crt_cached_ptd_host@@@Z 000000014005a3d8     libucrtd:fclose.obj
 0004:000033e4       $pdata$?_fclose_internal@@YAHQEAU_iobuf@@AEAV__crt_cached_ptd_host@@@Z 000000014005a3e4     libucrtd:fclose.obj
 0004:000033f0       $pdata$?fin$0@?0??_fclose_internal@@YAHQEAU_iobuf@@AEAV__crt_cached_ptd_host@@@Z@4HA 000000014005a3f0     libucrtd:fclose.obj
 0004:000033fc       $pdata$_lseeki64_nolock_internal 000000014005a3fc     libucrtd:lseek.obj
 0004:00003408       $pdata$?common_lseek_do_seek_nolock@@YA_JQEAX_JHAEAV__crt_cached_ptd_host@@@Z 000000014005a408     libucrtd:lseek.obj
 0004:00003414       $pdata$??$common_lseek_nolock@_J@@YA_JH_JHAEAV__crt_cached_ptd_host@@@Z 000000014005a414     libucrtd:lseek.obj
 0004:00003420       $pdata$_putwch_nolock      000000014005a420     libucrtd:putwch.obj
 0004:0000342c       $pdata$?__c16rtomb_utf8@__crt_mbstring@@YA_KPEAD_SPEAU_Mbstatet@@AEAV__crt_cached_ptd_host@@@Z 000000014005a42c     libucrtd:c16rtomb.obj
 0004:00003438       $pdata$?store_first_surrogate@?A0xc60ee810@@YAX_SPEAU_Mbstatet@@@Z 000000014005a438     libucrtd:c16rtomb.obj
 0004:00003444       $pdata$?has_surrogate@?A0xc60ee810@@YA_NPEAU_Mbstatet@@@Z 000000014005a444     libucrtd:c16rtomb.obj
 0004:00003450       $pdata$?is_first_surrogate@?A0xc60ee810@@YA_N_S@Z 000000014005a450     libucrtd:c16rtomb.obj
 0004:0000345c       $pdata$?is_second_surrogate@?A0xc60ee810@@YA_N_S@Z 000000014005a45c     libucrtd:c16rtomb.obj
 0004:00003468       $pdata$__acrt_initialize_fma3 000000014005a468     libucrtd:fma3_available.obj
 0004:00003474       $pdata$_log_special_common 000000014005a474     libucrtd:log_special.obj
 0004:00003480       $pdata$_log10_special      000000014005a480     libucrtd:log_special.obj
 0004:0000348c       $pdata$_call_matherr       000000014005a48c     libucrtd:libm_error.obj
 0004:00003498       $pdata$_exception_enabled  000000014005a498     libucrtd:libm_error.obj
 0004:000034a4       $pdata$_handle_nan         000000014005a4a4     libucrtd:libm_error.obj
 0004:000034b0       $pdata$_handle_error       000000014005a4b0     libucrtd:libm_error.obj
 0004:000034bc       $pdata$_clearfp            000000014005a4bc     libucrtd:ieee.obj
 0004:000034c8       $pdata$_control87          000000014005a4c8     libucrtd:ieee.obj
 0004:000034d4       $pdata$_abstract_sw        000000014005a4d4     libucrtd:ieee.obj
 0004:000034e0       $pdata$_abstract_cw        000000014005a4e0     libucrtd:ieee.obj
 0004:000034ec       $pdata$_hw_cw              000000014005a4ec     libucrtd:ieee.obj
 0004:000034f8       $pdata$common_control87    000000014005a4f8     libucrtd:ieee.obj
 0004:00003504       $pdata$common_control87$filt$0 000000014005a504     libucrtd:ieee.obj
 0004:00003510       $pdata$_close_nolock_internal 000000014005a510     libucrtd:close.obj
 0004:0000351c       $pdata$_close_internal     000000014005a51c     libucrtd:close.obj
 0004:00003528       $pdata$?close_os_handle_nolock@@YAKH@Z 000000014005a528     libucrtd:close.obj
 0004:00003534       $pdata$??R<lambda_af29824b49a67d335554598d6cad2be6>@@QEBAHXZ 000000014005a534     libucrtd:close.obj
 0004:00003540       $pdata$??$__acrt_lowio_lock_fh_and_call@V<lambda_af29824b49a67d335554598d6cad2be6>@@@@YAHH$$QEAV<lambda_af29824b49a67d335554598d6cad2be6>@@@Z 000000014005a540     libucrtd:close.obj
 0004:0000354c       $pdata$??R<lambda_19eaff14c5fe7be5b1b106a862eb1091>@@QEBAXXZ 000000014005a54c     libucrtd:close.obj
 0004:00003558       $pdata$??R<lambda_3ce37f5b621ab310299ea5f68cbdf3bb>@@QEBAXXZ 000000014005a558     libucrtd:close.obj
 0004:00003564       $pdata$??$?RV<lambda_19eaff14c5fe7be5b1b106a862eb1091>@@AEAV<lambda_af29824b49a67d335554598d6cad2be6>@@V<lambda_3ce37f5b621ab310299ea5f68cbdf3bb>@@@?$__crt_seh_guarded_call@H@@QEAAH$$QEAV<lambda_19eaff14c5fe7be5b1b106a862eb1091>@@AEAV<lambda_af29824b49a67d335554598d6cad2be6>@@$$QEAV<lambda_3ce37f5b621ab310299ea5f68cbdf3bb>@@@Z 000000014005a564     libucrtd:close.obj
 0004:00003570       $pdata$?fin$0@?0???$?RV<lambda_19eaff14c5fe7be5b1b106a862eb1091>@@AEAV<lambda_af29824b49a67d335554598d6cad2be6>@@V<lambda_3ce37f5b621ab310299ea5f68cbdf3bb>@@@?$__crt_seh_guarded_call@H@@QEAAH$$QEAV<lambda_19eaff14c5fe7be5b1b106a862eb1091>@@AEAV<lambda_af29824b49a67d335554598d6cad2be6>@@$$QEAV<lambda_3ce37f5b621ab310299ea5f68cbdf3bb>@@@Z@4HA 000000014005a570     libucrtd:close.obj
 0004:0000357c       $pdata$?__acrt_stdio_free_stream@@YAXV__crt_stdio_stream@@@Z 000000014005a57c     libucrtd:stream.obj
 0004:00003588       $pdata$__dcrt_lowio_ensure_console_output_initialized 000000014005a588     libucrtd:initcon.obj
 0004:00003594       $pdata$__dcrt_write_console 000000014005a594     libucrtd:initcon.obj
 0004:000035a0       $pdata$?__dcrt_lowio_initialize_console_output@@YAXXZ 000000014005a5a0     libucrtd:initcon.obj
 0004:000035ac       $pdata$__dcrt_terminate_console_output 000000014005a5ac     libucrtd:initcon.obj
 0004:000035b8       $pdata$??R<lambda_61c1b8a38cedca4df5fdc542e6ccae6d>@@QEBAHXZ 000000014005a5b8     libucrtd:initcon.obj
 0004:000035c4       $pdata$??$console_output_reopen_and_retry@V<lambda_61c1b8a38cedca4df5fdc542e6ccae6d>@@@@YAHAEBV<lambda_61c1b8a38cedca4df5fdc542e6ccae6d>@@@Z 000000014005a5c4     libucrtd:initcon.obj
 0004:000035d0       $pdata$_set_errno_from_matherr 000000014005a5d0     libucrtd:fpexcept.obj
 0004:000035dc       $pdata$_raise_exc          000000014005a5dc     libucrtd:fpexcept.obj
 0004:000035e8       $pdata$_raise_exc_ex       000000014005a5e8     libucrtd:fpexcept.obj
 0004:000035f4       $pdata$_clrfp              000000014005a5f4     libucrtd:fpctrl.obj
 0004:00003600       $pdata$_ctrlfp             000000014005a600     libucrtd:fpctrl.obj
 0004:0000360c       $pdata$_ctrlfp$filt$0      000000014005a60c     libucrtd:fpctrl.obj
 0004:00003618       $pdata$_statfp             000000014005a618     libucrtd:fpctrl.obj
 0004:00003624       $pdata$_set_statfp         000000014005a624     libucrtd:fpctrl.obj
 0004:0000363c       $pdata$_ValidateImageBase  000000014005a63c     LIBCMTD:pesect.obj
 0004:00003648       $pdata$_FindPESection      000000014005a648     LIBCMTD:pesect.obj
 0004:00003654       $pdata$_IsNonwritableInCurrentImage 000000014005a654     LIBCMTD:pesect.obj
 0004:00003660       $pdata$_IsNonwritableInCurrentImage$filt$0 000000014005a660     LIBCMTD:pesect.obj
 0004:0000366c       $pdata$??_Gtype_info@@UEAAPEAXI@Z 000000014005a66c     LIBCMTD:std_type_info_static.obj
 0004:00003678       $pdata$??3@YAXPEAX_K@Z     000000014005a678     LIBCMTD:delete_scalar_size.obj
 0004:00003684       $pdata$__GSHandlerCheck_SEH 000000014005a684     LIBCMTD:gshandlerseh.obj
 0004:0000369c       $pdata$__GSHandlerCheck_EH 000000014005a69c     LIBCMTD:gshandlereh.obj
 0004:000036a8       $pdata$??3@YAXPEAX@Z       000000014005a6a8     LIBCMTD:delete_scalar.obj
 0004:000036c0       $pdata$__C_specific_handler_noexcept 000000014005a6c0     libvcruntimed:chandler_noexcept.obj
 0004:000036cc       $pdata$strrchr             000000014005a6cc     libvcruntimed:strrchr.obj
 0005:00000000       __guard_xfg_seh_filter_exe 000000014005b000     libucrtd:exception_filter.obj
 0005:00000010       __guard_xfg?xcptlookup@@YAPEAU__crt_signal_action_t@@KQEAU1@@Z 000000014005b010     libucrtd:exception_filter.obj
 0005:00000020       __guard_xfg_query_app_type 000000014005b020     libucrtd:report_runtime_error.obj
 0005:00000030       __guard_xfg_set_app_type   000000014005b030     libucrtd:report_runtime_error.obj
 0005:00000040       __guard_xfg__acrt_report_runtime_error 000000014005b040     libucrtd:report_runtime_error.obj
 0005:00000050       __guard_xfg_invoke_watson_if_error 000000014005b050     libucrtd:report_runtime_error.obj
 0005:00000060       __guard_xfg?issue_debug_notification@@YA_NQEB_W@Z 000000014005b060     libucrtd:report_runtime_error.obj
 0005:00000070       __guard_xfg?should_write_error_to_console@@YA_NXZ 000000014005b070     libucrtd:report_runtime_error.obj
 0005:00000080       __guard_xfg?write_string_to_console@@YAXQEB_W@Z 000000014005b080     libucrtd:report_runtime_error.obj
 0005:00000090       __guard_xfg__setusermatherr 000000014005b090     libucrtd:matherr.obj
 0005:000000a0       __guard_xfg__acrt_initialize_user_matherr 000000014005b0a0     libucrtd:matherr.obj
 0005:000000b0       __guard_xfg__acrt_has_user_matherr 000000014005b0b0     libucrtd:matherr.obj
 0005:000000c0       __guard_xfg__acrt_invoke_user_matherr 000000014005b0c0     libucrtd:matherr.obj
 0005:000000d0       __guard_xfg?get_current_state_index@__crt_state_management@@YA_KXZ 000000014005b0d0     libucrtd:matherr.obj
 0005:000000e0       __guard_xfg?value@?$dual_state_global@P6AHPEAU_exception@@@Z@__crt_state_management@@QEAAAEAP6AHPEAU_exception@@@ZXZ 000000014005b0e0     libucrtd:matherr.obj
 0005:000000f0       __guard_xfg?initialize@?$dual_state_global@P6AHPEAU_exception@@@Z@__crt_state_management@@QEAAXQ6AHPEAU_exception@@@Z@Z 000000014005b0f0     libucrtd:matherr.obj
 0005:00000100       __guard_xfg??$__crt_fast_encode_pointer@P6AHPEAU_exception@@@Z@@YAP6AHPEAU_exception@@@ZQ6AH0@Z@Z 000000014005b100     libucrtd:matherr.obj
 0005:00000110       __guard_xfg??$__crt_fast_decode_pointer@P6AHPEAU_exception@@@Z@@YAP6AHPEAU_exception@@@ZQ6AH0@Z@Z 000000014005b110     libucrtd:matherr.obj
 0005:00000120       __guard_xfg_configure_narrow_argv 000000014005b120     libucrtd:argv_parsing.obj
 0005:00000130       __guard_xfg_set_pgmptr     000000014005b130     libucrtd:argv_parsing.obj
 0005:00000140       __guard_xfg__acrt_allocate_buffer_for_argv 000000014005b140     libucrtd:argv_parsing.obj
 0005:00000150       __guard_xfg?do_locale_initialization@@YAXD@Z 000000014005b150     libucrtd:argv_parsing.obj
 0005:00000160       __guard_xfg?get_command_line@@YAPEADD@Z 000000014005b160     libucrtd:argv_parsing.obj
 0005:00000170       __guard_xfg?get_argv@@YAAEAPEAPEADD@Z 000000014005b170     libucrtd:argv_parsing.obj
 0005:00000180       __guard_xfg?expand_argv_wildcards@@YAHQEAPEADQEAPEAPEAD@Z 000000014005b180     libucrtd:argv_parsing.obj
 0005:00000190       __guard_xfg?should_copy_another_character@@YA_ND@Z 000000014005b190     libucrtd:argv_parsing.obj
 0005:000001a0       __guard_xfg??0?$__crt_unique_heap_ptr@EU__crt_internal_free_policy@@@@QEAA@QEAE@Z 000000014005b1a0     libucrtd:argv_parsing.obj
 0005:000001b0       __guard_xfg??1?$__crt_unique_heap_ptr@EU__crt_internal_free_policy@@@@QEAA@XZ 000000014005b1b0     libucrtd:argv_parsing.obj
 0005:000001c0       __guard_xfg?detach@?$__crt_unique_heap_ptr@EU__crt_internal_free_policy@@@@QEAAPEAEXZ 000000014005b1c0     libucrtd:argv_parsing.obj
 0005:000001d0       __guard_xfg?release@?$__crt_unique_heap_ptr@EU__crt_internal_free_policy@@@@QEAAXXZ 000000014005b1d0     libucrtd:argv_parsing.obj
 0005:000001e0       __guard_xfg?is_valid@?$__crt_unique_heap_ptr@EU__crt_internal_free_policy@@@@QEBA_NXZ 000000014005b1e0     libucrtd:argv_parsing.obj
 0005:000001f0       __guard_xfg??B?$__crt_unique_heap_ptr@EU__crt_internal_free_policy@@@@QEBA_NXZ 000000014005b1f0     libucrtd:argv_parsing.obj
 0005:00000200       __guard_xfg?get@?$__crt_unique_heap_ptr@EU__crt_internal_free_policy@@@@QEBAPEAEXZ 000000014005b200     libucrtd:argv_parsing.obj
 0005:00000210       __guard_xfg??$common_configure_argv@D@@YAHW4_crt_argv_mode@@@Z 000000014005b210     libucrtd:argv_parsing.obj
 0005:00000220       __guard_xfg??$?RE@__crt_internal_free_policy@@QEBAXQEBE@Z 000000014005b220     libucrtd:argv_parsing.obj
 0005:00000230       __guard_xfg??$get_module_file_name@$$TAEAY0BAF@DH@?$__crt_char_traits@D@@SAK$$QEA$$TAEAY0BAF@D$$QEAH@Z 000000014005b230     libucrtd:argv_parsing.obj
 0005:00000240       __guard_xfg??$set_program_name@PEAD@?$__crt_char_traits@D@@SAX$$QEAPEAD@Z 000000014005b240     libucrtd:argv_parsing.obj
 0005:00000250       __guard_xfg??$parse_command_line@D@@YAXPEADPEAPEAD0PEA_K2@Z 000000014005b250     libucrtd:argv_parsing.obj
 0005:00000260       __guard_xfg??0?$__crt_unique_heap_ptr@PEADU__crt_internal_free_policy@@@@QEAA@QEAPEAD@Z 000000014005b260     libucrtd:argv_parsing.obj
 0005:00000270       __guard_xfg??1?$__crt_unique_heap_ptr@PEADU__crt_internal_free_policy@@@@QEAA@XZ 000000014005b270     libucrtd:argv_parsing.obj
 0005:00000280       __guard_xfg?detach@?$__crt_unique_heap_ptr@PEADU__crt_internal_free_policy@@@@QEAAPEAPEADXZ 000000014005b280     libucrtd:argv_parsing.obj
 0005:00000290       __guard_xfg?release@?$__crt_unique_heap_ptr@PEADU__crt_internal_free_policy@@@@QEAAXXZ 000000014005b290     libucrtd:argv_parsing.obj
 0005:000002a0       __guard_xfg?get@?$__crt_unique_heap_ptr@PEADU__crt_internal_free_policy@@@@QEBAPEAPEADXZ 000000014005b2a0     libucrtd:argv_parsing.obj
 0005:000002b0       __guard_xfg?get_address_of@?$__crt_unique_heap_ptr@PEADU__crt_internal_free_policy@@@@QEAAPEAPEAPEADXZ 000000014005b2b0     libucrtd:argv_parsing.obj
 0005:000002c0       __guard_xfg??R<lambda_df1553121bfa390f1154bd84936f2730>@@QEBAHXZ 000000014005b2c0     libucrtd:argv_parsing.obj
 0005:000002d0       __guard_xfg??0<lambda_df1553121bfa390f1154bd84936f2730>@@QEAA@AEAV?$__crt_unique_heap_ptr@PEADU__crt_internal_free_policy@@@@@Z 000000014005b2d0     libucrtd:argv_parsing.obj
 0005:000002e0       __guard_xfg??$?RPEAD@__crt_internal_free_policy@@QEBAXQEBQEAD@Z 000000014005b2e0     libucrtd:argv_parsing.obj
 0005:000002f0       __guard_xfg_initialize_narrow_environment 000000014005b2f0     libucrtd:environment_initialization.obj
 0005:00000300       __guard_xfg__dcrt_uninitialize_environments_nolock 000000014005b300     libucrtd:environment_initialization.obj
 0005:00000310       __guard_xfg?value@?$dual_state_global@PEAPEAD@__crt_state_management@@QEAAAEAPEAPEADXZ 000000014005b310     libucrtd:environment_initialization.obj
 0005:00000320       __guard_xfg?initialize@?$dual_state_global@PEAPEAD@__crt_state_management@@QEAAXQEAPEAD@Z 000000014005b320     libucrtd:environment_initialization.obj
 0005:00000330       __guard_xfg?get_environment_nolock@@YAAEAPEAPEADD@Z 000000014005b330     libucrtd:environment_initialization.obj
 0005:00000340       __guard_xfg?get_initial_environment@@YAAEAPEAPEADD@Z 000000014005b340     libucrtd:environment_initialization.obj
 0005:00000350       __guard_xfg?get_initial_environment@@YAAEAPEAPEA_W_W@Z 000000014005b350     libucrtd:environment_initialization.obj
 0005:00000360       __guard_xfg?get_dual_state_environment_nolock@@YAAEAV?$dual_state_global@PEAPEAD@__crt_state_management@@D@Z 000000014005b360     libucrtd:environment_initialization.obj
 0005:00000370       __guard_xfg?pre_initialize@@YAXD@Z 000000014005b370     libucrtd:environment_initialization.obj
 0005:00000380       __guard_xfg??$common_initialize_environment_nolock@D@@YAHXZ 000000014005b380     libucrtd:environment_initialization.obj
 0005:00000390       __guard_xfg??$uninitialize_environment_internal@D@@YAXAEAPEAPEAD@Z 000000014005b390     libucrtd:environment_initialization.obj
 0005:000003a0       __guard_xfg??$uninitialize@A6AXAEAPEAPEAD@_E@?$dual_state_global@PEAPEAD@__crt_state_management@@QEAAXA6AXAEAPEAPEAD@_E@Z 000000014005b3a0     libucrtd:environment_initialization.obj
 0005:000003b0       __guard_xfg??$uninitialize_environment_internal@_W@@YAXAEAPEAPEA_W@Z 000000014005b3b0     libucrtd:environment_initialization.obj
 0005:000003c0       __guard_xfg??$uninitialize@A6AXAEAPEAPEA_W@_E@?$dual_state_global@PEAPEA_W@__crt_state_management@@QEAAXA6AXAEAPEAPEA_W@_E@Z 000000014005b3c0     libucrtd:environment_initialization.obj
 0005:000003d0       __guard_xfg??$free_environment@D@@YAXQEAPEAD@Z 000000014005b3d0     libucrtd:environment_initialization.obj
 0005:000003e0       __guard_xfg??$free_environment@_W@@YAXQEAPEA_W@Z 000000014005b3e0     libucrtd:environment_initialization.obj
 0005:000003f0       __guard_xfg??$get_environment_from_os@$$V@?$__crt_char_traits@D@@SAPEADXZ 000000014005b3f0     libucrtd:environment_initialization.obj
 0005:00000400       __guard_xfg?detach@?$__crt_unique_heap_ptr@DU__crt_internal_free_policy@@@@QEAAPEADXZ 000000014005b400     libucrtd:environment_initialization.obj
 0005:00000410       __guard_xfg??$create_environment@D@@YAQEAPEADQEAD@Z 000000014005b410     libucrtd:environment_initialization.obj
 0005:00000420       __guard_xfg?is_valid@?$__crt_unique_heap_ptr@PEADU__crt_internal_free_policy@@@@QEBA_NXZ 000000014005b420     libucrtd:environment_initialization.obj
 0005:00000430       __guard_xfg??B?$__crt_unique_heap_ptr@PEADU__crt_internal_free_policy@@@@QEBA_NXZ 000000014005b430     libucrtd:environment_initialization.obj
 0005:00000440       __guard_xfg??$count_variables_in_environment_block@D@@YA?B_KQEAD@Z 000000014005b440     libucrtd:environment_initialization.obj
 0005:00000450       __guard_xfg??$tcslen@AEAPEAD@?$__crt_char_traits@D@@SA_KAEAPEAD@Z 000000014005b450     libucrtd:environment_initialization.obj
 0005:00000460       __guard_xfg??$tcscpy_s@PEADAEB_KAEAPEAD@?$__crt_char_traits@D@@SAH$$QEAPEADAEB_KAEAPEAD@Z 000000014005b460     libucrtd:environment_initialization.obj
 0005:00000470       __guard_xfg_get_narrow_winmain_command_line 000000014005b470     libucrtd:argv_winmain.obj
 0005:00000480       __guard_xfg?do_locale_initialization@@YAXE@Z 000000014005b480     libucrtd:argv_winmain.obj
 0005:00000490       __guard_xfg?get_command_line@@YAPEAEE@Z 000000014005b490     libucrtd:argv_winmain.obj
 0005:000004a0       __guard_xfg?should_copy_another_character@@YA_NE@Z 000000014005b4a0     libucrtd:argv_winmain.obj
 0005:000004b0       __guard_xfg??$common_wincmdln@E@@YAPEAEXZ 000000014005b4b0     libucrtd:argv_winmain.obj
 0005:000004c0       __guard_xfg_initterm       000000014005b4c0     libucrtd:initterm.obj
 0005:000004d0       __guard_xfg_initterm_e     000000014005b4d0     libucrtd:initterm.obj
 0005:000004e0       __guard_xfgexit            000000014005b4e0     libucrtd:exit.obj
 0005:000004f0       __guard_xfg_exit           000000014005b4f0     libucrtd:exit.obj
 0005:00000500       __guard_xfg?__crt_interlocked_read_32@@YAHPEDH@Z 000000014005b500     libucrtd:exit.obj
 0005:00000510       __guard_xfg_cexit          000000014005b510     libucrtd:exit.obj
 0005:00000520       __guard_xfg_c_exit         000000014005b520     libucrtd:exit.obj
 0005:00000530       __guard_xfg_register_thread_local_exe_atexit_callback 000000014005b530     libucrtd:exit.obj
 0005:00000540       __guard_xfg__acrt_initialize_thread_local_exit_callback 000000014005b540     libucrtd:exit.obj
 0005:00000550       __guard_xfg?close@__crt_hmodule_traits@@SA_NPEAUHINSTANCE__@@@Z 000000014005b550     libucrtd:exit.obj
 0005:00000560       __guard_xfg?get_invalid_value@__crt_hmodule_traits@@SAPEAUHINSTANCE__@@XZ 000000014005b560     libucrtd:exit.obj
 0005:00000570       __guard_xfg?__acrt_select_exit_lock@@YA?AW4__acrt_lock_id@@XZ 000000014005b570     libucrtd:exit.obj
 0005:00000580       __guard_xfg?is_managed_app@@YA_NXZ 000000014005b580     libucrtd:exit.obj
 0005:00000590       __guard_xfg?try_cor_exit_process@@YAXI@Z 000000014005b590     libucrtd:exit.obj
 0005:000005a0       __guard_xfg??0?$__crt_unique_handle_t@U__crt_hmodule_traits@@@@QEAA@QEAUHINSTANCE__@@@Z 000000014005b5a0     libucrtd:exit.obj
 0005:000005b0       __guard_xfg??1?$__crt_unique_handle_t@U__crt_hmodule_traits@@@@QEAA@XZ 000000014005b5b0     libucrtd:exit.obj
 0005:000005c0       __guard_xfg?get@?$__crt_unique_handle_t@U__crt_hmodule_traits@@@@QEBAPEAUHINSTANCE__@@XZ 000000014005b5c0     libucrtd:exit.obj
 0005:000005d0       __guard_xfg?close@?$__crt_unique_handle_t@U__crt_hmodule_traits@@@@QEAAXXZ 000000014005b5d0     libucrtd:exit.obj
 0005:000005e0       __guard_xfg?get_address_of@?$__crt_unique_handle_t@U__crt_hmodule_traits@@@@QEAAPEAPEAUHINSTANCE__@@XZ 000000014005b5e0     libucrtd:exit.obj
 0005:000005f0       __guard_xfg??$__crt_get_proc_address@P6AXI@Z@@YAP6AXI@ZQEAUHINSTANCE__@@QEBD@Z 000000014005b5f0     libucrtd:exit.obj
 0005:00000600       __guard_xfg?should_call_terminate_process@@YA_NXZ 000000014005b600     libucrtd:exit.obj
 0005:00000610       __guard_xfg?exit_or_terminate_process@@YAXI@Z 000000014005b610     libucrtd:exit.obj
 0005:00000620       __guard_xfg?atexit_exception_filter@@YAHK@Z 000000014005b620     libucrtd:exit.obj
 0005:00000630       __guard_xfg??$?B$$A6AXPEAXK0@Z@__crt_fast_encoded_nullptr_t@@QEBAP6AXPEAXK0@ZXZ 000000014005b630     libucrtd:exit.obj
 0005:00000640       __guard_xfg??$__crt_fast_encode_pointer@P6AXPEAXK0@Z@@YAP6AXPEAXK0@ZQ6AX0K0@Z@Z 000000014005b640     libucrtd:exit.obj
 0005:00000650       __guard_xfg?common_exit@@YAXHW4_crt_exit_cleanup_mode@@W4_crt_exit_return_mode@@@Z 000000014005b650     libucrtd:exit.obj
 0005:00000660       __guard_xfg??R<lambda_6e4b09c48022b2350581041d5f6b0c4c>@@QEBA@XZ 000000014005b660     libucrtd:exit.obj
 0005:00000670       __guard_xfg??0<lambda_6e4b09c48022b2350581041d5f6b0c4c>@@QEAA@AEBW4_crt_exit_cleanup_mode@@AEBW4_crt_exit_return_mode@@AEA_N@Z 000000014005b670     libucrtd:exit.obj
 0005:00000680       __guard_xfg??$__crt_fast_decode_pointer@P6AXPEAXK0@Z@@YAP6AXPEAXK0@ZQ6AX0K0@Z@Z 000000014005b680     libucrtd:exit.obj
 0005:00000690       __guard_xfg??$__acrt_lock_and_call@V<lambda_6e4b09c48022b2350581041d5f6b0c4c>@@@@YAXW4__acrt_lock_id@@$$QEAV<lambda_6e4b09c48022b2350581041d5f6b0c4c>@@@Z 000000014005b690     libucrtd:exit.obj
 0005:000006a0       __guard_xfg??$__crt_interlocked_read@J@@YAJPEDJ@Z 000000014005b6a0     libucrtd:exit.obj
 0005:000006b0       __guard_xfg??R<lambda_d80eeec6fff315bfe5c115232f3240e3>@@QEBAXXZ 000000014005b6b0     libucrtd:exit.obj
 0005:000006c0       __guard_xfg??0<lambda_d80eeec6fff315bfe5c115232f3240e3>@@QEAA@AEBW4__acrt_lock_id@@@Z 000000014005b6c0     libucrtd:exit.obj
 0005:000006d0       __guard_xfg??R<lambda_2358e3775559c9db80273638284d5e45>@@QEBAXXZ 000000014005b6d0     libucrtd:exit.obj
 0005:000006e0       __guard_xfg??0<lambda_2358e3775559c9db80273638284d5e45>@@QEAA@AEBW4__acrt_lock_id@@@Z 000000014005b6e0     libucrtd:exit.obj
 0005:000006f0       __guard_xfg??$?RV<lambda_d80eeec6fff315bfe5c115232f3240e3>@@AEAV<lambda_6e4b09c48022b2350581041d5f6b0c4c>@@V<lambda_2358e3775559c9db80273638284d5e45>@@@?$__crt_seh_guarded_call@X@@QEAAX$$QEAV<lambda_d80eeec6fff315bfe5c115232f3240e3>@@AEAV<lambda_6e4b09c48022b2350581041d5f6b0c4c>@@$$QEAV<lambda_2358e3775559c9db80273638284d5e45>@@@Z 000000014005b6f0     libucrtd:exit.obj
 0005:00000700       __guard_xfg_set_fmode      000000014005b700     libucrtd:setmode.obj
 0005:00000710       __guard_xfg?value@?$dual_state_global@H@__crt_state_management@@QEAAAEAHXZ 000000014005b710     libucrtd:setmode.obj
 0005:00000720       __guard_xfg__ascii_tolower 000000014005b720     libucrtd:wsetlocale.obj
 0005:00000730       __guard_xfg__ascii_towlower 000000014005b730     libucrtd:wsetlocale.obj
 0005:00000740       __guard_xfg__acrt_set_locale_changed 000000014005b740     libucrtd:wsetlocale.obj
 0005:00000750       __guard_xfg__acrt_disable_global_locale_sync 000000014005b750     libucrtd:wsetlocale.obj
 0005:00000760       __guard_xfg__acrt_enable_global_locale_sync 000000014005b760     libucrtd:wsetlocale.obj
 0005:00000770       __guard_xfg_configthreadlocale 000000014005b770     libucrtd:wsetlocale.obj
 0005:00000780       __guard_xfg__acrt_uninitialize_locale 000000014005b780     libucrtd:wsetlocale.obj
 0005:00000790       __guard_xfg?value@?$dual_state_global@PEAU__crt_locale_data@@@__crt_state_management@@QEAAAEAPEAU__crt_locale_data@@XZ 000000014005b790     libucrtd:wsetlocale.obj
 0005:000007a0       __guard_xfg??R<lambda_3e16ef9562a7dcce91392c22ab16ea36>@@QEBA@XZ 000000014005b7a0     libucrtd:wsetlocale.obj
 0005:000007b0       __guard_xfg??R<lambda_363eea9039da1e8169e2d060c7fe5cbc>@@QEBAXAEAPEAU__crt_locale_data@@@Z 000000014005b7b0     libucrtd:wsetlocale.obj
 0005:000007c0       __guard_xfg??$uninitialize@V<lambda_363eea9039da1e8169e2d060c7fe5cbc>@@@?$dual_state_global@PEAU__crt_locale_data@@@__crt_state_management@@QEAAX$$QEAV<lambda_363eea9039da1e8169e2d060c7fe5cbc>@@@Z 000000014005b7c0     libucrtd:wsetlocale.obj
 0005:000007d0       __guard_xfg??$__acrt_lock_and_call@V<lambda_3e16ef9562a7dcce91392c22ab16ea36>@@@@YAXW4__acrt_lock_id@@$$QEAV<lambda_3e16ef9562a7dcce91392c22ab16ea36>@@@Z 000000014005b7d0     libucrtd:wsetlocale.obj
 0005:000007e0       __guard_xfg??0?$__crt_unique_heap_ptr@U__crt_multibyte_data@@U__crt_internal_free_policy@@@@QEAA@QEAU__crt_multibyte_data@@@Z 000000014005b7e0     libucrtd:wsetlocale.obj
 0005:000007f0       __guard_xfg??1?$__crt_unique_heap_ptr@U__crt_multibyte_data@@U__crt_internal_free_policy@@@@QEAA@XZ 000000014005b7f0     libucrtd:wsetlocale.obj
 0005:00000800       __guard_xfg?detach@?$__crt_unique_heap_ptr@U__crt_multibyte_data@@U__crt_internal_free_policy@@@@QEAAPEAU__crt_multibyte_data@@XZ 000000014005b800     libucrtd:wsetlocale.obj
 0005:00000810       __guard_xfg?release@?$__crt_unique_heap_ptr@U__crt_multibyte_data@@U__crt_internal_free_policy@@@@QEAAXXZ 000000014005b810     libucrtd:wsetlocale.obj
 0005:00000820       __guard_xfg?is_valid@?$__crt_unique_heap_ptr@U__crt_multibyte_data@@U__crt_internal_free_policy@@@@QEBA_NXZ 000000014005b820     libucrtd:wsetlocale.obj
 0005:00000830       __guard_xfg??B?$__crt_unique_heap_ptr@U__crt_multibyte_data@@U__crt_internal_free_policy@@@@QEBA_NXZ 000000014005b830     libucrtd:wsetlocale.obj
 0005:00000840       __guard_xfg?get@?$__crt_unique_heap_ptr@U__crt_multibyte_data@@U__crt_internal_free_policy@@@@QEBAPEAU__crt_multibyte_data@@XZ 000000014005b840     libucrtd:wsetlocale.obj
 0005:00000850       __guard_xfg??$?RU__crt_multibyte_data@@@__crt_internal_free_policy@@QEBAXQEBU__crt_multibyte_data@@@Z 000000014005b850     libucrtd:wsetlocale.obj
 0005:00000860       __guard_xfg??R<lambda_410d79af7f07d98d83a3f525b3859a53>@@QEBAXXZ 000000014005b860     libucrtd:wsetlocale.obj
 0005:00000870       __guard_xfg??0<lambda_410d79af7f07d98d83a3f525b3859a53>@@QEAA@AEBW4__acrt_lock_id@@@Z 000000014005b870     libucrtd:wsetlocale.obj
 0005:00000880       __guard_xfg??R<lambda_38119f0e861e05405d8a144b9b982f0a>@@QEBAXXZ 000000014005b880     libucrtd:wsetlocale.obj
 0005:00000890       __guard_xfg??0<lambda_38119f0e861e05405d8a144b9b982f0a>@@QEAA@AEBW4__acrt_lock_id@@@Z 000000014005b890     libucrtd:wsetlocale.obj
 0005:000008a0       __guard_xfg??$?RV<lambda_410d79af7f07d98d83a3f525b3859a53>@@AEAV<lambda_3e16ef9562a7dcce91392c22ab16ea36>@@V<lambda_38119f0e861e05405d8a144b9b982f0a>@@@?$__crt_seh_guarded_call@X@@QEAAX$$QEAV<lambda_410d79af7f07d98d83a3f525b3859a53>@@AEAV<lambda_3e16ef9562a7dcce91392c22ab16ea36>@@$$QEAV<lambda_38119f0e861e05405d8a144b9b982f0a>@@@Z 000000014005b8a0     libucrtd:wsetlocale.obj
 0005:000008b0       __guard_xfg_query_new_mode 000000014005b8b0     libucrtd:new_mode.obj
 0005:000008c0       __guard_xfg_set_new_mode   000000014005b8c0     libucrtd:new_mode.obj
 0005:000008d0       __guard_xfg?value@?$dual_state_global@J@__crt_state_management@@QEAAAEAJXZ 000000014005b8d0     libucrtd:new_mode.obj
 0005:000008e0       __guard_xfg__p__commode    000000014005b8e0     libucrtd:ncommode.obj
 0005:000008f0       __guard_xfg_initialize_onexit_table 000000014005b8f0     libucrtd:onexit.obj
 0005:00000900       __guard_xfg_register_onexit_function 000000014005b900     libucrtd:onexit.obj
 0005:00000910       __guard_xfg_execute_onexit_table 000000014005b910     libucrtd:onexit.obj
 0005:00000920       __guard_xfg_crt_atexit     000000014005b920     libucrtd:onexit.obj
 0005:00000930       __guard_xfg??1scoped_global_state_reset@__crt_state_management@@QEAA@XZ 000000014005b930     libucrtd:onexit.obj
 0005:00000940       __guard_xfg??$?BP6AXXZ@__crt_fast_encoded_nullptr_t@@QEBAPEAP6AXXZXZ 000000014005b940     libucrtd:onexit.obj
 0005:00000950       __guard_xfg??R<lambda_208ce30acdd7200aa596f2796f4d5154>@@QEBAHXZ 000000014005b950     libucrtd:onexit.obj
 0005:00000960       __guard_xfg??0<lambda_208ce30acdd7200aa596f2796f4d5154>@@QEAA@AEBQEAU_onexit_table_t@@AEBQ6AHXZ@Z 000000014005b960     libucrtd:onexit.obj
 0005:00000970       __guard_xfg??0?$__crt_unique_heap_ptr@P6AXXZU__crt_internal_free_policy@@@@QEAA@QEAP6AXXZ@Z 000000014005b970     libucrtd:onexit.obj
 0005:00000980       __guard_xfg??1?$__crt_unique_heap_ptr@P6AXXZU__crt_internal_free_policy@@@@QEAA@XZ 000000014005b980     libucrtd:onexit.obj
 0005:00000990       __guard_xfg?detach@?$__crt_unique_heap_ptr@P6AXXZU__crt_internal_free_policy@@@@QEAAPEAP6AXXZXZ 000000014005b990     libucrtd:onexit.obj
 0005:000009a0       __guard_xfg?release@?$__crt_unique_heap_ptr@P6AXXZU__crt_internal_free_policy@@@@QEAAXXZ 000000014005b9a0     libucrtd:onexit.obj
 0005:000009b0       __guard_xfg??$__crt_fast_encode_pointer@P6AHXZ@@YAP6AHXZQ6AHXZ@Z 000000014005b9b0     libucrtd:onexit.obj
 0005:000009c0       __guard_xfg??$__acrt_lock_and_call@V<lambda_208ce30acdd7200aa596f2796f4d5154>@@@@YAHW4__acrt_lock_id@@$$QEAV<lambda_208ce30acdd7200aa596f2796f4d5154>@@@Z 000000014005b9c0     libucrtd:onexit.obj
 0005:000009d0       __guard_xfg??R<lambda_d121dba8a4adeaf3a9819e48611155df>@@QEBAHXZ 000000014005b9d0     libucrtd:onexit.obj
 0005:000009e0       __guard_xfg??0<lambda_d121dba8a4adeaf3a9819e48611155df>@@QEAA@AEBQEAU_onexit_table_t@@@Z 000000014005b9e0     libucrtd:onexit.obj
 0005:000009f0       __guard_xfg??$__acrt_lock_and_call@V<lambda_d121dba8a4adeaf3a9819e48611155df>@@@@YAHW4__acrt_lock_id@@$$QEAV<lambda_d121dba8a4adeaf3a9819e48611155df>@@@Z 000000014005b9f0     libucrtd:onexit.obj
 0005:00000a00       __guard_xfg??$?RP6AXXZ@__crt_internal_free_policy@@QEBAXQEBQ6AXXZ@Z 000000014005ba00     libucrtd:onexit.obj
 0005:00000a10       __guard_xfg??R<lambda_80060f20ac3990516b753a27f211934c>@@QEBAXXZ 000000014005ba10     libucrtd:onexit.obj
 0005:00000a20       __guard_xfg??0<lambda_80060f20ac3990516b753a27f211934c>@@QEAA@AEBW4__acrt_lock_id@@@Z 000000014005ba20     libucrtd:onexit.obj
 0005:00000a30       __guard_xfg??R<lambda_fd91b99c0687e8936f1d70d7d9b78e69>@@QEBAXXZ 000000014005ba30     libucrtd:onexit.obj
 0005:00000a40       __guard_xfg??0<lambda_fd91b99c0687e8936f1d70d7d9b78e69>@@QEAA@AEBW4__acrt_lock_id@@@Z 000000014005ba40     libucrtd:onexit.obj
 0005:00000a50       __guard_xfg??$?RV<lambda_80060f20ac3990516b753a27f211934c>@@AEAV<lambda_208ce30acdd7200aa596f2796f4d5154>@@V<lambda_fd91b99c0687e8936f1d70d7d9b78e69>@@@?$__crt_seh_guarded_call@H@@QEAAH$$QEAV<lambda_80060f20ac3990516b753a27f211934c>@@AEAV<lambda_208ce30acdd7200aa596f2796f4d5154>@@$$QEAV<lambda_fd91b99c0687e8936f1d70d7d9b78e69>@@@Z 000000014005ba50     libucrtd:onexit.obj
 0005:00000a60       __guard_xfg??R<lambda_6a47f4c8fd0152770a780fc1d70204eb>@@QEBAXXZ 000000014005ba60     libucrtd:onexit.obj
 0005:00000a70       __guard_xfg??0<lambda_6a47f4c8fd0152770a780fc1d70204eb>@@QEAA@AEBW4__acrt_lock_id@@@Z 000000014005ba70     libucrtd:onexit.obj
 0005:00000a80       __guard_xfg??R<lambda_6aaa2265f5b6a89667e7d7630012e97a>@@QEBAXXZ 000000014005ba80     libucrtd:onexit.obj
 0005:00000a90       __guard_xfg??0<lambda_6aaa2265f5b6a89667e7d7630012e97a>@@QEAA@AEBW4__acrt_lock_id@@@Z 000000014005ba90     libucrtd:onexit.obj
 0005:00000aa0       __guard_xfg??$?RV<lambda_6a47f4c8fd0152770a780fc1d70204eb>@@AEAV<lambda_d121dba8a4adeaf3a9819e48611155df>@@V<lambda_6aaa2265f5b6a89667e7d7630012e97a>@@@?$__crt_seh_guarded_call@H@@QEAAH$$QEAV<lambda_6a47f4c8fd0152770a780fc1d70204eb>@@AEAV<lambda_d121dba8a4adeaf3a9819e48611155df>@@$$QEAV<lambda_6aaa2265f5b6a89667e7d7630012e97a>@@@Z 000000014005baa0     libucrtd:onexit.obj
 0005:00000ab0       __guard_xfg__acrt_initialize 000000014005bab0     libucrtd:initialization.obj
 0005:00000ac0       __guard_xfg__acrt_uninitialize 000000014005bac0     libucrtd:initialization.obj
 0005:00000ad0       __guard_xfginitialize_global_variables 000000014005bad0     libucrtd:initialization.obj
 0005:00000ae0       __guard_xfg?initialize@?$dual_state_global@PEAU__crt_locale_data@@@__crt_state_management@@QEAAXQEAU__crt_locale_data@@@Z 000000014005bae0     libucrtd:initialization.obj
 0005:00000af0       __guard_xfginitialize_c    000000014005baf0     libucrtd:initialization.obj
 0005:00000b00       __guard_xfguninitialize_c  000000014005bb00     libucrtd:initialization.obj
 0005:00000b10       __guard_xfginitialize_environment 000000014005bb10     libucrtd:initialization.obj
 0005:00000b20       __guard_xfguninitialize_environment 000000014005bb20     libucrtd:initialization.obj
 0005:00000b30       __guard_xfginitialize_global_state_isolation 000000014005bb30     libucrtd:initialization.obj
 0005:00000b40       __guard_xfguninitialize_global_state_isolation 000000014005bb40     libucrtd:initialization.obj
 0005:00000b50       __guard_xfginitialize_pointers 000000014005bb50     libucrtd:initialization.obj
 0005:00000b60       __guard_xfguninitialize_vcruntime 000000014005bb60     libucrtd:initialization.obj
 0005:00000b70       __guard_xfguninitialize_allocated_memory 000000014005bb70     libucrtd:initialization.obj
 0005:00000b80       __guard_xfg??R<lambda_af27fe6ede5d83bbdbd622796c194e9c>@@QEBAXAEAPEAU__crt_multibyte_data@@@Z 000000014005bb80     libucrtd:initialization.obj
 0005:00000b90       __guard_xfg??$uninitialize@V<lambda_af27fe6ede5d83bbdbd622796c194e9c>@@@?$dual_state_global@PEAU__crt_multibyte_data@@@__crt_state_management@@QEAAX$$QEAV<lambda_af27fe6ede5d83bbdbd622796c194e9c>@@@Z 000000014005bb90     libucrtd:initialization.obj
 0005:00000ba0       __guard_xfguninitialize_allocated_io_buffers 000000014005bba0     libucrtd:initialization.obj
 0005:00000bb0       __guard_xfgreport_memory_leaks 000000014005bbb0     libucrtd:initialization.obj
 0005:00000bc0       __guard_xfgterminate       000000014005bbc0     libucrtd:terminate.obj
 0005:00000bd0       __guard_xfg_CrtSetDumpClient 000000014005bbd0     libucrtd:debug_heap.obj
 0005:00000be0       __guard_xfg_CrtCheckMemory 000000014005bbe0     libucrtd:debug_heap.obj
 0005:00000bf0       __guard_xfg_CrtDumpMemoryLeaks 000000014005bbf0     libucrtd:debug_heap.obj
 0005:00000c00       __guard_xfg_CrtIsValidHeapPointer 000000014005bc00     libucrtd:debug_heap.obj
 0005:00000c10       __guard_xfg_CrtIsValidPointer 000000014005bc10     libucrtd:debug_heap.obj
 0005:00000c20       __guard_xfg_CrtMemCheckpoint 000000014005bc20     libucrtd:debug_heap.obj
 0005:00000c30       __guard_xfg_CrtMemDumpAllObjectsSince 000000014005bc30     libucrtd:debug_heap.obj
 0005:00000c40       __guard_xfg_CrtSetDbgFlag  000000014005bc40     libucrtd:debug_heap.obj
 0005:00000c50       __guard_xfg_calloc_dbg     000000014005bc50     libucrtd:debug_heap.obj
 0005:00000c60       __guard_xfg_free_dbg       000000014005bc60     libucrtd:debug_heap.obj
 0005:00000c70       __guard_xfg_malloc_dbg     000000014005bc70     libucrtd:debug_heap.obj
 0005:00000c80       __guard_xfg_msize_dbg      000000014005bc80     libucrtd:debug_heap.obj
 0005:00000c90       __guard_xfg_realloc_dbg    000000014005bc90     libucrtd:debug_heap.obj
 0005:00000ca0       __guard_xfg_recalloc_dbg   000000014005bca0     libucrtd:debug_heap.obj
 0005:00000cb0       __guard_xfg__acrt_get_locale_data_prefix 000000014005bcb0     libucrtd:debug_heap.obj
 0005:00000cc0       __guard_xfg_chvalidchk_l   000000014005bcc0     libucrtd:debug_heap.obj
 0005:00000cd0       __guard_xfg_ischartype_l   000000014005bcd0     libucrtd:debug_heap.obj
 0005:00000ce0       __guard_xfg__acrt_locale_changed 000000014005bce0     libucrtd:debug_heap.obj
 0005:00000cf0       __guard_xfg_invoke_watson_if_oneof 000000014005bcf0     libucrtd:debug_heap.obj
 0005:00000d00       __guard_xfg??0_LocaleUpdate@@QEAA@QEAU__crt_locale_pointers@@@Z 000000014005bd00     libucrtd:debug_heap.obj
 0005:00000d10       __guard_xfg??1_LocaleUpdate@@QEAA@XZ 000000014005bd10     libucrtd:debug_heap.obj
 0005:00000d20       __guard_xfg?GetLocaleT@_LocaleUpdate@@QEAAPEAU__crt_locale_pointers@@XZ 000000014005bd20     libucrtd:debug_heap.obj
 0005:00000d30       __guard_xfg?block_from_header@@YAPEAEQEAU_CrtMemBlockHeader@@@Z 000000014005bd30     libucrtd:debug_heap.obj
 0005:00000d40       __guard_xfg?header_from_block@@YAPEAU_CrtMemBlockHeader@@QEBX@Z 000000014005bd40     libucrtd:debug_heap.obj
 0005:00000d50       __guard_xfg?is_block_type_valid@@YA_NH@Z 000000014005bd50     libucrtd:debug_heap.obj
 0005:00000d60       __guard_xfg?check_bytes@@YA_NQEBEE_K@Z 000000014005bd60     libucrtd:debug_heap.obj
 0005:00000d70       __guard_xfg?is_bad_read_pointer@@YA_NQEBX_K@Z 000000014005bd70     libucrtd:debug_heap.obj
 0005:00000d80       __guard_xfg?is_block_an_aligned_allocation@@YA_NQEBX@Z 000000014005bd80     libucrtd:debug_heap.obj
 0005:00000d90       __guard_xfg?validate_heap_if_required_nolock@@YAXXZ 000000014005bd90     libucrtd:debug_heap.obj
 0005:00000da0       __guard_xfg?heap_alloc_dbg_internal@@YAPEAX_KHQEBDH@Z 000000014005bda0     libucrtd:debug_heap.obj
 0005:00000db0       __guard_xfg?heap_alloc_dbg@@YAPEAX_KHQEBDH@Z 000000014005bdb0     libucrtd:debug_heap.obj
 0005:00000dc0       __guard_xfg?realloc_dbg_nolock@@YAPEAXQEAXQEA_KHQEBDH_N@Z 000000014005bdc0     libucrtd:debug_heap.obj
 0005:00000dd0       __guard_xfg?free_dbg_nolock@@YAXQEAXH@Z 000000014005bdd0     libucrtd:debug_heap.obj
 0005:00000de0       __guard_xfg?check_block@@YA_NQEAU_CrtMemBlockHeader@@@Z 000000014005bde0     libucrtd:debug_heap.obj
 0005:00000df0       __guard_xfg?print_block_data@@YAXQEAU__crt_locale_pointers@@QEAU_CrtMemBlockHeader@@@Z 000000014005bdf0     libucrtd:debug_heap.obj
 0005:00000e00       __guard_xfg?dump_all_object_since_nolock@@YAXQEBU_CrtMemState@@@Z 000000014005be00     libucrtd:debug_heap.obj
 0005:00000e10       __guard_xfgstrcpy_s        000000014005be10     libucrtd:strcpy_s.obj
 0005:00000e20       __guard_xfg??$common_tcscpy_s@D@@YAHQEAD_KQEBD@Z 000000014005be20     libucrtd:strcpy_s.obj
 0005:00000e30       __guard_xfgabort           000000014005be30     libucrtd:abort.obj
 0005:00000e40       __guard_xfg_CrtDbgReport   000000014005be40     libucrtd:dbgrpt.obj
 0005:00000e50       __guard_xfg_CrtDbgReportW  000000014005be50     libucrtd:dbgrpt.obj
 0005:00000e60       __guard_xfg_vsnwprintf_s_l 000000014005be60     libucrtd:dbgrpt.obj
 0005:00000e70       __guard_xfg_snwprintf_s    000000014005be70     libucrtd:dbgrpt.obj
 0005:00000e80       __guard_xfg?get_output_message_format@@YAPEB_WD@Z 000000014005be80     libucrtd:dbgrpt.obj
 0005:00000e90       __guard_xfg?get_output_message_format@@YAPEB_W_W@Z 000000014005be90     libucrtd:dbgrpt.obj
 0005:00000ea0       __guard_xfg?get_program_name_unknown_text@@YAPEBDD@Z 000000014005bea0     libucrtd:dbgrpt.obj
 0005:00000eb0       __guard_xfg?get_program_name_unknown_text@@YAPEB_W_W@Z 000000014005beb0     libucrtd:dbgrpt.obj
 0005:00000ec0       __guard_xfg__acrt_MessageWindowA 000000014005bec0     libucrtd:dbgrpt.obj
 0005:00000ed0       __guard_xfg??$common_message_window@D@@YAHHQEAXQEBD111@Z 000000014005bed0     libucrtd:dbgrpt.obj
 0005:00000ee0       __guard_xfg__acrt_MessageWindowW 000000014005bee0     libucrtd:dbgrpt.obj
 0005:00000ef0       __guard_xfg??$common_message_window@_W@@YAHHQEAXQEB_W111@Z 000000014005bef0     libucrtd:dbgrpt.obj
 0005:00000f00       __guard_xfg??$get_module_file_name@AEAPEAUHINSTANCE__@@AEAY0BAF@DK@?$__crt_char_traits@D@@SAKAEAPEAUHINSTANCE__@@AEAY0BAF@D$$QEAK@Z 000000014005bf00     libucrtd:dbgrpt.obj
 0005:00000f10       __guard_xfg??$tcscpy_s@AEAY0BAF@D_KPEBD@?$__crt_char_traits@D@@SAHAEAY0BAF@D$$QEA_K$$QEAPEBD@Z 000000014005bf10     libucrtd:dbgrpt.obj
 0005:00000f20       __guard_xfg??$tcslen@AEAY0BAF@D@?$__crt_char_traits@D@@SA_KAEAY0BAF@D@Z 000000014005bf20     libucrtd:dbgrpt.obj
 0005:00000f30       __guard_xfg??$tcslen@AEBQEBD@?$__crt_char_traits@D@@SA_KAEBQEBD@Z 000000014005bf30     libucrtd:dbgrpt.obj
 0005:00000f40       __guard_xfg??$get_module_file_name@AEAPEAUHINSTANCE__@@AEAY0BAF@_WK@?$__crt_char_traits@_W@@SAKAEAPEAUHINSTANCE__@@AEAY0BAF@_W$$QEAK@Z 000000014005bf40     libucrtd:dbgrpt.obj
 0005:00000f50       __guard_xfg??$tcscpy_s@AEAY0BAF@_W_KPEB_W@?$__crt_char_traits@_W@@SAHAEAY0BAF@_W$$QEA_K$$QEAPEB_W@Z 000000014005bf50     libucrtd:dbgrpt.obj
 0005:00000f60       __guard_xfg??$tcslen@AEAY0BAF@_W@?$__crt_char_traits@_W@@SA_KAEAY0BAF@_W@Z 000000014005bf60     libucrtd:dbgrpt.obj
 0005:00000f70       __guard_xfg??$tcslen@AEBQEB_W@?$__crt_char_traits@_W@@SA_KAEBQEB_W@Z 000000014005bf70     libucrtd:dbgrpt.obj
 0005:00000f80       __guard_xfgwcsncmp         000000014005bf80     libucrtd:wcsncmp.obj
 0005:00000f90       __guard_xfg__acrt_locale_get_ctype_array_value 000000014005bf90     libucrtd:output.obj
 0005:00000fa0       __guard_xfg__ascii_toupper 000000014005bfa0     libucrtd:output.obj
 0005:00000fb0       __guard_xfg__ascii_iswalpha 000000014005bfb0     libucrtd:output.obj
 0005:00000fc0       __guard_xfg__ascii_towupper 000000014005bfc0     libucrtd:output.obj
 0005:00000fd0       __guard_xfg__acrt_isleadbyte_l_noupdate 000000014005bfd0     libucrtd:output.obj
 0005:00000fe0       __guard_xfg_tolower_fast_internal 000000014005bfe0     libucrtd:output.obj
 0005:00000ff0       __guard_xfg_ctype_fast_check_internal 000000014005bff0     libucrtd:output.obj
 0005:00001000       __guard_xfg_isdigit_fast_internal 000000014005c000     libucrtd:output.obj
 0005:00001010       __guard_xfg??0__crt_scoped_get_last_error_reset@@QEAA@XZ 000000014005c010     libucrtd:output.obj
 0005:00001020       __guard_xfg??1__crt_scoped_get_last_error_reset@@QEAA@XZ 000000014005c020     libucrtd:output.obj
 0005:00001030       __guard_xfg?get_current_state_index@__crt_state_management@@YA_KAEBV__crt_scoped_get_last_error_reset@@@Z 000000014005c030     libucrtd:output.obj
 0005:00001040       __guard_xfg__stdio_common_vsnwprintf_s 000000014005c040     libucrtd:output.obj
 0005:00001050       __guard_xfg__stdio_common_vsprintf_s 000000014005c050     libucrtd:output.obj
 0005:00001060       __guard_xfg__stdio_common_vsnprintf_s 000000014005c060     libucrtd:output.obj
 0005:00001070       __guard_xfg??0__crt_stdio_stream@@QEAA@QEAU_iobuf@@@Z 000000014005c070     libucrtd:output.obj
 0005:00001080       __guard_xfg?valid@__crt_stdio_stream@@QEBA_NXZ 000000014005c080     libucrtd:output.obj
 0005:00001090       __guard_xfg?public_stream@__crt_stdio_stream@@QEBAPEAU_iobuf@@XZ 000000014005c090     libucrtd:output.obj
 0005:000010a0       __guard_xfg?is_string_backed@__crt_stdio_stream@@QEBA_NXZ 000000014005c0a0     libucrtd:output.obj
 0005:000010b0       __guard_xfg??C__crt_stdio_stream@@QEBAPEAU__crt_stdio_stream_data@@XZ 000000014005c0b0     libucrtd:output.obj
 0005:000010c0       __guard_xfg?get_flags@__crt_stdio_stream@@QEBAJXZ 000000014005c0c0     libucrtd:output.obj
 0005:000010d0       __guard_xfg??0__crt_cached_ptd_host@@QEAA@QEAU__crt_locale_pointers@@@Z 000000014005c0d0     libucrtd:output.obj
 0005:000010e0       __guard_xfg??1__crt_cached_ptd_host@@QEAA@XZ 000000014005c0e0     libucrtd:output.obj
 0005:000010f0       __guard_xfg?get_locale@__crt_cached_ptd_host@@QEAAPEAU__crt_locale_pointers@@XZ 000000014005c0f0     libucrtd:output.obj
 0005:00001100       __guard_xfg?get_raw_ptd@__crt_cached_ptd_host@@QEAAPEAU__acrt_ptd@@XZ 000000014005c100     libucrtd:output.obj
 0005:00001110       __guard_xfg?get_errno@__crt_cached_ptd_host@@QEAAAEAU?$cached@H@1@XZ 000000014005c110     libucrtd:output.obj
 0005:00001120       __guard_xfg?update_locale@__crt_cached_ptd_host@@AEAAXXZ 000000014005c120     libucrtd:output.obj
 0005:00001130       __guard_xfg?update_locale_slow@__crt_cached_ptd_host@@AEAAXXZ 000000014005c130     libucrtd:output.obj
 0005:00001140       __guard_xfg?check_synchronize_per_thread_data@__crt_cached_ptd_host@@AEAAPEAU__acrt_ptd@@XZ 000000014005c140     libucrtd:output.obj
 0005:00001150       __guard_xfg?force_synchronize_per_thread_data@__crt_cached_ptd_host@@AEAAPEAU__acrt_ptd@@XZ 000000014005c150     libucrtd:output.obj
 0005:00001160       __guard_xfg?check_synchronize_global_state_index@__crt_cached_ptd_host@@AEAA_KAEBV__crt_scoped_get_last_error_reset@@@Z 000000014005c160     libucrtd:output.obj
 0005:00001170       __guard_xfg?force_synchronize_global_state_index@__crt_cached_ptd_host@@AEAA_KAEBV__crt_scoped_get_last_error_reset@@@Z 000000014005c170     libucrtd:output.obj
 0005:00001180       __guard_xfg??0?$cached@H@__crt_cached_ptd_host@@QEAA@XZ 000000014005c180     libucrtd:output.obj
 0005:00001190       __guard_xfg?valid@?$cached@H@__crt_cached_ptd_host@@QEBA_NXZ 000000014005c190     libucrtd:output.obj
 0005:000011a0       __guard_xfg?set@?$cached@H@__crt_cached_ptd_host@@QEAAHH@Z 000000014005c1a0     libucrtd:output.obj
 0005:000011b0       __guard_xfg?check@?$cached@H@__crt_cached_ptd_host@@QEBA_NH@Z 000000014005c1b0     libucrtd:output.obj
 0005:000011c0       __guard_xfg?create_guard@?$cached@H@__crt_cached_ptd_host@@QEAA?AVguard@12@XZ 000000014005c1c0     libucrtd:output.obj
 0005:000011d0       __guard_xfg?unsafe_value@?$cached@H@__crt_cached_ptd_host@@QEAAHXZ 000000014005c1d0     libucrtd:output.obj
 0005:000011e0       __guard_xfg??0?$cached@K@__crt_cached_ptd_host@@QEAA@XZ 000000014005c1e0     libucrtd:output.obj
 0005:000011f0       __guard_xfg?valid@?$cached@K@__crt_cached_ptd_host@@QEBA_NXZ 000000014005c1f0     libucrtd:output.obj
 0005:00001200       __guard_xfg?unsafe_value@?$cached@K@__crt_cached_ptd_host@@QEAAKXZ 000000014005c200     libucrtd:output.obj
 0005:00001210       __guard_xfg?wide_character_to_digit@__crt_strtox@@YAH_W@Z 000000014005c210     libucrtd:output.obj
 0005:00001220       __guard_xfg?parse_digit@__crt_strtox@@YAID@Z 000000014005c220     libucrtd:output.obj
 0005:00001230       __guard_xfg?parse_digit@__crt_strtox@@YAI_W@Z 000000014005c230     libucrtd:output.obj
 0005:00001240       __guard_xfg?minimum_signed_value@__crt_strtox@@YAJK@Z 000000014005c240     libucrtd:output.obj
 0005:00001250       __guard_xfg?maximum_signed_value@__crt_strtox@@YAJK@Z 000000014005c250     libucrtd:output.obj
 0005:00001260       __guard_xfg??0formatting_buffer@__crt_stdio_output@@QEAA@XZ 000000014005c260     libucrtd:output.obj
 0005:00001270       __guard_xfg??4?$__crt_unique_heap_ptr@DU__crt_internal_free_policy@@@@QEAAAEAV0@$$QEAV0@@Z 000000014005c270     libucrtd:output.obj
 0005:00001280       __guard_xfg??1formatting_buffer@__crt_stdio_output@@QEAA@XZ 000000014005c280     libucrtd:output.obj
 0005:00001290       __guard_xfg?force_decimal_point@__crt_stdio_output@@YAXPEADQEAU__crt_locale_pointers@@@Z 000000014005c290     libucrtd:output.obj
 0005:000012a0       __guard_xfg?crop_zeroes@__crt_stdio_output@@YAXPEADQEAU__crt_locale_pointers@@@Z 000000014005c2a0     libucrtd:output.obj
 0005:000012b0       __guard_xfg??A?$spectre_mitigated_lookup_table@Ustate_transition_pair@__crt_stdio_output@@$0IA@@__crt_stdio_output@@QEBAAEBUstate_transition_pair@1@_K@Z 000000014005c2b0     libucrtd:output.obj
 0005:000012c0       __guard_xfg?to_integer_size@__crt_stdio_output@@YA_KW4length_modifier@1@@Z 000000014005c2c0     libucrtd:output.obj
 0005:000012d0       __guard_xfg??$common_vsprintf_s@D@@YAH_KQEAD0QEBDAEAV__crt_cached_ptd_host@@1@Z 000000014005c2d0     libucrtd:output.obj
 0005:000012e0       __guard_xfg??$common_vsnprintf_s@D@@YAH_KQEAD00QEBDAEAV__crt_cached_ptd_host@@1@Z 000000014005c2e0     libucrtd:output.obj
 0005:000012f0       __guard_xfg??$common_vsnprintf_s@_W@@YAH_KQEA_W00QEB_WAEAV__crt_cached_ptd_host@@QEAD@Z 000000014005c2f0     libucrtd:output.obj
 0005:00001300       __guard_xfg??0?$common_data@D@__crt_stdio_output@@IEAA@AEAV__crt_cached_ptd_host@@@Z 000000014005c300     libucrtd:output.obj
 0005:00001310       __guard_xfg?tchar_string@?$common_data@D@__crt_stdio_output@@IEAAAEAPEADD@Z 000000014005c310     libucrtd:output.obj
 0005:00001320       __guard_xfg?tchar_string@?$common_data@D@__crt_stdio_output@@IEAAAEAPEADXZ 000000014005c320     libucrtd:output.obj
 0005:00001330       __guard_xfg??1?$common_data@D@__crt_stdio_output@@QEAA@XZ 000000014005c330     libucrtd:output.obj
 0005:00001340       __guard_xfg??0?$common_data@_W@__crt_stdio_output@@IEAA@AEAV__crt_cached_ptd_host@@@Z 000000014005c340     libucrtd:output.obj
 0005:00001350       __guard_xfg?tchar_string@?$common_data@_W@__crt_stdio_output@@IEAAAEAPEA_W_W@Z 000000014005c350     libucrtd:output.obj
 0005:00001360       __guard_xfg?tchar_string@?$common_data@_W@__crt_stdio_output@@IEAAAEAPEA_WXZ 000000014005c360     libucrtd:output.obj
 0005:00001370       __guard_xfg??1?$common_data@_W@__crt_stdio_output@@QEAA@XZ 000000014005c370     libucrtd:output.obj
 0005:00001380       __guard_xfg??0?$string_output_adapter@D@__crt_stdio_output@@QEAA@QEAU?$string_output_adapter_context@D@1@@Z 000000014005c380     libucrtd:output.obj
 0005:00001390       __guard_xfg?validate@?$string_output_adapter@D@__crt_stdio_output@@QEBA_NAEAV__crt_cached_ptd_host@@@Z 000000014005c390     libucrtd:output.obj
 0005:000013a0       __guard_xfg?write_character@?$string_output_adapter@D@__crt_stdio_output@@QEBA_NDQEAHAEAV__crt_cached_ptd_host@@@Z 000000014005c3a0     libucrtd:output.obj
 0005:000013b0       __guard_xfg?write_string@?$string_output_adapter@D@__crt_stdio_output@@QEBAXQEBDHQEAHAEAV__crt_cached_ptd_host@@@Z 000000014005c3b0     libucrtd:output.obj
 0005:000013c0       __guard_xfg??0?$output_adapter_data@DV?$string_output_adapter@D@__crt_stdio_output@@@__crt_stdio_output@@IEAA@AEBV?$string_output_adapter@D@1@_KQEBDAEAV__crt_cached_ptd_host@@QEAD@Z 000000014005c3c0     libucrtd:output.obj
 0005:000013d0       __guard_xfg??1?$output_adapter_data@DV?$string_output_adapter@D@__crt_stdio_output@@@__crt_stdio_output@@QEAA@XZ 000000014005c3d0     libucrtd:output.obj
 0005:000013e0       __guard_xfg?advance_to_next_pass@?$standard_base@DV?$string_output_adapter@D@__crt_stdio_output@@@__crt_stdio_output@@IEAA_NXZ 000000014005c3e0     libucrtd:output.obj
 0005:000013f0       __guard_xfg?should_format@?$standard_base@DV?$string_output_adapter@D@__crt_stdio_output@@@__crt_stdio_output@@IEAA_NXZ 000000014005c3f0     libucrtd:output.obj
 0005:00001400       __guard_xfg?update_field_width@?$standard_base@DV?$string_output_adapter@D@__crt_stdio_output@@@__crt_stdio_output@@IEAA_NXZ 000000014005c400     libucrtd:output.obj
 0005:00001410       __guard_xfg?update_precision@?$standard_base@DV?$string_output_adapter@D@__crt_stdio_output@@@__crt_stdio_output@@IEAA_NXZ 000000014005c410     libucrtd:output.obj
 0005:00001420       __guard_xfg?validate_state_for_type_case_a@?$standard_base@DV?$string_output_adapter@D@__crt_stdio_output@@@__crt_stdio_output@@IEBA_NXZ 000000014005c420     libucrtd:output.obj
 0005:00001430       __guard_xfg?should_skip_normal_state_processing@?$standard_base@DV?$string_output_adapter@D@__crt_stdio_output@@@__crt_stdio_output@@IEAA_NXZ 000000014005c430     libucrtd:output.obj
 0005:00001440       __guard_xfg?validate_and_update_state_at_beginning_of_format_character@?$standard_base@DV?$string_output_adapter@D@__crt_stdio_output@@@__crt_stdio_output@@IEAA_NXZ 000000014005c440     libucrtd:output.obj
 0005:00001450       __guard_xfg?should_skip_type_state_output@?$standard_base@DV?$string_output_adapter@D@__crt_stdio_output@@@__crt_stdio_output@@IEBA_NXZ 000000014005c450     libucrtd:output.obj
 0005:00001460       __guard_xfg??1?$standard_base@DV?$string_output_adapter@D@__crt_stdio_output@@@__crt_stdio_output@@QEAA@XZ 000000014005c460     libucrtd:output.obj
 0005:00001470       __guard_xfg??0?$string_output_adapter@_W@__crt_stdio_output@@QEAA@QEAU?$string_output_adapter_context@_W@1@@Z 000000014005c470     libucrtd:output.obj
 0005:00001480       __guard_xfg?validate@?$string_output_adapter@_W@__crt_stdio_output@@QEBA_NAEAV__crt_cached_ptd_host@@@Z 000000014005c480     libucrtd:output.obj
 0005:00001490       __guard_xfg?write_character@?$string_output_adapter@_W@__crt_stdio_output@@QEBA_N_WQEAHAEAV__crt_cached_ptd_host@@@Z 000000014005c490     libucrtd:output.obj
 0005:000014a0       __guard_xfg?write_string@?$string_output_adapter@_W@__crt_stdio_output@@QEBAXQEB_WHQEAHAEAV__crt_cached_ptd_host@@@Z 000000014005c4a0     libucrtd:output.obj
 0005:000014b0       __guard_xfg??0?$output_adapter_data@_WV?$string_output_adapter@_W@__crt_stdio_output@@@__crt_stdio_output@@IEAA@AEBV?$string_output_adapter@_W@1@_KQEB_WAEAV__crt_cached_ptd_host@@QEAD@Z 000000014005c4b0     libucrtd:output.obj
 0005:000014c0       __guard_xfg??1?$output_adapter_data@_WV?$string_output_adapter@_W@__crt_stdio_output@@@__crt_stdio_output@@QEAA@XZ 000000014005c4c0     libucrtd:output.obj
 0005:000014d0       __guard_xfg?advance_to_next_pass@?$standard_base@_WV?$string_output_adapter@_W@__crt_stdio_output@@@__crt_stdio_output@@IEAA_NXZ 000000014005c4d0     libucrtd:output.obj
 0005:000014e0       __guard_xfg?should_format@?$standard_base@_WV?$string_output_adapter@_W@__crt_stdio_output@@@__crt_stdio_output@@IEAA_NXZ 000000014005c4e0     libucrtd:output.obj
 0005:000014f0       __guard_xfg?update_field_width@?$standard_base@_WV?$string_output_adapter@_W@__crt_stdio_output@@@__crt_stdio_output@@IEAA_NXZ 000000014005c4f0     libucrtd:output.obj
 0005:00001500       __guard_xfg?update_precision@?$standard_base@_WV?$string_output_adapter@_W@__crt_stdio_output@@@__crt_stdio_output@@IEAA_NXZ 000000014005c500     libucrtd:output.obj
 0005:00001510       __guard_xfg?validate_state_for_type_case_a@?$standard_base@_WV?$string_output_adapter@_W@__crt_stdio_output@@@__crt_stdio_output@@IEBA_NXZ 000000014005c510     libucrtd:output.obj
 0005:00001520       __guard_xfg?should_skip_normal_state_processing@?$standard_base@_WV?$string_output_adapter@_W@__crt_stdio_output@@@__crt_stdio_output@@IEAA_NXZ 000000014005c520     libucrtd:output.obj
 0005:00001530       __guard_xfg?validate_and_update_state_at_beginning_of_format_character@?$standard_base@_WV?$string_output_adapter@_W@__crt_stdio_output@@@__crt_stdio_output@@IEAA_NXZ 000000014005c530     libucrtd:output.obj
 0005:00001540       __guard_xfg?should_skip_type_state_output@?$standard_base@_WV?$string_output_adapter@_W@__crt_stdio_output@@@__crt_stdio_output@@IEBA_NXZ 000000014005c540     libucrtd:output.obj
 0005:00001550       __guard_xfg??1?$standard_base@_WV?$string_output_adapter@_W@__crt_stdio_output@@@__crt_stdio_output@@QEAA@XZ 000000014005c550     libucrtd:output.obj
 0005:00001560       __guard_xfg??$common_vsprintf@Vformat_validation_base@__crt_stdio_output@@D@@YAH_KQEAD0QEBDAEAV__crt_cached_ptd_host@@1@Z 000000014005c560     libucrtd:output.obj
 0005:00001570       __guard_xfg??$common_vsprintf@Vformat_validation_base@__crt_stdio_output@@_W@@YAH_KQEA_W0QEB_WAEAV__crt_cached_ptd_host@@QEAD@Z 000000014005c570     libucrtd:output.obj
 0005:00001580       __guard_xfg??0guard@?$cached@H@__crt_cached_ptd_host@@QEAA@AEAU12@@Z 000000014005c580     libucrtd:output.obj
 0005:00001590       __guard_xfg??1guard@?$cached@H@__crt_cached_ptd_host@@QEAA@XZ 000000014005c590     libucrtd:output.obj
 0005:000015a0       __guard_xfg?disable@guard@?$cached@H@__crt_cached_ptd_host@@QEAAXXZ 000000014005c5a0     libucrtd:output.obj
 0005:000015b0       __guard_xfg?enable@guard@?$cached@H@__crt_cached_ptd_host@@QEAAXXZ 000000014005c5b0     libucrtd:output.obj
 0005:000015c0       __guard_xfg?validate_and_update_state_at_end_of_format_string@?$format_validation_base@DV?$string_output_adapter@D@__crt_stdio_output@@@__crt_stdio_output@@IEAA_NXZ 000000014005c5c0     libucrtd:output.obj
 0005:000015d0       __guard_xfg?state_count@?$format_validation_base@DV?$string_output_adapter@D@__crt_stdio_output@@@__crt_stdio_output@@KAIXZ 000000014005c5d0     libucrtd:output.obj
 0005:000015e0       __guard_xfg?state_transition_table@?$format_validation_base@DV?$string_output_adapter@D@__crt_stdio_output@@@__crt_stdio_output@@KAAEBV?$spectre_mitigated_lookup_table@Ustate_transition_pair@__crt_stdio_output@@$0IA@@2@XZ 000000014005c5e0     libucrtd:output.obj
 0005:000015f0       __guard_xfg??1?$format_validation_base@DV?$string_output_adapter@D@__crt_stdio_output@@@__crt_stdio_output@@QEAA@XZ 000000014005c5f0     libucrtd:output.obj
 0005:00001600       __guard_xfg?validate_and_update_state_at_end_of_format_string@?$format_validation_base@_WV?$string_output_adapter@_W@__crt_stdio_output@@@__crt_stdio_output@@IEAA_NXZ 000000014005c600     libucrtd:output.obj
 0005:00001610       __guard_xfg?state_count@?$format_validation_base@_WV?$string_output_adapter@_W@__crt_stdio_output@@@__crt_stdio_output@@KAIXZ 000000014005c610     libucrtd:output.obj
 0005:00001620       __guard_xfg?state_transition_table@?$format_validation_base@_WV?$string_output_adapter@_W@__crt_stdio_output@@@__crt_stdio_output@@KAAEBV?$spectre_mitigated_lookup_table@Ustate_transition_pair@__crt_stdio_output@@$0IA@@2@XZ 000000014005c620     libucrtd:output.obj
 0005:00001630       __guard_xfg??1?$format_validation_base@_WV?$string_output_adapter@_W@__crt_stdio_output@@@__crt_stdio_output@@QEAA@XZ 000000014005c630     libucrtd:output.obj
 0005:00001640       __guard_xfg??$?0AEBV?$string_output_adapter@_W@__crt_stdio_output@@AEB_KAEBQEB_WAEAV__crt_cached_ptd_host@@AEBQEAD@?$standard_base@_WV?$string_output_adapter@_W@__crt_stdio_output@@@__crt_stdio_output@@IEAA@AEBV?$string_output_adapter@_W@1@AEB_KAEBQEB_WAEAV__crt_cached_ptd_host@@AEBQEAD@Z 000000014005c640     libucrtd:output.obj
 0005:00001650       __guard_xfg??$?0AEBV?$string_output_adapter@D@__crt_stdio_output@@AEB_KAEBQEBDAEAV__crt_cached_ptd_host@@AEBQEAD@?$standard_base@DV?$string_output_adapter@D@__crt_stdio_output@@@__crt_stdio_output@@IEAA@AEBV?$string_output_adapter@D@1@AEB_KAEBQEBDAEAV__crt_cached_ptd_host@@AEBQEAD@Z 000000014005c650     libucrtd:output.obj
 0005:00001660       __guard_xfg??$write_multiple_characters@V?$string_output_adapter@_W@__crt_stdio_output@@D@__crt_stdio_output@@YAXAEBV?$string_output_adapter@_W@0@DHQEAHAEAV__crt_cached_ptd_host@@@Z 000000014005c660     libucrtd:output.obj
 0005:00001670       __guard_xfg??$_tcstol_internal@_WPEAPEA_W$0A@@@YAJAEAV__crt_cached_ptd_host@@QEB_WQEAPEA_WH@Z 000000014005c670     libucrtd:output.obj
 0005:00001680       __guard_xfg??$read_va_arg@H@__crt_stdio_output@@YAHAEAPEAD@Z 000000014005c680     libucrtd:output.obj
 0005:00001690       __guard_xfg??$read_va_arg@_J@__crt_stdio_output@@YA_JAEAPEAD@Z 000000014005c690     libucrtd:output.obj
 0005:000016a0       __guard_xfg??$read_va_arg@PEAX@__crt_stdio_output@@YAPEAXAEAPEAD@Z 000000014005c6a0     libucrtd:output.obj
 0005:000016b0       __guard_xfg??$read_va_arg@U_CRT_DOUBLE@@@__crt_stdio_output@@YA?AU_CRT_DOUBLE@@AEAPEAD@Z 000000014005c6b0     libucrtd:output.obj
 0005:000016c0       __guard_xfg??$write_multiple_characters@V?$string_output_adapter@D@__crt_stdio_output@@D@__crt_stdio_output@@YAXAEBV?$string_output_adapter@D@0@DHQEAHAEAV__crt_cached_ptd_host@@@Z 000000014005c6c0     libucrtd:output.obj
 0005:000016d0       __guard_xfg??$_tcstol_internal@DPEAPEAD$0A@@@YAJAEAV__crt_cached_ptd_host@@QEBDQEAPEADH@Z 000000014005c6d0     libucrtd:output.obj
 0005:000016e0       __guard_xfg??$ensure_buffer_is_big_enough@D@formatting_buffer@__crt_stdio_output@@QEAA_N_KAEAV__crt_cached_ptd_host@@@Z 000000014005c6e0     libucrtd:output.obj
 0005:000016f0       __guard_xfg??$count@D@formatting_buffer@__crt_stdio_output@@QEBA_KXZ 000000014005c6f0     libucrtd:output.obj
 0005:00001700       __guard_xfg??$data@D@formatting_buffer@__crt_stdio_output@@QEAAPEADXZ 000000014005c700     libucrtd:output.obj
 0005:00001710       __guard_xfg??$scratch_data@D@formatting_buffer@__crt_stdio_output@@QEAAPEADXZ 000000014005c710     libucrtd:output.obj
 0005:00001720       __guard_xfg??$scratch_count@D@formatting_buffer@__crt_stdio_output@@QEBA_KXZ 000000014005c720     libucrtd:output.obj
 0005:00001730       __guard_xfg??$is_wide_character_specifier@_W@__crt_stdio_output@@YA_N_K_WW4length_modifier@0@@Z 000000014005c730     libucrtd:output.obj
 0005:00001740       __guard_xfg??$is_wide_character_specifier@D@__crt_stdio_output@@YA_N_KDW4length_modifier@0@@Z 000000014005c740     libucrtd:output.obj
 0005:00001750       __guard_xfg??$extract_argument_from_va_list@PEAXPEAX@?$standard_base@_WV?$string_output_adapter@_W@__crt_stdio_output@@@__crt_stdio_output@@IEAA_NAEAPEAX@Z 000000014005c750     libucrtd:output.obj
 0005:00001760       __guard_xfg??$extract_argument_from_va_list@U_CRT_DOUBLE@@U1@@?$standard_base@_WV?$string_output_adapter@_W@__crt_stdio_output@@@__crt_stdio_output@@IEAA_NAEAU_CRT_DOUBLE@@@Z 000000014005c760     libucrtd:output.obj
 0005:00001770       __guard_xfg??$extract_argument_from_va_list@PEADPEAD@?$standard_base@_WV?$string_output_adapter@_W@__crt_stdio_output@@@__crt_stdio_output@@IEAA_NAEAPEAD@Z 000000014005c770     libucrtd:output.obj
 0005:00001780       __guard_xfg??$extract_argument_from_va_list@PEAXPEAX@?$standard_base@DV?$string_output_adapter@D@__crt_stdio_output@@@__crt_stdio_output@@IEAA_NAEAPEAX@Z 000000014005c780     libucrtd:output.obj
 0005:00001790       __guard_xfg??$extract_argument_from_va_list@U_CRT_DOUBLE@@U1@@?$standard_base@DV?$string_output_adapter@D@__crt_stdio_output@@@__crt_stdio_output@@IEAA_NAEAU_CRT_DOUBLE@@@Z 000000014005c790     libucrtd:output.obj
 0005:000017a0       __guard_xfg??$extract_argument_from_va_list@PEADPEAD@?$standard_base@DV?$string_output_adapter@D@__crt_stdio_output@@@__crt_stdio_output@@IEAA_NAEAPEAD@Z 000000014005c7a0     libucrtd:output.obj
 0005:000017b0       __guard_xfg??$data@_W@formatting_buffer@__crt_stdio_output@@QEAAPEA_WXZ 000000014005c7b0     libucrtd:output.obj
 0005:000017c0       __guard_xfg??$extract_argument_from_va_list@_W_W@?$standard_base@_WV?$string_output_adapter@_W@__crt_stdio_output@@@__crt_stdio_output@@IEAA_NAEA_W@Z 000000014005c7c0     libucrtd:output.obj
 0005:000017d0       __guard_xfg??$extract_argument_from_va_list@_W_W@?$standard_base@DV?$string_output_adapter@D@__crt_stdio_output@@@__crt_stdio_output@@IEAA_NAEA_W@Z 000000014005c7d0     libucrtd:output.obj
 0005:000017e0       __guard_xfg??$extract_argument_from_va_list@GD@?$standard_base@DV?$string_output_adapter@D@__crt_stdio_output@@@__crt_stdio_output@@IEAA_NAEAD@Z 000000014005c7e0     libucrtd:output.obj
 0005:000017f0       __guard_xfg??0?$output_processor@DV?$string_output_adapter@D@__crt_stdio_output@@V?$format_validation_base@DV?$string_output_adapter@D@__crt_stdio_output@@@2@@__crt_stdio_output@@QEAA@AEBV?$string_output_adapter@D@1@_KQEBDAEAV__crt_cached_ptd_host@@QEAD@Z 000000014005c7f0     libucrtd:output.obj
 0005:00001800       __guard_xfg?process@?$output_processor@DV?$string_output_adapter@D@__crt_stdio_output@@V?$format_validation_base@DV?$string_output_adapter@D@__crt_stdio_output@@@2@@__crt_stdio_output@@QEAAHXZ 000000014005c800     libucrtd:output.obj
 0005:00001810       __guard_xfg?state_case_normal@?$output_processor@DV?$string_output_adapter@D@__crt_stdio_output@@V?$format_validation_base@DV?$string_output_adapter@D@__crt_stdio_output@@@2@@__crt_stdio_output@@AEAA_NXZ 000000014005c810     libucrtd:output.obj
 0005:00001820       __guard_xfg?state_case_normal_common@?$output_processor@DV?$string_output_adapter@D@__crt_stdio_output@@V?$format_validation_base@DV?$string_output_adapter@D@__crt_stdio_output@@@2@@__crt_stdio_output@@AEAA_NXZ 000000014005c820     libucrtd:output.obj
 0005:00001830       __guard_xfg?state_case_normal_tchar@?$output_processor@DV?$string_output_adapter@D@__crt_stdio_output@@V?$format_validation_base@DV?$string_output_adapter@D@__crt_stdio_output@@@2@@__crt_stdio_output@@AEAA_ND@Z 000000014005c830     libucrtd:output.obj
 0005:00001840       __guard_xfg?state_case_percent@?$output_processor@DV?$string_output_adapter@D@__crt_stdio_output@@V?$format_validation_base@DV?$string_output_adapter@D@__crt_stdio_output@@@2@@__crt_stdio_output@@AEAA_NXZ 000000014005c840     libucrtd:output.obj
 0005:00001850       __guard_xfg?state_case_flag@?$output_processor@DV?$string_output_adapter@D@__crt_stdio_output@@V?$format_validation_base@DV?$string_output_adapter@D@__crt_stdio_output@@@2@@__crt_stdio_output@@AEAA_NXZ 000000014005c850     libucrtd:output.obj
 0005:00001860       __guard_xfg?parse_int_from_format_string@?$output_processor@DV?$string_output_adapter@D@__crt_stdio_output@@V?$format_validation_base@DV?$string_output_adapter@D@__crt_stdio_output@@@2@@__crt_stdio_output@@AEAA_NQEAH@Z 000000014005c860     libucrtd:output.obj
 0005:00001870       __guard_xfg?state_case_width@?$output_processor@DV?$string_output_adapter@D@__crt_stdio_output@@V?$format_validation_base@DV?$string_output_adapter@D@__crt_stdio_output@@@2@@__crt_stdio_output@@AEAA_NXZ 000000014005c870     libucrtd:output.obj
 0005:00001880       __guard_xfg?state_case_dot@?$output_processor@DV?$string_output_adapter@D@__crt_stdio_output@@V?$format_validation_base@DV?$string_output_adapter@D@__crt_stdio_output@@@2@@__crt_stdio_output@@AEAA_NXZ 000000014005c880     libucrtd:output.obj
 0005:00001890       __guard_xfg?state_case_precision@?$output_processor@DV?$string_output_adapter@D@__crt_stdio_output@@V?$format_validation_base@DV?$string_output_adapter@D@__crt_stdio_output@@@2@@__crt_stdio_output@@AEAA_NXZ 000000014005c890     libucrtd:output.obj
 0005:000018a0       __guard_xfg?state_case_size@?$output_processor@DV?$string_output_adapter@D@__crt_stdio_output@@V?$format_validation_base@DV?$string_output_adapter@D@__crt_stdio_output@@@2@@__crt_stdio_output@@AEAA_NXZ 000000014005c8a0     libucrtd:output.obj
 0005:000018b0       __guard_xfg?state_case_type@?$output_processor@DV?$string_output_adapter@D@__crt_stdio_output@@V?$format_validation_base@DV?$string_output_adapter@D@__crt_stdio_output@@@2@@__crt_stdio_output@@AEAA_NXZ 000000014005c8b0     libucrtd:output.obj
 0005:000018c0       __guard_xfg?type_case_c@?$output_processor@DV?$string_output_adapter@D@__crt_stdio_output@@V?$format_validation_base@DV?$string_output_adapter@D@__crt_stdio_output@@@2@@__crt_stdio_output@@AEAA_NXZ 000000014005c8c0     libucrtd:output.obj
 0005:000018d0       __guard_xfg?type_case_c_tchar@?$output_processor@DV?$string_output_adapter@D@__crt_stdio_output@@V?$format_validation_base@DV?$string_output_adapter@D@__crt_stdio_output@@@2@@__crt_stdio_output@@AEAA_ND@Z 000000014005c8d0     libucrtd:output.obj
 0005:000018e0       __guard_xfg?type_case_Z@?$output_processor@DV?$string_output_adapter@D@__crt_stdio_output@@V?$format_validation_base@DV?$string_output_adapter@D@__crt_stdio_output@@@2@@__crt_stdio_output@@AEAA_NXZ 000000014005c8e0     libucrtd:output.obj
 0005:000018f0       __guard_xfg?type_case_s@?$output_processor@DV?$string_output_adapter@D@__crt_stdio_output@@V?$format_validation_base@DV?$string_output_adapter@D@__crt_stdio_output@@@2@@__crt_stdio_output@@AEAA_NXZ 000000014005c8f0     libucrtd:output.obj
 0005:00001900       __guard_xfg?type_case_s_compute_narrow_string_length@?$output_processor@DV?$string_output_adapter@D@__crt_stdio_output@@V?$format_validation_base@DV?$string_output_adapter@D@__crt_stdio_output@@@2@@__crt_stdio_output@@AEAAHHD@Z 000000014005c900     libucrtd:output.obj
 0005:00001910       __guard_xfg?type_case_a@?$output_processor@DV?$string_output_adapter@D@__crt_stdio_output@@V?$format_validation_base@DV?$string_output_adapter@D@__crt_stdio_output@@@2@@__crt_stdio_output@@AEAA_NXZ 000000014005c910     libucrtd:output.obj
 0005:00001920       __guard_xfg?type_case_d@?$output_processor@DV?$string_output_adapter@D@__crt_stdio_output@@V?$format_validation_base@DV?$string_output_adapter@D@__crt_stdio_output@@@2@@__crt_stdio_output@@AEAA_NXZ 000000014005c920     libucrtd:output.obj
 0005:00001930       __guard_xfg?type_case_u@?$output_processor@DV?$string_output_adapter@D@__crt_stdio_output@@V?$format_validation_base@DV?$string_output_adapter@D@__crt_stdio_output@@@2@@__crt_stdio_output@@AEAA_NXZ 000000014005c930     libucrtd:output.obj
 0005:00001940       __guard_xfg?type_case_o@?$output_processor@DV?$string_output_adapter@D@__crt_stdio_output@@V?$format_validation_base@DV?$string_output_adapter@D@__crt_stdio_output@@@2@@__crt_stdio_output@@AEAA_NXZ 000000014005c940     libucrtd:output.obj
 0005:00001950       __guard_xfg?type_case_X@?$output_processor@DV?$string_output_adapter@D@__crt_stdio_output@@V?$format_validation_base@DV?$string_output_adapter@D@__crt_stdio_output@@@2@@__crt_stdio_output@@AEAA_NXZ 000000014005c950     libucrtd:output.obj
 0005:00001960       __guard_xfg?type_case_x@?$output_processor@DV?$string_output_adapter@D@__crt_stdio_output@@V?$format_validation_base@DV?$string_output_adapter@D@__crt_stdio_output@@@2@@__crt_stdio_output@@AEAA_NXZ 000000014005c960     libucrtd:output.obj
 0005:00001970       __guard_xfg?type_case_p@?$output_processor@DV?$string_output_adapter@D@__crt_stdio_output@@V?$format_validation_base@DV?$string_output_adapter@D@__crt_stdio_output@@@2@@__crt_stdio_output@@AEAA_NXZ 000000014005c970     libucrtd:output.obj
 0005:00001980       __guard_xfg?type_case_n@?$output_processor@DV?$string_output_adapter@D@__crt_stdio_output@@V?$format_validation_base@DV?$string_output_adapter@D@__crt_stdio_output@@@2@@__crt_stdio_output@@AEAA_NXZ 000000014005c980     libucrtd:output.obj
 0005:00001990       __guard_xfg?write_stored_string_tchar@?$output_processor@DV?$string_output_adapter@D@__crt_stdio_output@@V?$format_validation_base@DV?$string_output_adapter@D@__crt_stdio_output@@@2@@__crt_stdio_output@@AEAA_ND@Z 000000014005c990     libucrtd:output.obj
 0005:000019a0       __guard_xfg?has_flag@?$output_processor@DV?$string_output_adapter@D@__crt_stdio_output@@V?$format_validation_base@DV?$string_output_adapter@D@__crt_stdio_output@@@2@@__crt_stdio_output@@AEBA_NI@Z 000000014005c9a0     libucrtd:output.obj
 0005:000019b0       __guard_xfg?set_flag@?$output_processor@DV?$string_output_adapter@D@__crt_stdio_output@@V?$format_validation_base@DV?$string_output_adapter@D@__crt_stdio_output@@@2@@__crt_stdio_output@@AEAAXI@Z 000000014005c9b0     libucrtd:output.obj
 0005:000019c0       __guard_xfg?unset_flag@?$output_processor@DV?$string_output_adapter@D@__crt_stdio_output@@V?$format_validation_base@DV?$string_output_adapter@D@__crt_stdio_output@@@2@@__crt_stdio_output@@AEAAXI@Z 000000014005c9c0     libucrtd:output.obj
 0005:000019d0       __guard_xfg?find_next_state@?$output_processor@DV?$string_output_adapter@D@__crt_stdio_output@@V?$format_validation_base@DV?$string_output_adapter@D@__crt_stdio_output@@@2@@__crt_stdio_output@@AEBA?AW4state@2@DW432@@Z 000000014005c9d0     libucrtd:output.obj
 0005:000019e0       __guard_xfg?adjust_hexit@?$output_processor@DV?$string_output_adapter@D@__crt_stdio_output@@V?$format_validation_base@DV?$string_output_adapter@D@__crt_stdio_output@@@2@@__crt_stdio_output@@CADH_N@Z 000000014005c9e0     libucrtd:output.obj
 0005:000019f0       __guard_xfg?narrow_null_string@?$output_processor@DV?$string_output_adapter@D@__crt_stdio_output@@V?$format_validation_base@DV?$string_output_adapter@D@__crt_stdio_output@@@2@@__crt_stdio_output@@CAPEADXZ 000000014005c9f0     libucrtd:output.obj
 0005:00001a00       __guard_xfg?wide_null_string@?$output_processor@DV?$string_output_adapter@D@__crt_stdio_output@@V?$format_validation_base@DV?$string_output_adapter@D@__crt_stdio_output@@@2@@__crt_stdio_output@@CAPEA_WXZ 000000014005ca00     libucrtd:output.obj
 0005:00001a10       __guard_xfg??1?$output_processor@DV?$string_output_adapter@D@__crt_stdio_output@@V?$format_validation_base@DV?$string_output_adapter@D@__crt_stdio_output@@@2@@__crt_stdio_output@@QEAA@XZ 000000014005ca10     libucrtd:output.obj
 0005:00001a20       __guard_xfg??0?$output_processor@_WV?$string_output_adapter@_W@__crt_stdio_output@@V?$format_validation_base@_WV?$string_output_adapter@_W@__crt_stdio_output@@@2@@__crt_stdio_output@@QEAA@AEBV?$string_output_adapter@_W@1@_KQEB_WAEAV__crt_cached_ptd_host@@QEAD@Z 000000014005ca20     libucrtd:output.obj
 0005:00001a30       __guard_xfg?process@?$output_processor@_WV?$string_output_adapter@_W@__crt_stdio_output@@V?$format_validation_base@_WV?$string_output_adapter@_W@__crt_stdio_output@@@2@@__crt_stdio_output@@QEAAHXZ 000000014005ca30     libucrtd:output.obj
 0005:00001a40       __guard_xfg?state_case_normal@?$output_processor@_WV?$string_output_adapter@_W@__crt_stdio_output@@V?$format_validation_base@_WV?$string_output_adapter@_W@__crt_stdio_output@@@2@@__crt_stdio_output@@AEAA_NXZ 000000014005ca40     libucrtd:output.obj
 0005:00001a50       __guard_xfg?state_case_normal_common@?$output_processor@_WV?$string_output_adapter@_W@__crt_stdio_output@@V?$format_validation_base@_WV?$string_output_adapter@_W@__crt_stdio_output@@@2@@__crt_stdio_output@@AEAA_NXZ 000000014005ca50     libucrtd:output.obj
 0005:00001a60       __guard_xfg?state_case_normal_tchar@?$output_processor@_WV?$string_output_adapter@_W@__crt_stdio_output@@V?$format_validation_base@_WV?$string_output_adapter@_W@__crt_stdio_output@@@2@@__crt_stdio_output@@AEAA_N_W@Z 000000014005ca60     libucrtd:output.obj
 0005:00001a70       __guard_xfg?state_case_percent@?$output_processor@_WV?$string_output_adapter@_W@__crt_stdio_output@@V?$format_validation_base@_WV?$string_output_adapter@_W@__crt_stdio_output@@@2@@__crt_stdio_output@@AEAA_NXZ 000000014005ca70     libucrtd:output.obj
 0005:00001a80       __guard_xfg?state_case_flag@?$output_processor@_WV?$string_output_adapter@_W@__crt_stdio_output@@V?$format_validation_base@_WV?$string_output_adapter@_W@__crt_stdio_output@@@2@@__crt_stdio_output@@AEAA_NXZ 000000014005ca80     libucrtd:output.obj
 0005:00001a90       __guard_xfg?parse_int_from_format_string@?$output_processor@_WV?$string_output_adapter@_W@__crt_stdio_output@@V?$format_validation_base@_WV?$string_output_adapter@_W@__crt_stdio_output@@@2@@__crt_stdio_output@@AEAA_NQEAH@Z 000000014005ca90     libucrtd:output.obj
 0005:00001aa0       __guard_xfg?state_case_width@?$output_processor@_WV?$string_output_adapter@_W@__crt_stdio_output@@V?$format_validation_base@_WV?$string_output_adapter@_W@__crt_stdio_output@@@2@@__crt_stdio_output@@AEAA_NXZ 000000014005caa0     libucrtd:output.obj
 0005:00001ab0       __guard_xfg?state_case_dot@?$output_processor@_WV?$string_output_adapter@_W@__crt_stdio_output@@V?$format_validation_base@_WV?$string_output_adapter@_W@__crt_stdio_output@@@2@@__crt_stdio_output@@AEAA_NXZ 000000014005cab0     libucrtd:output.obj
 0005:00001ac0       __guard_xfg?state_case_precision@?$output_processor@_WV?$string_output_adapter@_W@__crt_stdio_output@@V?$format_validation_base@_WV?$string_output_adapter@_W@__crt_stdio_output@@@2@@__crt_stdio_output@@AEAA_NXZ 000000014005cac0     libucrtd:output.obj
 0005:00001ad0       __guard_xfg?state_case_size@?$output_processor@_WV?$string_output_adapter@_W@__crt_stdio_output@@V?$format_validation_base@_WV?$string_output_adapter@_W@__crt_stdio_output@@@2@@__crt_stdio_output@@AEAA_NXZ 000000014005cad0     libucrtd:output.obj
 0005:00001ae0       __guard_xfg?state_case_type@?$output_processor@_WV?$string_output_adapter@_W@__crt_stdio_output@@V?$format_validation_base@_WV?$string_output_adapter@_W@__crt_stdio_output@@@2@@__crt_stdio_output@@AEAA_NXZ 000000014005cae0     libucrtd:output.obj
 0005:00001af0       __guard_xfg?type_case_c@?$output_processor@_WV?$string_output_adapter@_W@__crt_stdio_output@@V?$format_validation_base@_WV?$string_output_adapter@_W@__crt_stdio_output@@@2@@__crt_stdio_output@@AEAA_NXZ 000000014005caf0     libucrtd:output.obj
 0005:00001b00       __guard_xfg?type_case_c_tchar@?$output_processor@_WV?$string_output_adapter@_W@__crt_stdio_output@@V?$format_validation_base@_WV?$string_output_adapter@_W@__crt_stdio_output@@@2@@__crt_stdio_output@@AEAA_N_W@Z 000000014005cb00     libucrtd:output.obj
 0005:00001b10       __guard_xfg?type_case_Z@?$output_processor@_WV?$string_output_adapter@_W@__crt_stdio_output@@V?$format_validation_base@_WV?$string_output_adapter@_W@__crt_stdio_output@@@2@@__crt_stdio_output@@AEAA_NXZ 000000014005cb10     libucrtd:output.obj
 0005:00001b20       __guard_xfg?type_case_s@?$output_processor@_WV?$string_output_adapter@_W@__crt_stdio_output@@V?$format_validation_base@_WV?$string_output_adapter@_W@__crt_stdio_output@@@2@@__crt_stdio_output@@AEAA_NXZ 000000014005cb20     libucrtd:output.obj
 0005:00001b30       __guard_xfg?type_case_s_compute_narrow_string_length@?$output_processor@_WV?$string_output_adapter@_W@__crt_stdio_output@@V?$format_validation_base@_WV?$string_output_adapter@_W@__crt_stdio_output@@@2@@__crt_stdio_output@@AEAAHH_W@Z 000000014005cb30     libucrtd:output.obj
 0005:00001b40       __guard_xfg?type_case_a@?$output_processor@_WV?$string_output_adapter@_W@__crt_stdio_output@@V?$format_validation_base@_WV?$string_output_adapter@_W@__crt_stdio_output@@@2@@__crt_stdio_output@@AEAA_NXZ 000000014005cb40     libucrtd:output.obj
 0005:00001b50       __guard_xfg?type_case_d@?$output_processor@_WV?$string_output_adapter@_W@__crt_stdio_output@@V?$format_validation_base@_WV?$string_output_adapter@_W@__crt_stdio_output@@@2@@__crt_stdio_output@@AEAA_NXZ 000000014005cb50     libucrtd:output.obj
 0005:00001b60       __guard_xfg?type_case_u@?$output_processor@_WV?$string_output_adapter@_W@__crt_stdio_output@@V?$format_validation_base@_WV?$string_output_adapter@_W@__crt_stdio_output@@@2@@__crt_stdio_output@@AEAA_NXZ 000000014005cb60     libucrtd:output.obj
 0005:00001b70       __guard_xfg?type_case_o@?$output_processor@_WV?$string_output_adapter@_W@__crt_stdio_output@@V?$format_validation_base@_WV?$string_output_adapter@_W@__crt_stdio_output@@@2@@__crt_stdio_output@@AEAA_NXZ 000000014005cb70     libucrtd:output.obj
 0005:00001b80       __guard_xfg?type_case_X@?$output_processor@_WV?$string_output_adapter@_W@__crt_stdio_output@@V?$format_validation_base@_WV?$string_output_adapter@_W@__crt_stdio_output@@@2@@__crt_stdio_output@@AEAA_NXZ 000000014005cb80     libucrtd:output.obj
 0005:00001b90       __guard_xfg?type_case_x@?$output_processor@_WV?$string_output_adapter@_W@__crt_stdio_output@@V?$format_validation_base@_WV?$string_output_adapter@_W@__crt_stdio_output@@@2@@__crt_stdio_output@@AEAA_NXZ 000000014005cb90     libucrtd:output.obj
 0005:00001ba0       __guard_xfg?type_case_p@?$output_processor@_WV?$string_output_adapter@_W@__crt_stdio_output@@V?$format_validation_base@_WV?$string_output_adapter@_W@__crt_stdio_output@@@2@@__crt_stdio_output@@AEAA_NXZ 000000014005cba0     libucrtd:output.obj
 0005:00001bb0       __guard_xfg?type_case_n@?$output_processor@_WV?$string_output_adapter@_W@__crt_stdio_output@@V?$format_validation_base@_WV?$string_output_adapter@_W@__crt_stdio_output@@@2@@__crt_stdio_output@@AEAA_NXZ 000000014005cbb0     libucrtd:output.obj
 0005:00001bc0       __guard_xfg?write_stored_string_tchar@?$output_processor@_WV?$string_output_adapter@_W@__crt_stdio_output@@V?$format_validation_base@_WV?$string_output_adapter@_W@__crt_stdio_output@@@2@@__crt_stdio_output@@AEAA_N_W@Z 000000014005cbc0     libucrtd:output.obj
 0005:00001bd0       __guard_xfg?has_flag@?$output_processor@_WV?$string_output_adapter@_W@__crt_stdio_output@@V?$format_validation_base@_WV?$string_output_adapter@_W@__crt_stdio_output@@@2@@__crt_stdio_output@@AEBA_NI@Z 000000014005cbd0     libucrtd:output.obj
 0005:00001be0       __guard_xfg?set_flag@?$output_processor@_WV?$string_output_adapter@_W@__crt_stdio_output@@V?$format_validation_base@_WV?$string_output_adapter@_W@__crt_stdio_output@@@2@@__crt_stdio_output@@AEAAXI@Z 000000014005cbe0     libucrtd:output.obj
 0005:00001bf0       __guard_xfg?unset_flag@?$output_processor@_WV?$string_output_adapter@_W@__crt_stdio_output@@V?$format_validation_base@_WV?$string_output_adapter@_W@__crt_stdio_output@@@2@@__crt_stdio_output@@AEAAXI@Z 000000014005cbf0     libucrtd:output.obj
 0005:00001c00       __guard_xfg?find_next_state@?$output_processor@_WV?$string_output_adapter@_W@__crt_stdio_output@@V?$format_validation_base@_WV?$string_output_adapter@_W@__crt_stdio_output@@@2@@__crt_stdio_output@@AEBA?AW4state@2@_WW432@@Z 000000014005cc00     libucrtd:output.obj
 0005:00001c10       __guard_xfg?adjust_hexit@?$output_processor@_WV?$string_output_adapter@_W@__crt_stdio_output@@V?$format_validation_base@_WV?$string_output_adapter@_W@__crt_stdio_output@@@2@@__crt_stdio_output@@CADH_N@Z 000000014005cc10     libucrtd:output.obj
 0005:00001c20       __guard_xfg?narrow_null_string@?$output_processor@_WV?$string_output_adapter@_W@__crt_stdio_output@@V?$format_validation_base@_WV?$string_output_adapter@_W@__crt_stdio_output@@@2@@__crt_stdio_output@@CAPEADXZ 000000014005cc20     libucrtd:output.obj
 0005:00001c30       __guard_xfg?wide_null_string@?$output_processor@_WV?$string_output_adapter@_W@__crt_stdio_output@@V?$format_validation_base@_WV?$string_output_adapter@_W@__crt_stdio_output@@@2@@__crt_stdio_output@@CAPEA_WXZ 000000014005cc30     libucrtd:output.obj
 0005:00001c40       __guard_xfg??1?$output_processor@_WV?$string_output_adapter@_W@__crt_stdio_output@@V?$format_validation_base@_WV?$string_output_adapter@_W@__crt_stdio_output@@@2@@__crt_stdio_output@@QEAA@XZ 000000014005cc40     libucrtd:output.obj
 0005:00001c50       __guard_xfg??$?0AEBV?$string_output_adapter@_W@__crt_stdio_output@@AEB_KAEBQEB_WAEAV__crt_cached_ptd_host@@AEBQEAD@?$format_validation_base@_WV?$string_output_adapter@_W@__crt_stdio_output@@@__crt_stdio_output@@IEAA@AEBV?$string_output_adapter@_W@1@AEB_KAEBQEB_WAEAV__crt_cached_ptd_host@@AEBQEAD@Z 000000014005cc50     libucrtd:output.obj
 0005:00001c60       __guard_xfg??$?0AEBV?$string_output_adapter@D@__crt_stdio_output@@AEB_KAEBQEBDAEAV__crt_cached_ptd_host@@AEBQEAD@?$format_validation_base@DV?$string_output_adapter@D@__crt_stdio_output@@@__crt_stdio_output@@IEAA@AEBV?$string_output_adapter@D@1@AEB_KAEBQEBDAEAV__crt_cached_ptd_host@@AEBQEAD@Z 000000014005cc60     libucrtd:output.obj
 0005:00001c70       __guard_xfg??$make_c_string_character_source@_WPEAPEA_W@__crt_strtox@@YA?AV?$c_string_character_source@_W@0@QEB_WQEAPEA_W@Z 000000014005cc70     libucrtd:output.obj
 0005:00001c80       __guard_xfg??0?$c_string_character_source@_W@__crt_strtox@@QEAA@QEB_WQEAPEB_W@Z 000000014005cc80     libucrtd:output.obj
 0005:00001c90       __guard_xfg??1?$c_string_character_source@_W@__crt_strtox@@QEAA@XZ 000000014005cc90     libucrtd:output.obj
 0005:00001ca0       __guard_xfg?validate@?$c_string_character_source@_W@__crt_strtox@@QEBA_NXZ 000000014005cca0     libucrtd:output.obj
 0005:00001cb0       __guard_xfg?get@?$c_string_character_source@_W@__crt_strtox@@QEAA_WXZ 000000014005ccb0     libucrtd:output.obj
 0005:00001cc0       __guard_xfg?unget@?$c_string_character_source@_W@__crt_strtox@@QEAAX_W@Z 000000014005ccc0     libucrtd:output.obj
 0005:00001cd0       __guard_xfg?save_state@?$c_string_character_source@_W@__crt_strtox@@QEBAPEB_WXZ 000000014005ccd0     libucrtd:output.obj
 0005:00001ce0       __guard_xfg?restore_state@?$c_string_character_source@_W@__crt_strtox@@QEAA_NQEB_W@Z 000000014005cce0     libucrtd:output.obj
 0005:00001cf0       __guard_xfg??$parse_integer@KV?$c_string_character_source@_W@__crt_strtox@@$0A@@__crt_strtox@@YAKAEAV__crt_cached_ptd_host@@V?$c_string_character_source@_W@0@H_N@Z 000000014005ccf0     libucrtd:output.obj
 0005:00001d00       __guard_xfg??$make_c_string_character_source@DPEAPEAD@__crt_strtox@@YA?AV?$c_string_character_source@D@0@QEBDQEAPEAD@Z 000000014005cd00     libucrtd:output.obj
 0005:00001d10       __guard_xfg??0?$c_string_character_source@D@__crt_strtox@@QEAA@QEBDQEAPEBD@Z 000000014005cd10     libucrtd:output.obj
 0005:00001d20       __guard_xfg??1?$c_string_character_source@D@__crt_strtox@@QEAA@XZ 000000014005cd20     libucrtd:output.obj
 0005:00001d30       __guard_xfg?validate@?$c_string_character_source@D@__crt_strtox@@QEBA_NXZ 000000014005cd30     libucrtd:output.obj
 0005:00001d40       __guard_xfg?get@?$c_string_character_source@D@__crt_strtox@@QEAADXZ 000000014005cd40     libucrtd:output.obj
 0005:00001d50       __guard_xfg?unget@?$c_string_character_source@D@__crt_strtox@@QEAAXD@Z 000000014005cd50     libucrtd:output.obj
 0005:00001d60       __guard_xfg?save_state@?$c_string_character_source@D@__crt_strtox@@QEBAPEBDXZ 000000014005cd60     libucrtd:output.obj
 0005:00001d70       __guard_xfg?restore_state@?$c_string_character_source@D@__crt_strtox@@QEAA_NQEBD@Z 000000014005cd70     libucrtd:output.obj
 0005:00001d80       __guard_xfg??$parse_integer@KV?$c_string_character_source@D@__crt_strtox@@$0A@@__crt_strtox@@YAKAEAV__crt_cached_ptd_host@@V?$c_string_character_source@D@0@H_N@Z 000000014005cd80     libucrtd:output.obj
 0005:00001d90       __guard_xfg??$ensure_buffer_is_big_enough@_W@formatting_buffer@__crt_stdio_output@@QEAA_N_KAEAV__crt_cached_ptd_host@@@Z 000000014005cd90     libucrtd:output.obj
 0005:00001da0       __guard_xfg??$extract_argument_from_va_list@C_J@?$standard_base@_WV?$string_output_adapter@_W@__crt_stdio_output@@@__crt_stdio_output@@IEAA_NAEA_J@Z 000000014005cda0     libucrtd:output.obj
 0005:00001db0       __guard_xfg??$extract_argument_from_va_list@E_J@?$standard_base@_WV?$string_output_adapter@_W@__crt_stdio_output@@@__crt_stdio_output@@IEAA_NAEA_J@Z 000000014005cdb0     libucrtd:output.obj
 0005:00001dc0       __guard_xfg??$extract_argument_from_va_list@F_J@?$standard_base@_WV?$string_output_adapter@_W@__crt_stdio_output@@@__crt_stdio_output@@IEAA_NAEA_J@Z 000000014005cdc0     libucrtd:output.obj
 0005:00001dd0       __guard_xfg??$extract_argument_from_va_list@G_J@?$standard_base@_WV?$string_output_adapter@_W@__crt_stdio_output@@@__crt_stdio_output@@IEAA_NAEA_J@Z 000000014005cdd0     libucrtd:output.obj
 0005:00001de0       __guard_xfg??$extract_argument_from_va_list@H_J@?$standard_base@_WV?$string_output_adapter@_W@__crt_stdio_output@@@__crt_stdio_output@@IEAA_NAEA_J@Z 000000014005cde0     libucrtd:output.obj
 0005:00001df0       __guard_xfg??$extract_argument_from_va_list@I_J@?$standard_base@_WV?$string_output_adapter@_W@__crt_stdio_output@@@__crt_stdio_output@@IEAA_NAEA_J@Z 000000014005cdf0     libucrtd:output.obj
 0005:00001e00       __guard_xfg??$extract_argument_from_va_list@_J_J@?$standard_base@_WV?$string_output_adapter@_W@__crt_stdio_output@@@__crt_stdio_output@@IEAA_NAEA_J@Z 000000014005ce00     libucrtd:output.obj
 0005:00001e10       __guard_xfg??$extract_argument_from_va_list@_K_J@?$standard_base@_WV?$string_output_adapter@_W@__crt_stdio_output@@@__crt_stdio_output@@IEAA_NAEA_J@Z 000000014005ce10     libucrtd:output.obj
 0005:00001e20       __guard_xfg??$read_va_arg@PEAD@__crt_stdio_output@@YAPEADAEAPEAD@Z 000000014005ce20     libucrtd:output.obj
 0005:00001e30       __guard_xfg??$extract_argument_from_va_list@C_J@?$standard_base@DV?$string_output_adapter@D@__crt_stdio_output@@@__crt_stdio_output@@IEAA_NAEA_J@Z 000000014005ce30     libucrtd:output.obj
 0005:00001e40       __guard_xfg??$extract_argument_from_va_list@E_J@?$standard_base@DV?$string_output_adapter@D@__crt_stdio_output@@@__crt_stdio_output@@IEAA_NAEA_J@Z 000000014005ce40     libucrtd:output.obj
 0005:00001e50       __guard_xfg??$extract_argument_from_va_list@F_J@?$standard_base@DV?$string_output_adapter@D@__crt_stdio_output@@@__crt_stdio_output@@IEAA_NAEA_J@Z 000000014005ce50     libucrtd:output.obj
 0005:00001e60       __guard_xfg??$extract_argument_from_va_list@G_J@?$standard_base@DV?$string_output_adapter@D@__crt_stdio_output@@@__crt_stdio_output@@IEAA_NAEA_J@Z 000000014005ce60     libucrtd:output.obj
 0005:00001e70       __guard_xfg??$extract_argument_from_va_list@H_J@?$standard_base@DV?$string_output_adapter@D@__crt_stdio_output@@@__crt_stdio_output@@IEAA_NAEA_J@Z 000000014005ce70     libucrtd:output.obj
 0005:00001e80       __guard_xfg??$extract_argument_from_va_list@I_J@?$standard_base@DV?$string_output_adapter@D@__crt_stdio_output@@@__crt_stdio_output@@IEAA_NAEA_J@Z 000000014005ce80     libucrtd:output.obj
 0005:00001e90       __guard_xfg??$extract_argument_from_va_list@_J_J@?$standard_base@DV?$string_output_adapter@D@__crt_stdio_output@@@__crt_stdio_output@@IEAA_NAEA_J@Z 000000014005ce90     libucrtd:output.obj
 0005:00001ea0       __guard_xfg??$extract_argument_from_va_list@_K_J@?$standard_base@DV?$string_output_adapter@D@__crt_stdio_output@@@__crt_stdio_output@@IEAA_NAEA_J@Z 000000014005cea0     libucrtd:output.obj
 0005:00001eb0       __guard_xfg??$read_va_arg@_W@__crt_stdio_output@@YA_WAEAPEAD@Z 000000014005ceb0     libucrtd:output.obj
 0005:00001ec0       __guard_xfg??$read_va_arg@G@__crt_stdio_output@@YAGAEAPEAD@Z 000000014005cec0     libucrtd:output.obj
 0005:00001ed0       __guard_xfg??$type_case_integer@$0BA@@?$output_processor@_WV?$string_output_adapter@_W@__crt_stdio_output@@V?$format_validation_base@_WV?$string_output_adapter@_W@__crt_stdio_output@@@2@@__crt_stdio_output@@AEAA_N_N@Z 000000014005ced0     libucrtd:output.obj
 0005:00001ee0       __guard_xfg??$type_case_integer@$07@?$output_processor@_WV?$string_output_adapter@_W@__crt_stdio_output@@V?$format_validation_base@_WV?$string_output_adapter@_W@__crt_stdio_output@@@2@@__crt_stdio_output@@AEAA_N_N@Z 000000014005cee0     libucrtd:output.obj
 0005:00001ef0       __guard_xfg??$type_case_integer@$09@?$output_processor@_WV?$string_output_adapter@_W@__crt_stdio_output@@V?$format_validation_base@_WV?$string_output_adapter@_W@__crt_stdio_output@@@2@@__crt_stdio_output@@AEAA_N_N@Z 000000014005cef0     libucrtd:output.obj
 0005:00001f00       __guard_xfg??$extract_argument_from_va_list@PEAUansi_string@?1??type_case_Z@?$output_processor@_WV?$string_output_adapter@_W@__crt_stdio_output@@V?$format_validation_base@_WV?$string_output_adapter@_W@__crt_stdio_output@@@2@@__crt_stdio_output@@AEAA_NXZ@PEAU1?1??234@AEAA_NXZ@@?$standard_base@_WV?$string_output_adapter@_W@__crt_stdio_output@@@__crt_stdio_output@@IEAA_NAEAPEAUansi_string@?1??type_case_Z@?$output_processor@_WV?$string_output_adapter@_W@__crt_stdio_output@@V?$format_validation_base@_WV?$string_output_adapter@_W@__crt_stdio_output@@@2@@1@AEAA_NXZ@@Z 000000014005cf00     libucrtd:output.obj
 0005:00001f10       __guard_xfg??$type_case_integer@$0BA@@?$output_processor@DV?$string_output_adapter@D@__crt_stdio_output@@V?$format_validation_base@DV?$string_output_adapter@D@__crt_stdio_output@@@2@@__crt_stdio_output@@AEAA_N_N@Z 000000014005cf10     libucrtd:output.obj
 0005:00001f20       __guard_xfg??$type_case_integer@$07@?$output_processor@DV?$string_output_adapter@D@__crt_stdio_output@@V?$format_validation_base@DV?$string_output_adapter@D@__crt_stdio_output@@@2@@__crt_stdio_output@@AEAA_N_N@Z 000000014005cf20     libucrtd:output.obj
 0005:00001f30       __guard_xfg??$type_case_integer@$09@?$output_processor@DV?$string_output_adapter@D@__crt_stdio_output@@V?$format_validation_base@DV?$string_output_adapter@D@__crt_stdio_output@@@2@@__crt_stdio_output@@AEAA_N_N@Z 000000014005cf30     libucrtd:output.obj
 0005:00001f40       __guard_xfg??$extract_argument_from_va_list@PEAUansi_string@?1??type_case_Z@?$output_processor@DV?$string_output_adapter@D@__crt_stdio_output@@V?$format_validation_base@DV?$string_output_adapter@D@__crt_stdio_output@@@2@@__crt_stdio_output@@AEAA_NXZ@PEAU1?1??234@AEAA_NXZ@@?$standard_base@DV?$string_output_adapter@D@__crt_stdio_output@@@__crt_stdio_output@@IEAA_NAEAPEAUansi_string@?1??type_case_Z@?$output_processor@DV?$string_output_adapter@D@__crt_stdio_output@@V?$format_validation_base@DV?$string_output_adapter@D@__crt_stdio_output@@@2@@1@AEAA_NXZ@@Z 000000014005cf40     libucrtd:output.obj
 0005:00001f50       __guard_xfg??$is_overflow_condition@K@__crt_strtox@@YA_NIK@Z 000000014005cf50     libucrtd:output.obj
 0005:00001f60       __guard_xfg??$count@_W@formatting_buffer@__crt_stdio_output@@QEBA_KXZ 000000014005cf60     libucrtd:output.obj
 0005:00001f70       __guard_xfg??$read_va_arg@C@__crt_stdio_output@@YACAEAPEAD@Z 000000014005cf70     libucrtd:output.obj
 0005:00001f80       __guard_xfg??$read_va_arg@E@__crt_stdio_output@@YAEAEAPEAD@Z 000000014005cf80     libucrtd:output.obj
 0005:00001f90       __guard_xfg??$read_va_arg@F@__crt_stdio_output@@YAFAEAPEAD@Z 000000014005cf90     libucrtd:output.obj
 0005:00001fa0       __guard_xfg??$read_va_arg@I@__crt_stdio_output@@YAIAEAPEAD@Z 000000014005cfa0     libucrtd:output.obj
 0005:00001fb0       __guard_xfg??$read_va_arg@_K@__crt_stdio_output@@YA_KAEAPEAD@Z 000000014005cfb0     libucrtd:output.obj
 0005:00001fc0       __guard_xfg??$type_case_integer_parse_into_buffer@_K$0BA@@?$output_processor@_WV?$string_output_adapter@_W@__crt_stdio_output@@V?$format_validation_base@_WV?$string_output_adapter@_W@__crt_stdio_output@@@2@@__crt_stdio_output@@AEAAX_K_N@Z 000000014005cfc0     libucrtd:output.obj
 0005:00001fd0       __guard_xfg??$type_case_integer_parse_into_buffer@I$0BA@@?$output_processor@_WV?$string_output_adapter@_W@__crt_stdio_output@@V?$format_validation_base@_WV?$string_output_adapter@_W@__crt_stdio_output@@@2@@__crt_stdio_output@@AEAAXI_N@Z 000000014005cfd0     libucrtd:output.obj
 0005:00001fe0       __guard_xfg??$type_case_integer_parse_into_buffer@_K$07@?$output_processor@_WV?$string_output_adapter@_W@__crt_stdio_output@@V?$format_validation_base@_WV?$string_output_adapter@_W@__crt_stdio_output@@@2@@__crt_stdio_output@@AEAAX_K_N@Z 000000014005cfe0     libucrtd:output.obj
 0005:00001ff0       __guard_xfg??$type_case_integer_parse_into_buffer@I$07@?$output_processor@_WV?$string_output_adapter@_W@__crt_stdio_output@@V?$format_validation_base@_WV?$string_output_adapter@_W@__crt_stdio_output@@@2@@__crt_stdio_output@@AEAAXI_N@Z 000000014005cff0     libucrtd:output.obj
 0005:00002000       __guard_xfg??$type_case_integer_parse_into_buffer@_K$09@?$output_processor@_WV?$string_output_adapter@_W@__crt_stdio_output@@V?$format_validation_base@_WV?$string_output_adapter@_W@__crt_stdio_output@@@2@@__crt_stdio_output@@AEAAX_K_N@Z 000000014005d000     libucrtd:output.obj
 0005:00002010       __guard_xfg??$type_case_integer_parse_into_buffer@I$09@?$output_processor@_WV?$string_output_adapter@_W@__crt_stdio_output@@V?$format_validation_base@_WV?$string_output_adapter@_W@__crt_stdio_output@@@2@@__crt_stdio_output@@AEAAXI_N@Z 000000014005d010     libucrtd:output.obj
 0005:00002020       __guard_xfg??$read_va_arg@PEAUansi_string@?1??type_case_Z@?$output_processor@_WV?$string_output_adapter@_W@__crt_stdio_output@@V?$format_validation_base@_WV?$string_output_adapter@_W@__crt_stdio_output@@@2@@__crt_stdio_output@@AEAA_NXZ@@__crt_stdio_output@@YAPEAUansi_string@?1??type_case_Z@?$output_processor@_WV?$string_output_adapter@_W@__crt_stdio_output@@V?$format_validation_base@_WV?$string_output_adapter@_W@__crt_stdio_output@@@2@@0@AEAA_NXZ@AEAPEAD@Z 000000014005d020     libucrtd:output.obj
 0005:00002030       __guard_xfg??$type_case_integer_parse_into_buffer@_K$0BA@@?$output_processor@DV?$string_output_adapter@D@__crt_stdio_output@@V?$format_validation_base@DV?$string_output_adapter@D@__crt_stdio_output@@@2@@__crt_stdio_output@@AEAAX_K_N@Z 000000014005d030     libucrtd:output.obj
 0005:00002040       __guard_xfg??$type_case_integer_parse_into_buffer@I$0BA@@?$output_processor@DV?$string_output_adapter@D@__crt_stdio_output@@V?$format_validation_base@DV?$string_output_adapter@D@__crt_stdio_output@@@2@@__crt_stdio_output@@AEAAXI_N@Z 000000014005d040     libucrtd:output.obj
 0005:00002050       __guard_xfg??$type_case_integer_parse_into_buffer@_K$07@?$output_processor@DV?$string_output_adapter@D@__crt_stdio_output@@V?$format_validation_base@DV?$string_output_adapter@D@__crt_stdio_output@@@2@@__crt_stdio_output@@AEAAX_K_N@Z 000000014005d050     libucrtd:output.obj
 0005:00002060       __guard_xfg??$type_case_integer_parse_into_buffer@I$07@?$output_processor@DV?$string_output_adapter@D@__crt_stdio_output@@V?$format_validation_base@DV?$string_output_adapter@D@__crt_stdio_output@@@2@@__crt_stdio_output@@AEAAXI_N@Z 000000014005d060     libucrtd:output.obj
 0005:00002070       __guard_xfg??$type_case_integer_parse_into_buffer@_K$09@?$output_processor@DV?$string_output_adapter@D@__crt_stdio_output@@V?$format_validation_base@DV?$string_output_adapter@D@__crt_stdio_output@@@2@@__crt_stdio_output@@AEAAX_K_N@Z 000000014005d070     libucrtd:output.obj
 0005:00002080       __guard_xfg??$type_case_integer_parse_into_buffer@I$09@?$output_processor@DV?$string_output_adapter@D@__crt_stdio_output@@V?$format_validation_base@DV?$string_output_adapter@D@__crt_stdio_output@@@2@@__crt_stdio_output@@AEAAXI_N@Z 000000014005d080     libucrtd:output.obj
 0005:00002090       __guard_xfg??$read_va_arg@PEAUansi_string@?1??type_case_Z@?$output_processor@DV?$string_output_adapter@D@__crt_stdio_output@@V?$format_validation_base@DV?$string_output_adapter@D@__crt_stdio_output@@@2@@__crt_stdio_output@@AEAA_NXZ@@__crt_stdio_output@@YAPEAUansi_string@?1??type_case_Z@?$output_processor@DV?$string_output_adapter@D@__crt_stdio_output@@V?$format_validation_base@DV?$string_output_adapter@D@__crt_stdio_output@@@2@@0@AEAA_NXZ@AEAPEAD@Z 000000014005d090     libucrtd:output.obj
 0005:000020a0       __guard_xfgfree            000000014005d0a0     libucrtd:free.obj
 0005:000020b0       __guard_xfgmalloc          000000014005d0b0     libucrtd:malloc.obj
 0005:000020c0       __guard_xfg__acrt_initialize_ptd 000000014005d0c0     libucrtd:per_thread_data.obj
 0005:000020d0       __guard_xfg__acrt_uninitialize_ptd 000000014005d0d0     libucrtd:per_thread_data.obj
 0005:000020e0       __guard_xfg__acrt_getptd   000000014005d0e0     libucrtd:per_thread_data.obj
 0005:000020f0       __guard_xfg__acrt_getptd_head 000000014005d0f0     libucrtd:per_thread_data.obj
 0005:00002100       __guard_xfg__acrt_getptd_noexit 000000014005d100     libucrtd:per_thread_data.obj
 0005:00002110       __guard_xfg__acrt_getptd_noexit_explicit 000000014005d110     libucrtd:per_thread_data.obj
 0005:00002120       __guard_xfg?destroy_fls@@YAXPEAX@Z 000000014005d120     libucrtd:per_thread_data.obj
 0005:00002130       __guard_xfg?replace_current_thread_locale_nolock@@YAXQEAU__acrt_ptd@@QEAU__crt_locale_data@@@Z 000000014005d130     libucrtd:per_thread_data.obj
 0005:00002140       __guard_xfg?dangerous_get_state_array@?$dual_state_global@PEAU__crt_locale_data@@@__crt_state_management@@QEAAPEAPEAU__crt_locale_data@@XZ 000000014005d140     libucrtd:per_thread_data.obj
 0005:00002150       __guard_xfg?construct_ptd@@YAXQEAU__acrt_ptd@@QEAPEAU__crt_locale_data@@@Z 000000014005d150     libucrtd:per_thread_data.obj
 0005:00002160       __guard_xfg??R<lambda_8d0ee55de4b1038c4002e0adecdf1839>@@QEBAXXZ 000000014005d160     libucrtd:per_thread_data.obj
 0005:00002170       __guard_xfg??0<lambda_8d0ee55de4b1038c4002e0adecdf1839>@@QEAA@AEBQEAU__acrt_ptd@@@Z 000000014005d170     libucrtd:per_thread_data.obj
 0005:00002180       __guard_xfg??$__acrt_lock_and_call@V<lambda_8d0ee55de4b1038c4002e0adecdf1839>@@@@YAXW4__acrt_lock_id@@$$QEAV<lambda_8d0ee55de4b1038c4002e0adecdf1839>@@@Z 000000014005d180     libucrtd:per_thread_data.obj
 0005:00002190       __guard_xfg??R<lambda_92619d2358a28f41a33ba319515a20b9>@@QEBAXXZ 000000014005d190     libucrtd:per_thread_data.obj
 0005:000021a0       __guard_xfg??0<lambda_92619d2358a28f41a33ba319515a20b9>@@QEAA@AEBQEAU__acrt_ptd@@AEBQEAPEAU__crt_locale_data@@@Z 000000014005d1a0     libucrtd:per_thread_data.obj
 0005:000021b0       __guard_xfg??$__acrt_lock_and_call@V<lambda_92619d2358a28f41a33ba319515a20b9>@@@@YAXW4__acrt_lock_id@@$$QEAV<lambda_92619d2358a28f41a33ba319515a20b9>@@@Z 000000014005d1b0     libucrtd:per_thread_data.obj
 0005:000021c0       __guard_xfg?construct_ptd_array@@YAXQEAU__acrt_ptd@@@Z 000000014005d1c0     libucrtd:per_thread_data.obj
 0005:000021d0       __guard_xfg?destroy_ptd@@YAXQEAU__acrt_ptd@@@Z 000000014005d1d0     libucrtd:per_thread_data.obj
 0005:000021e0       __guard_xfg??R<lambda_e157831efee4ea0afb0a2ace5dd5fd0d>@@QEBAXXZ 000000014005d1e0     libucrtd:per_thread_data.obj
 0005:000021f0       __guard_xfg??0<lambda_e157831efee4ea0afb0a2ace5dd5fd0d>@@QEAA@AEBQEAU__acrt_ptd@@@Z 000000014005d1f0     libucrtd:per_thread_data.obj
 0005:00002200       __guard_xfg??$__acrt_lock_and_call@V<lambda_e157831efee4ea0afb0a2ace5dd5fd0d>@@@@YAXW4__acrt_lock_id@@$$QEAV<lambda_e157831efee4ea0afb0a2ace5dd5fd0d>@@@Z 000000014005d200     libucrtd:per_thread_data.obj
 0005:00002210       __guard_xfg??R<lambda_8f455de75cd7d7f24b4096f044d8b9e6>@@QEBAXXZ 000000014005d210     libucrtd:per_thread_data.obj
 0005:00002220       __guard_xfg??0<lambda_8f455de75cd7d7f24b4096f044d8b9e6>@@QEAA@AEBQEAU__acrt_ptd@@@Z 000000014005d220     libucrtd:per_thread_data.obj
 0005:00002230       __guard_xfg??$__acrt_lock_and_call@V<lambda_8f455de75cd7d7f24b4096f044d8b9e6>@@@@YAXW4__acrt_lock_id@@$$QEAV<lambda_8f455de75cd7d7f24b4096f044d8b9e6>@@@Z 000000014005d230     libucrtd:per_thread_data.obj
 0005:00002240       __guard_xfg?destroy_ptd_array@@YAXQEAU__acrt_ptd@@@Z 000000014005d240     libucrtd:per_thread_data.obj
 0005:00002250       __guard_xfg?try_get_ptd_head@@YAPEAU__acrt_ptd@@XZ 000000014005d250     libucrtd:per_thread_data.obj
 0005:00002260       __guard_xfg?internal_get_ptd_head@@YAPEAU__acrt_ptd@@XZ 000000014005d260     libucrtd:per_thread_data.obj
 0005:00002270       __guard_xfg??0?$__crt_unique_heap_ptr@U__acrt_ptd@@U__crt_internal_free_policy@@@@QEAA@QEAU__acrt_ptd@@@Z 000000014005d270     libucrtd:per_thread_data.obj
 0005:00002280       __guard_xfg??1?$__crt_unique_heap_ptr@U__acrt_ptd@@U__crt_internal_free_policy@@@@QEAA@XZ 000000014005d280     libucrtd:per_thread_data.obj
 0005:00002290       __guard_xfg?detach@?$__crt_unique_heap_ptr@U__acrt_ptd@@U__crt_internal_free_policy@@@@QEAAPEAU__acrt_ptd@@XZ 000000014005d290     libucrtd:per_thread_data.obj
 0005:000022a0       __guard_xfg?release@?$__crt_unique_heap_ptr@U__acrt_ptd@@U__crt_internal_free_policy@@@@QEAAXXZ 000000014005d2a0     libucrtd:per_thread_data.obj
 0005:000022b0       __guard_xfg?is_valid@?$__crt_unique_heap_ptr@U__acrt_ptd@@U__crt_internal_free_policy@@@@QEBA_NXZ 000000014005d2b0     libucrtd:per_thread_data.obj
 0005:000022c0       __guard_xfg??B?$__crt_unique_heap_ptr@U__acrt_ptd@@U__crt_internal_free_policy@@@@QEBA_NXZ 000000014005d2c0     libucrtd:per_thread_data.obj
 0005:000022d0       __guard_xfg?get@?$__crt_unique_heap_ptr@U__acrt_ptd@@U__crt_internal_free_policy@@@@QEBAPEAU__acrt_ptd@@XZ 000000014005d2d0     libucrtd:per_thread_data.obj
 0005:000022e0       __guard_xfg?internal_getptd_noexit@@YAPEAU__acrt_ptd@@AEBV__crt_scoped_get_last_error_reset@@_K@Z 000000014005d2e0     libucrtd:per_thread_data.obj
 0005:000022f0       __guard_xfg?internal_getptd_noexit@@YAPEAU__acrt_ptd@@XZ 000000014005d2f0     libucrtd:per_thread_data.obj
 0005:00002300       __guard_xfg??$?RU__acrt_ptd@@@__crt_internal_free_policy@@QEBAXQEBU__acrt_ptd@@@Z 000000014005d300     libucrtd:per_thread_data.obj
 0005:00002310       __guard_xfg??R<lambda_0ae27a3a962d80f24befdcbee591983d>@@QEBAXXZ 000000014005d310     libucrtd:per_thread_data.obj
 0005:00002320       __guard_xfg??0<lambda_0ae27a3a962d80f24befdcbee591983d>@@QEAA@AEBW4__acrt_lock_id@@@Z 000000014005d320     libucrtd:per_thread_data.obj
 0005:00002330       __guard_xfg??R<lambda_dc504788e8f1664fe9b84e20bfb512f2>@@QEBAXXZ 000000014005d330     libucrtd:per_thread_data.obj
 0005:00002340       __guard_xfg??0<lambda_dc504788e8f1664fe9b84e20bfb512f2>@@QEAA@AEBW4__acrt_lock_id@@@Z 000000014005d340     libucrtd:per_thread_data.obj
 0005:00002350       __guard_xfg??$?RV<lambda_0ae27a3a962d80f24befdcbee591983d>@@AEAV<lambda_8d0ee55de4b1038c4002e0adecdf1839>@@V<lambda_dc504788e8f1664fe9b84e20bfb512f2>@@@?$__crt_seh_guarded_call@X@@QEAAX$$QEAV<lambda_0ae27a3a962d80f24befdcbee591983d>@@AEAV<lambda_8d0ee55de4b1038c4002e0adecdf1839>@@$$QEAV<lambda_dc504788e8f1664fe9b84e20bfb512f2>@@@Z 000000014005d350     libucrtd:per_thread_data.obj
 0005:00002360       __guard_xfg??R<lambda_aa87e3671a710a21b5dc78c0bdf72e11>@@QEBAXXZ 000000014005d360     libucrtd:per_thread_data.obj
 0005:00002370       __guard_xfg??0<lambda_aa87e3671a710a21b5dc78c0bdf72e11>@@QEAA@AEBW4__acrt_lock_id@@@Z 000000014005d370     libucrtd:per_thread_data.obj
 0005:00002380       __guard_xfg??R<lambda_6992ecaafeb10aed2b74cb1fae11a551>@@QEBAXXZ 000000014005d380     libucrtd:per_thread_data.obj
 0005:00002390       __guard_xfg??0<lambda_6992ecaafeb10aed2b74cb1fae11a551>@@QEAA@AEBW4__acrt_lock_id@@@Z 000000014005d390     libucrtd:per_thread_data.obj
 0005:000023a0       __guard_xfg??$?RV<lambda_aa87e3671a710a21b5dc78c0bdf72e11>@@AEAV<lambda_92619d2358a28f41a33ba319515a20b9>@@V<lambda_6992ecaafeb10aed2b74cb1fae11a551>@@@?$__crt_seh_guarded_call@X@@QEAAX$$QEAV<lambda_aa87e3671a710a21b5dc78c0bdf72e11>@@AEAV<lambda_92619d2358a28f41a33ba319515a20b9>@@$$QEAV<lambda_6992ecaafeb10aed2b74cb1fae11a551>@@@Z 000000014005d3a0     libucrtd:per_thread_data.obj
 0005:000023b0       __guard_xfg??R<lambda_74a0ef281e44d15e1136f792f539efb3>@@QEBAXXZ 000000014005d3b0     libucrtd:per_thread_data.obj
 0005:000023c0       __guard_xfg??0<lambda_74a0ef281e44d15e1136f792f539efb3>@@QEAA@AEBW4__acrt_lock_id@@@Z 000000014005d3c0     libucrtd:per_thread_data.obj
 0005:000023d0       __guard_xfg??R<lambda_04ddeca75b7c13fd67716e8dfcef87ee>@@QEBAXXZ 000000014005d3d0     libucrtd:per_thread_data.obj
 0005:000023e0       __guard_xfg??0<lambda_04ddeca75b7c13fd67716e8dfcef87ee>@@QEAA@AEBW4__acrt_lock_id@@@Z 000000014005d3e0     libucrtd:per_thread_data.obj
 0005:000023f0       __guard_xfg??$?RV<lambda_74a0ef281e44d15e1136f792f539efb3>@@AEAV<lambda_e157831efee4ea0afb0a2ace5dd5fd0d>@@V<lambda_04ddeca75b7c13fd67716e8dfcef87ee>@@@?$__crt_seh_guarded_call@X@@QEAAX$$QEAV<lambda_74a0ef281e44d15e1136f792f539efb3>@@AEAV<lambda_e157831efee4ea0afb0a2ace5dd5fd0d>@@$$QEAV<lambda_04ddeca75b7c13fd67716e8dfcef87ee>@@@Z 000000014005d3f0     libucrtd:per_thread_data.obj
 0005:00002400       __guard_xfg??R<lambda_2d41944a1d46af3157314b8a01080d33>@@QEBAXXZ 000000014005d400     libucrtd:per_thread_data.obj
 0005:00002410       __guard_xfg??0<lambda_2d41944a1d46af3157314b8a01080d33>@@QEAA@AEBW4__acrt_lock_id@@@Z 000000014005d410     libucrtd:per_thread_data.obj
 0005:00002420       __guard_xfg??R<lambda_aa500f224e6afead328df44964fe2772>@@QEBAXXZ 000000014005d420     libucrtd:per_thread_data.obj
 0005:00002430       __guard_xfg??0<lambda_aa500f224e6afead328df44964fe2772>@@QEAA@AEBW4__acrt_lock_id@@@Z 000000014005d430     libucrtd:per_thread_data.obj
 0005:00002440       __guard_xfg??$?RV<lambda_2d41944a1d46af3157314b8a01080d33>@@AEAV<lambda_8f455de75cd7d7f24b4096f044d8b9e6>@@V<lambda_aa500f224e6afead328df44964fe2772>@@@?$__crt_seh_guarded_call@X@@QEAAX$$QEAV<lambda_2d41944a1d46af3157314b8a01080d33>@@AEAV<lambda_8f455de75cd7d7f24b4096f044d8b9e6>@@$$QEAV<lambda_aa500f224e6afead328df44964fe2772>@@@Z 000000014005d440     libucrtd:per_thread_data.obj
 0005:00002450       __guard_xfg_invalid_parameter 000000014005d450     libucrtd:invalid_parameter.obj
 0005:00002460       __guard_xfg_invalid_parameter_noinfo 000000014005d460     libucrtd:invalid_parameter.obj
 0005:00002470       __guard_xfg_invoke_watson  000000014005d470     libucrtd:invalid_parameter.obj
 0005:00002480       __guard_xfg__acrt_call_reportfault 000000014005d480     libucrtd:invalid_parameter.obj
 0005:00002490       __guard_xfg__acrt_initialize_invalid_parameter_handler 000000014005d490     libucrtd:invalid_parameter.obj
 0005:000024a0       __guard_xfg_invalid_parameter_internal 000000014005d4a0     libucrtd:invalid_parameter.obj
 0005:000024b0       __guard_xfg?get_current_global_state_index@__crt_cached_ptd_host@@QEAA_KXZ 000000014005d4b0     libucrtd:invalid_parameter.obj
 0005:000024c0       __guard_xfg?get_raw_ptd_noexit@__crt_cached_ptd_host@@QEAAPEAU__acrt_ptd@@XZ 000000014005d4c0     libucrtd:invalid_parameter.obj
 0005:000024d0       __guard_xfg?try_synchronize_per_thread_data@__crt_cached_ptd_host@@AEAAPEAU__acrt_ptd@@XZ 000000014005d4d0     libucrtd:invalid_parameter.obj
 0005:000024e0       __guard_xfg?check_synchronize_global_state_index@__crt_cached_ptd_host@@AEAA_KXZ 000000014005d4e0     libucrtd:invalid_parameter.obj
 0005:000024f0       __guard_xfg?value@?$dual_state_global@P6AXPEB_W00I_K@Z@__crt_state_management@@QEAAAEAP6AXPEB_W00I_K@ZAEAV__crt_cached_ptd_host@@@Z 000000014005d4f0     libucrtd:invalid_parameter.obj
 0005:00002500       __guard_xfg?dangerous_get_state_array@?$dual_state_global@P6AXPEB_W00I_K@Z@__crt_state_management@@QEAAPEAP6AXPEB_W00I_K@ZXZ 000000014005d500     libucrtd:invalid_parameter.obj
 0005:00002510       __guard_xfg?capture_current_context@@YAXQEAU_CONTEXT@@@Z 000000014005d510     libucrtd:invalid_parameter.obj
 0005:00002520       __guard_xfg??$initialize_from_array@$$BY00Q6AXPEB_W00I_K@Z@?$dual_state_global@P6AXPEB_W00I_K@Z@__crt_state_management@@QEAAXAEAY00Q6AXPEB_W00I_K@Z@Z 000000014005d520     libucrtd:invalid_parameter.obj
 0005:00002530       __guard_xfg??$__crt_fast_decode_pointer@P6AXPEB_W00I_K@Z@@YAP6AXPEB_W00I_K@ZQ6AX000I1@Z@Z 000000014005d530     libucrtd:invalid_parameter.obj
 0005:00002540       __guard_xfg_set_error_mode 000000014005d540     libucrtd:set_error_mode.obj
 0005:00002550       __guard_xfgwcscat_s        000000014005d550     libucrtd:wcscat_s.obj
 0005:00002560       __guard_xfg??$common_tcscat_s@_W@@YAHQEA_W_KQEB_W@Z 000000014005d560     libucrtd:wcscat_s.obj
 0005:00002570       __guard_xfgwcscpy_s        000000014005d570     libucrtd:wcscpy_s.obj
 0005:00002580       __guard_xfg??$common_tcscpy_s@_W@@YAHQEA_W_KQEB_W@Z 000000014005d580     libucrtd:wcscpy_s.obj
 0005:00002590       __guard_xfgwcsncpy_s       000000014005d590     libucrtd:wcsncpy_s.obj
 0005:000025a0       __guard_xfg??$common_tcsncpy_s@_W@@YAHQEA_W_KQEB_W1@Z 000000014005d5a0     libucrtd:wcsncpy_s.obj
 0005:000025b0       __guard_xfgwcslen          000000014005d5b0     libucrtd:strnlen.obj
 0005:000025c0       __guard_xfgwcsnlen         000000014005d5c0     libucrtd:strnlen.obj
 0005:000025d0       __guard_xfgstrnlen         000000014005d5d0     libucrtd:strnlen.obj
 0005:000025e0       __guard_xfg??1?$__crt_simd_cleanup_guard@$0A@@@QEAA@XZ 000000014005d5e0     libucrtd:strnlen.obj
 0005:000025f0       __guard_xfg?get_zero_pack@?$__crt_simd_pack_traits@$0A@@@SA?AT__m128i@@XZ 000000014005d5f0     libucrtd:strnlen.obj
 0005:00002600       __guard_xfg?compute_byte_mask@?$__crt_simd_pack_traits@$0A@@@SAHT__m128i@@@Z 000000014005d600     libucrtd:strnlen.obj
 0005:00002610       __guard_xfg?compare_equals@?$__crt_simd_traits@$0A@E@@SA?AT__m128i@@T2@0@Z 000000014005d610     libucrtd:strnlen.obj
 0005:00002620       __guard_xfg?compare_equals@?$__crt_simd_traits@$0A@G@@SA?AT__m128i@@T2@0@Z 000000014005d620     libucrtd:strnlen.obj
 0005:00002630       __guard_xfg??1?$__crt_simd_cleanup_guard@$00@@QEAA@XZ 000000014005d630     libucrtd:strnlen.obj
 0005:00002640       __guard_xfg?get_zero_pack@?$__crt_simd_pack_traits@$00@@SA?AT__m256i@@XZ 000000014005d640     libucrtd:strnlen.obj
 0005:00002650       __guard_xfg?compute_byte_mask@?$__crt_simd_pack_traits@$00@@SAHT__m256i@@@Z 000000014005d650     libucrtd:strnlen.obj
 0005:00002660       __guard_xfg?compare_equals@?$__crt_simd_traits@$00E@@SA?AT__m256i@@T2@0@Z 000000014005d660     libucrtd:strnlen.obj
 0005:00002670       __guard_xfg?compare_equals@?$__crt_simd_traits@$00G@@SA?AT__m256i@@T2@0@Z 000000014005d670     libucrtd:strnlen.obj
 0005:00002680       __guard_xfg??$last_reached@$00@@YA_NQEBX0@Z 000000014005d680     libucrtd:strnlen.obj
 0005:00002690       __guard_xfg??$common_strnlen@$0A@E@@YA_KQEBE_K@Z 000000014005d690     libucrtd:strnlen.obj
 0005:000026a0       __guard_xfg??$common_strnlen@$0A@G@@YA_KQEBG_K@Z 000000014005d6a0     libucrtd:strnlen.obj
 0005:000026b0       __guard_xfg??$common_strnlen@$00G@@YA_KQEBG_K@Z 000000014005d6b0     libucrtd:strnlen.obj
 0005:000026c0       __guard_xfg??$common_strnlen_simd@$0A@$00E@@YA_KQEBE_K@Z 000000014005d6c0     libucrtd:strnlen.obj
 0005:000026d0       __guard_xfg??$common_strnlen_simd@$0A@$0A@E@@YA_KQEBE_K@Z 000000014005d6d0     libucrtd:strnlen.obj
 0005:000026e0       __guard_xfg??$common_strnlen_c@$0A@E@@YA_KQEBE_K@Z 000000014005d6e0     libucrtd:strnlen.obj
 0005:000026f0       __guard_xfg??$common_strnlen_simd@$0A@$00G@@YA_KQEBG_K@Z 000000014005d6f0     libucrtd:strnlen.obj
 0005:00002700       __guard_xfg??$common_strnlen_simd@$0A@$0A@G@@YA_KQEBG_K@Z 000000014005d700     libucrtd:strnlen.obj
 0005:00002710       __guard_xfg??$common_strnlen_c@$0A@G@@YA_KQEBG_K@Z 000000014005d710     libucrtd:strnlen.obj
 0005:00002720       __guard_xfg??$common_strnlen_simd@$00$00G@@YA_KQEBG_K@Z 000000014005d720     libucrtd:strnlen.obj
 0005:00002730       __guard_xfg??$common_strnlen_simd@$00$0A@G@@YA_KQEBG_K@Z 000000014005d730     libucrtd:strnlen.obj
 0005:00002740       __guard_xfg??$common_strnlen_c@$00G@@YA_KQEBG_K@Z 000000014005d740     libucrtd:strnlen.obj
 0005:00002750       __guard_xfg??$last_reached@$0A@@@YA_NQEBX0@Z 000000014005d750     libucrtd:strnlen.obj
 0005:00002760       __guard_xfg__acrt_show_wide_message_box 000000014005d760     libucrtd:crtmbox.obj
 0005:00002770       __guard_xfg??$common_show_message_box@_W@@YAHQEB_W0I@Z 000000014005d770     libucrtd:crtmbox.obj
 0005:00002780       __guard_xfg??$output_debug_string@AEBQEB_W@?$__crt_char_traits@_W@@SAXAEBQEB_W@Z 000000014005d780     libucrtd:crtmbox.obj
 0005:00002790       __guard_xfg??$message_box@$$TAEBQEB_WAEBQEB_WK@?$__crt_char_traits@_W@@SAH$$QEA$$TAEBQEB_W1$$QEAK@Z 000000014005d790     libucrtd:crtmbox.obj
 0005:000027a0       __guard_xfg??$message_box@PEAUHWND__@@AEBQEB_WAEBQEB_WAEBI@?$__crt_char_traits@_W@@SAH$$QEAPEAUHWND__@@AEBQEB_W1AEBI@Z 000000014005d7a0     libucrtd:crtmbox.obj
 0005:000027b0       __guard_xfg_errno          000000014005d7b0     libucrtd:errno.obj
 0005:000027c0       __guard_xfg__doserrno      000000014005d7c0     libucrtd:errno.obj
 0005:000027d0       __guard_xfg__acrt_errno_map_os_error 000000014005d7d0     libucrtd:errno.obj
 0005:000027e0       __guard_xfg__acrt_errno_from_os_error 000000014005d7e0     libucrtd:errno.obj
 0005:000027f0       __guard_xfg__acrt_errno_map_os_error_ptd 000000014005d7f0     libucrtd:errno.obj
 0005:00002800       __guard_xfg?get_doserrno@__crt_cached_ptd_host@@QEAAAEAU?$cached@K@1@XZ 000000014005d800     libucrtd:errno.obj
 0005:00002810       __guard_xfg?set@?$cached@K@__crt_cached_ptd_host@@QEAAKK@Z 000000014005d810     libucrtd:errno.obj
 0005:00002820       __guard_xfg?strpbrk@@YAPEADQEADQEBD@Z 000000014005d820     libucrtd:argv_wildcards.obj
 0005:00002830       __guard_xfg__acrt_expand_narrow_argv_wildcards 000000014005d830     libucrtd:argv_wildcards.obj
 0005:00002840       __guard_xfg?close@__crt_findfile_traits@@SA_NPEAX@Z 000000014005d840     libucrtd:argv_wildcards.obj
 0005:00002850       __guard_xfg?get_invalid_value@__crt_findfile_traits@@SAPEAXXZ 000000014005d850     libucrtd:argv_wildcards.obj
 0005:00002860       __guard_xfg?allocate@__crt_win32_buffer_internal_dynamic_resizing@@SAHQEAPEAX_KAEBV__crt_win32_buffer_empty_debug_info@@@Z 000000014005d860     libucrtd:argv_wildcards.obj
 0005:00002870       __guard_xfg?deallocate@__crt_win32_buffer_internal_dynamic_resizing@@SAXQEAXAEBV__crt_win32_buffer_empty_debug_info@@@Z 000000014005d870     libucrtd:argv_wildcards.obj
 0005:00002880       __guard_xfg?__acrt_get_utf8_acp_compatibility_codepage@@YAIXZ 000000014005d880     libucrtd:argv_wildcards.obj
 0005:00002890       __guard_xfg?previous_character@@YAPEADQEAD0@Z 000000014005d890     libucrtd:argv_wildcards.obj
 0005:000028a0       __guard_xfg?get_wide@@YAPEA_WQEAV?$__crt_win32_buffer@_WU__crt_win32_buffer_internal_dynamic_resizing@@@@QEAD@Z 000000014005d8a0     libucrtd:argv_wildcards.obj
 0005:000028b0       __guard_xfg??0?$__crt_win32_buffer@_WU__crt_win32_buffer_internal_dynamic_resizing@@@@QEAA@XZ 000000014005d8b0     libucrtd:argv_wildcards.obj
 0005:000028c0       __guard_xfg??1?$__crt_win32_buffer@_WU__crt_win32_buffer_internal_dynamic_resizing@@@@QEAA@XZ 000000014005d8c0     libucrtd:argv_wildcards.obj
 0005:000028d0       __guard_xfg?data@?$__crt_win32_buffer@_WU__crt_win32_buffer_internal_dynamic_resizing@@@@QEAAPEA_WXZ 000000014005d8d0     libucrtd:argv_wildcards.obj
 0005:000028e0       __guard_xfg?size@?$__crt_win32_buffer@_WU__crt_win32_buffer_internal_dynamic_resizing@@@@QEAAX_K@Z 000000014005d8e0     libucrtd:argv_wildcards.obj
 0005:000028f0       __guard_xfg?capacity@?$__crt_win32_buffer@_WU__crt_win32_buffer_internal_dynamic_resizing@@@@QEBA_KXZ 000000014005d8f0     libucrtd:argv_wildcards.obj
 0005:00002900       __guard_xfg?debug_info@?$__crt_win32_buffer@_WU__crt_win32_buffer_internal_dynamic_resizing@@@@QEBAAEBV__crt_win32_buffer_empty_debug_info@@XZ 000000014005d900     libucrtd:argv_wildcards.obj
 0005:00002910       __guard_xfg?allocate@?$__crt_win32_buffer@_WU__crt_win32_buffer_internal_dynamic_resizing@@@@QEAAH_K@Z 000000014005d910     libucrtd:argv_wildcards.obj
 0005:00002920       __guard_xfg?set_to_nullptr@?$__crt_win32_buffer@_WU__crt_win32_buffer_internal_dynamic_resizing@@@@QEAAXXZ 000000014005d920     libucrtd:argv_wildcards.obj
 0005:00002930       __guard_xfg?_deallocate@?$__crt_win32_buffer@_WU__crt_win32_buffer_internal_dynamic_resizing@@@@AEAAXXZ 000000014005d930     libucrtd:argv_wildcards.obj
 0005:00002940       __guard_xfg??$__acrt_mbs_to_wcs_cp@U__crt_win32_buffer_internal_dynamic_resizing@@@@YAHQEBDAEAV?$__crt_win32_buffer@_WU__crt_win32_buffer_internal_dynamic_resizing@@@@I@Z 000000014005d940     libucrtd:argv_wildcards.obj
 0005:00002950       __guard_xfg?get_file_name@@YAPEADQEAV?$__crt_win32_buffer@DU__crt_win32_buffer_internal_dynamic_resizing@@@@QEA_W@Z 000000014005d950     libucrtd:argv_wildcards.obj
 0005:00002960       __guard_xfg??0?$__crt_win32_buffer@DU__crt_win32_buffer_internal_dynamic_resizing@@@@QEAA@XZ 000000014005d960     libucrtd:argv_wildcards.obj
 0005:00002970       __guard_xfg??1?$__crt_win32_buffer@DU__crt_win32_buffer_internal_dynamic_resizing@@@@QEAA@XZ 000000014005d970     libucrtd:argv_wildcards.obj
 0005:00002980       __guard_xfg?data@?$__crt_win32_buffer@DU__crt_win32_buffer_internal_dynamic_resizing@@@@QEAAPEADXZ 000000014005d980     libucrtd:argv_wildcards.obj
 0005:00002990       __guard_xfg?size@?$__crt_win32_buffer@DU__crt_win32_buffer_internal_dynamic_resizing@@@@QEAAX_K@Z 000000014005d990     libucrtd:argv_wildcards.obj
 0005:000029a0       __guard_xfg?capacity@?$__crt_win32_buffer@DU__crt_win32_buffer_internal_dynamic_resizing@@@@QEBA_KXZ 000000014005d9a0     libucrtd:argv_wildcards.obj
 0005:000029b0       __guard_xfg?debug_info@?$__crt_win32_buffer@DU__crt_win32_buffer_internal_dynamic_resizing@@@@QEBAAEBV__crt_win32_buffer_empty_debug_info@@XZ 000000014005d9b0     libucrtd:argv_wildcards.obj
 0005:000029c0       __guard_xfg?allocate@?$__crt_win32_buffer@DU__crt_win32_buffer_internal_dynamic_resizing@@@@QEAAH_K@Z 000000014005d9c0     libucrtd:argv_wildcards.obj
 0005:000029d0       __guard_xfg?set_to_nullptr@?$__crt_win32_buffer@DU__crt_win32_buffer_internal_dynamic_resizing@@@@QEAAXXZ 000000014005d9d0     libucrtd:argv_wildcards.obj
 0005:000029e0       __guard_xfg?_deallocate@?$__crt_win32_buffer@DU__crt_win32_buffer_internal_dynamic_resizing@@@@AEAAXXZ 000000014005d9e0     libucrtd:argv_wildcards.obj
 0005:000029f0       __guard_xfg??$__acrt_wcs_to_mbs_cp@U__crt_win32_buffer_internal_dynamic_resizing@@@@YAHQEB_WAEAV?$__crt_win32_buffer@DU__crt_win32_buffer_internal_dynamic_resizing@@@@I@Z 000000014005d9f0     libucrtd:argv_wildcards.obj
 0005:00002a00       __guard_xfg??$common_expand_argv_wildcards@D@@YAHQEAPEADQEAPEAPEAD@Z 000000014005da00     libucrtd:argv_wildcards.obj
 0005:00002a10       __guard_xfg??R<lambda_7c9dea7b4ca7285d2cdb541a38da6275>@@QEBAHIQEBDQEA_W_K@Z 000000014005da10     libucrtd:argv_wildcards.obj
 0005:00002a20       __guard_xfg??$__acrt_convert_wcs_mbs_cp@D_WV<lambda_7c9dea7b4ca7285d2cdb541a38da6275>@@U__crt_win32_buffer_internal_dynamic_resizing@@@@YAHQEBDAEAV?$__crt_win32_buffer@_WU__crt_win32_buffer_internal_dynamic_resizing@@@@AEBV<lambda_7c9dea7b4ca7285d2cdb541a38da6275>@@I@Z 000000014005da20     libucrtd:argv_wildcards.obj
 0005:00002a30       __guard_xfg??R<lambda_d8593a27d1aa8c02be35c86a17d324c4>@@QEBAHIQEB_WQEAD_K@Z 000000014005da30     libucrtd:argv_wildcards.obj
 0005:00002a40       __guard_xfg??$__acrt_convert_wcs_mbs_cp@_WDV<lambda_d8593a27d1aa8c02be35c86a17d324c4>@@U__crt_win32_buffer_internal_dynamic_resizing@@@@YAHQEB_WAEAV?$__crt_win32_buffer@DU__crt_win32_buffer_internal_dynamic_resizing@@@@AEBV<lambda_d8593a27d1aa8c02be35c86a17d324c4>@@I@Z 000000014005da40     libucrtd:argv_wildcards.obj
 0005:00002a50       __guard_xfg??0?$argument_list@D@?A0x5f5c8891@@QEAA@XZ 000000014005da50     libucrtd:argv_wildcards.obj
 0005:00002a60       __guard_xfg?size@?$argument_list@D@?A0x5f5c8891@@QEBA_KXZ 000000014005da60     libucrtd:argv_wildcards.obj
 0005:00002a70       __guard_xfg?begin@?$argument_list@D@?A0x5f5c8891@@QEBAPEAPEADXZ 000000014005da70     libucrtd:argv_wildcards.obj
 0005:00002a80       __guard_xfg?end@?$argument_list@D@?A0x5f5c8891@@QEBAPEAPEADXZ 000000014005da80     libucrtd:argv_wildcards.obj
 0005:00002a90       __guard_xfg?append@?$argument_list@D@?A0x5f5c8891@@QEAAHQEAD@Z 000000014005da90     libucrtd:argv_wildcards.obj
 0005:00002aa0       __guard_xfg??1?$argument_list@D@?A0x5f5c8891@@QEAA@XZ 000000014005daa0     libucrtd:argv_wildcards.obj
 0005:00002ab0       __guard_xfg?expand_if_necessary@?$argument_list@D@?A0x5f5c8891@@AEAAHXZ 000000014005dab0     libucrtd:argv_wildcards.obj
 0005:00002ac0       __guard_xfg??$tcspbrk@AEAPEADAEAY02$$CBD@?$__crt_char_traits@D@@SAPEADAEAPEADAEAY02$$CBD@Z 000000014005dac0     libucrtd:argv_wildcards.obj
 0005:00002ad0       __guard_xfg??$copy_and_add_argument_to_buffer@D@@YAHQEBD0_KAEAV?$argument_list@D@?A0x5f5c8891@@@Z 000000014005dad0     libucrtd:argv_wildcards.obj
 0005:00002ae0       __guard_xfg??$expand_argument_wildcards@D@@YAHQEAD0AEAV?$argument_list@D@?A0x5f5c8891@@@Z 000000014005dae0     libucrtd:argv_wildcards.obj
 0005:00002af0       __guard_xfg??$tcsncpy_s@AEAPEAD_KAEAPEADAEB_K@?$__crt_char_traits@D@@SAHAEAPEAD$$QEA_K0AEB_K@Z 000000014005daf0     libucrtd:argv_wildcards.obj
 0005:00002b00       __guard_xfg??$tcsncpy_s@PEADAEB_KAEBQEBDAEB_K@?$__crt_char_traits@D@@SAH$$QEAPEADAEB_KAEBQEBD1@Z 000000014005db00     libucrtd:argv_wildcards.obj
 0005:00002b10       __guard_xfg??$tcsncpy_s@PEAD_KAEBQEBDAEB_K@?$__crt_char_traits@D@@SAH$$QEAPEAD$$QEA_KAEBQEBDAEB_K@Z 000000014005db10     libucrtd:argv_wildcards.obj
 0005:00002b20       __guard_xfg??R<lambda_cfae5a0e6efa98e0d1aa03c4cec8f74e>@@QEBA_ND@Z 000000014005db20     libucrtd:argv_wildcards.obj
 0005:00002b30       __guard_xfg??0?$__crt_unique_handle_t@U__crt_findfile_traits@@@@QEAA@QEAX@Z 000000014005db30     libucrtd:argv_wildcards.obj
 0005:00002b40       __guard_xfg??1?$__crt_unique_handle_t@U__crt_findfile_traits@@@@QEAA@XZ 000000014005db40     libucrtd:argv_wildcards.obj
 0005:00002b50       __guard_xfg?get@?$__crt_unique_handle_t@U__crt_findfile_traits@@@@QEBAPEAXXZ 000000014005db50     libucrtd:argv_wildcards.obj
 0005:00002b60       __guard_xfg?close@?$__crt_unique_handle_t@U__crt_findfile_traits@@@@QEAAXXZ 000000014005db60     libucrtd:argv_wildcards.obj
 0005:00002b70       __guard_xfg??R<lambda_a1ce4c8ae42411fd470c77163914f50e>@@QEBAHPEBX0@Z 000000014005db70     libucrtd:argv_wildcards.obj
 0005:00002b80       __guard_xfg?<lambda_invoker_cdecl>@<lambda_a1ce4c8ae42411fd470c77163914f50e>@@CAHPEBX0@Z 000000014005db80     libucrtd:argv_wildcards.obj
 0005:00002b90       __guard_xfg??B<lambda_a1ce4c8ae42411fd470c77163914f50e>@@QEBAP6AHPEBX0@ZXZ 000000014005db90     libucrtd:argv_wildcards.obj
 0005:00002ba0       __guard_xfg__acrt_GetModuleFileNameA 000000014005dba0     libucrtd:getmodulefilenamea.obj
 0005:00002bb0       __guard_xfg?allocate@__crt_win32_buffer_no_resizing@@SAHQEAPEAX_KAEBV__crt_win32_buffer_empty_debug_info@@@Z 000000014005dbb0     libucrtd:getmodulefilenamea.obj
 0005:00002bc0       __guard_xfg?deallocate@__crt_win32_buffer_no_resizing@@SAXQEAXAEBV__crt_win32_buffer_empty_debug_info@@@Z 000000014005dbc0     libucrtd:getmodulefilenamea.obj
 0005:00002bd0       __guard_xfg??0?$__crt_win32_buffer@DU__crt_win32_buffer_no_resizing@@@@QEAA@QEAD_K@Z 000000014005dbd0     libucrtd:getmodulefilenamea.obj
 0005:00002be0       __guard_xfg??1?$__crt_win32_buffer@DU__crt_win32_buffer_no_resizing@@@@QEAA@XZ 000000014005dbe0     libucrtd:getmodulefilenamea.obj
 0005:00002bf0       __guard_xfg?data@?$__crt_win32_buffer@DU__crt_win32_buffer_no_resizing@@@@QEAAPEADXZ 000000014005dbf0     libucrtd:getmodulefilenamea.obj
 0005:00002c00       __guard_xfg?size@?$__crt_win32_buffer@DU__crt_win32_buffer_no_resizing@@@@QEBA_KXZ 000000014005dc00     libucrtd:getmodulefilenamea.obj
 0005:00002c10       __guard_xfg?size@?$__crt_win32_buffer@DU__crt_win32_buffer_no_resizing@@@@QEAAX_K@Z 000000014005dc10     libucrtd:getmodulefilenamea.obj
 0005:00002c20       __guard_xfg?capacity@?$__crt_win32_buffer@DU__crt_win32_buffer_no_resizing@@@@QEBA_KXZ 000000014005dc20     libucrtd:getmodulefilenamea.obj
 0005:00002c30       __guard_xfg?debug_info@?$__crt_win32_buffer@DU__crt_win32_buffer_no_resizing@@@@QEBAAEBV__crt_win32_buffer_empty_debug_info@@XZ 000000014005dc30     libucrtd:getmodulefilenamea.obj
 0005:00002c40       __guard_xfg?allocate@?$__crt_win32_buffer@DU__crt_win32_buffer_no_resizing@@@@QEAAH_K@Z 000000014005dc40     libucrtd:getmodulefilenamea.obj
 0005:00002c50       __guard_xfg?set_to_nullptr@?$__crt_win32_buffer@DU__crt_win32_buffer_no_resizing@@@@QEAAXXZ 000000014005dc50     libucrtd:getmodulefilenamea.obj
 0005:00002c60       __guard_xfg?_deallocate@?$__crt_win32_buffer@DU__crt_win32_buffer_no_resizing@@@@AEAAXXZ 000000014005dc60     libucrtd:getmodulefilenamea.obj
 0005:00002c70       __guard_xfg??$__acrt_wcs_to_mbs_cp@U__crt_win32_buffer_no_resizing@@@@YAHQEB_WAEAV?$__crt_win32_buffer@DU__crt_win32_buffer_no_resizing@@@@I@Z 000000014005dc70     libucrtd:getmodulefilenamea.obj
 0005:00002c80       __guard_xfg??R<lambda_f788ae46380686e8b737efdd8c720d07>@@QEBAHIQEB_WQEAD_K@Z 000000014005dc80     libucrtd:getmodulefilenamea.obj
 0005:00002c90       __guard_xfg??$__acrt_convert_wcs_mbs_cp@_WDV<lambda_f788ae46380686e8b737efdd8c720d07>@@U__crt_win32_buffer_no_resizing@@@@YAHQEB_WAEAV?$__crt_win32_buffer@DU__crt_win32_buffer_no_resizing@@@@AEBV<lambda_f788ae46380686e8b737efdd8c720d07>@@I@Z 000000014005dc90     libucrtd:getmodulefilenamea.obj
 0005:00002ca0       __guard_xfgmemcpy_s        000000014005dca0     libucrtd:mbctype.obj
 0005:00002cb0       __guard_xfg__acrt_update_thread_multibyte_data 000000014005dcb0     libucrtd:mbctype.obj
 0005:00002cc0       __guard_xfg__acrt_initialize_multibyte 000000014005dcc0     libucrtd:mbctype.obj
 0005:00002cd0       __guard_xfg__acrt_should_sync_with_global_locale 000000014005dcd0     libucrtd:mbctype.obj
 0005:00002ce0       __guard_xfg?value@?$dual_state_global@PEAE@__crt_state_management@@QEAAAEAPEAEXZ 000000014005dce0     libucrtd:mbctype.obj
 0005:00002cf0       __guard_xfg?dangerous_get_state_array@?$dual_state_global@PEAE@__crt_state_management@@QEAAPEAPEAEXZ 000000014005dcf0     libucrtd:mbctype.obj
 0005:00002d00       __guard_xfg?value@?$dual_state_global@PEAU__crt_multibyte_data@@@__crt_state_management@@QEAAAEAPEAU__crt_multibyte_data@@XZ 000000014005dd00     libucrtd:mbctype.obj
 0005:00002d10       __guard_xfg?initialize@?$dual_state_global@PEAU__crt_multibyte_data@@@__crt_state_management@@QEAAXQEAU__crt_multibyte_data@@@Z 000000014005dd10     libucrtd:mbctype.obj
 0005:00002d20       __guard_xfg?dangerous_get_state_array@?$dual_state_global@PEAU__crt_multibyte_data@@@__crt_state_management@@QEAAPEAPEAU__crt_multibyte_data@@XZ 000000014005dd20     libucrtd:mbctype.obj
 0005:00002d30       __guard_xfg_setmbcp_nolock 000000014005dd30     libucrtd:mbctype.obj
 0005:00002d40       __guard_xfg?getSystemCP@@YAHH@Z 000000014005dd40     libucrtd:mbctype.obj
 0005:00002d50       __guard_xfg?setSBCS@@YAXPEAU__crt_multibyte_data@@@Z 000000014005dd50     libucrtd:mbctype.obj
 0005:00002d60       __guard_xfg?update_thread_multibyte_data_internal@@YAPEAU__crt_multibyte_data@@QEAU__acrt_ptd@@QEAPEAU1@@Z 000000014005dd60     libucrtd:mbctype.obj
 0005:00002d70       __guard_xfg?setmbcp_internal@@YAHH_NQEAU__acrt_ptd@@QEAPEAU__crt_multibyte_data@@@Z 000000014005dd70     libucrtd:mbctype.obj
 0005:00002d80       __guard_xfg??R<lambda_bd5a608237428601b7e45fbdc72b1ae8>@@QEBAXXZ 000000014005dd80     libucrtd:mbctype.obj
 0005:00002d90       __guard_xfg??0<lambda_bd5a608237428601b7e45fbdc72b1ae8>@@QEAA@AEBQEAU__acrt_ptd@@AEBQEAPEAU__crt_multibyte_data@@@Z 000000014005dd90     libucrtd:mbctype.obj
 0005:00002da0       __guard_xfg??$__acrt_lock_and_call@V<lambda_bd5a608237428601b7e45fbdc72b1ae8>@@@@YAXW4__acrt_lock_id@@$$QEAV<lambda_bd5a608237428601b7e45fbdc72b1ae8>@@@Z 000000014005dda0     libucrtd:mbctype.obj
 0005:00002db0       __guard_xfg?CPtoLocaleName@@YAPEB_WH@Z 000000014005ddb0     libucrtd:mbctype.obj
 0005:00002dc0       __guard_xfg?setSBUpLow@@YAXPEAU__crt_multibyte_data@@@Z 000000014005ddc0     libucrtd:mbctype.obj
 0005:00002dd0       __guard_xfg??$initialize_from_array@$$BY10BAA@E@?$dual_state_global@PEAE@__crt_state_management@@QEAAXAEAY10BAA@E@Z 000000014005ddd0     libucrtd:mbctype.obj
 0005:00002de0       __guard_xfg??$initialize_from_array@$$BY10BAB@E@?$dual_state_global@PEAE@__crt_state_management@@QEAAXAEAY10BAB@E@Z 000000014005dde0     libucrtd:mbctype.obj
 0005:00002df0       __guard_xfg??R<lambda_efa02eb69bf647d2f7ff0dd6f1103f72>@@QEBAXXZ 000000014005ddf0     libucrtd:mbctype.obj
 0005:00002e00       __guard_xfg??0<lambda_efa02eb69bf647d2f7ff0dd6f1103f72>@@QEAA@AEBW4__acrt_lock_id@@@Z 000000014005de00     libucrtd:mbctype.obj
 0005:00002e10       __guard_xfg??R<lambda_728235dc0fc2b1f82d1fa5b3e7102d8f>@@QEBAXXZ 000000014005de10     libucrtd:mbctype.obj
 0005:00002e20       __guard_xfg??0<lambda_728235dc0fc2b1f82d1fa5b3e7102d8f>@@QEAA@AEBW4__acrt_lock_id@@@Z 000000014005de20     libucrtd:mbctype.obj
 0005:00002e30       __guard_xfg??$?RV<lambda_efa02eb69bf647d2f7ff0dd6f1103f72>@@AEAV<lambda_bd5a608237428601b7e45fbdc72b1ae8>@@V<lambda_728235dc0fc2b1f82d1fa5b3e7102d8f>@@@?$__crt_seh_guarded_call@X@@QEAAX$$QEAV<lambda_efa02eb69bf647d2f7ff0dd6f1103f72>@@AEAV<lambda_bd5a608237428601b7e45fbdc72b1ae8>@@$$QEAV<lambda_728235dc0fc2b1f82d1fa5b3e7102d8f>@@@Z 000000014005de30     libucrtd:mbctype.obj
 0005:00002e40       __guard_xfg_ismbblead      000000014005de40     libucrtd:ismbbyte.obj
 0005:00002e50       __guard_xfg?x_ismbbtype_l@@YAHPEAU__crt_locale_pointers@@IHH@Z 000000014005de50     libucrtd:ismbbyte.obj
 0005:00002e60       __guard_xfg__acrt_initialize_command_line 000000014005de60     libucrtd:argv_data.obj
 0005:00002e70       __guard_xfg__acrt_uninitialize_command_line 000000014005de70     libucrtd:argv_data.obj
 0005:00002e80       __guard_xfg__acrt_MultiByteToWideChar 000000014005de80     libucrtd:multibytetowidechar.obj
 0005:00002e90       __guard_xfg?filter_mbtowcs_flags@@YAKIK@Z 000000014005de90     libucrtd:multibytetowidechar.obj
 0005:00002ea0       __guard_xfg__acrt_WideCharToMultiByte 000000014005dea0     libucrtd:widechartomultibyte.obj
 0005:00002eb0       __guard_xfg?filter_wcstomb_flags@@YAKIK@Z 000000014005deb0     libucrtd:widechartomultibyte.obj
 0005:00002ec0       __guard_xfg__dcrt_get_narrow_environment_from_os 000000014005dec0     libucrtd:get_environment_from_os.obj
 0005:00002ed0       __guard_xfg?close@environment_strings_traits@?A0x1bf47908@@SA_NPEA_W@Z 000000014005ded0     libucrtd:get_environment_from_os.obj
 0005:00002ee0       __guard_xfg?get_invalid_value@environment_strings_traits@?A0x1bf47908@@SAPEA_WXZ 000000014005dee0     libucrtd:get_environment_from_os.obj
 0005:00002ef0       __guard_xfg?find_end_of_double_null_terminated_sequence@@YAPEB_WQEB_W@Z 000000014005def0     libucrtd:get_environment_from_os.obj
 0005:00002f00       __guard_xfg??0?$__crt_unique_handle_t@Uenvironment_strings_traits@?A0x1bf47908@@@@QEAA@QEA_W@Z 000000014005df00     libucrtd:get_environment_from_os.obj
 0005:00002f10       __guard_xfg??1?$__crt_unique_handle_t@Uenvironment_strings_traits@?A0x1bf47908@@@@QEAA@XZ 000000014005df10     libucrtd:get_environment_from_os.obj
 0005:00002f20       __guard_xfg?get@?$__crt_unique_handle_t@Uenvironment_strings_traits@?A0x1bf47908@@@@QEBAPEA_WXZ 000000014005df20     libucrtd:get_environment_from_os.obj
 0005:00002f30       __guard_xfg?close@?$__crt_unique_handle_t@Uenvironment_strings_traits@?A0x1bf47908@@@@QEAAXXZ 000000014005df30     libucrtd:get_environment_from_os.obj
 0005:00002f40       __guard_xfg?is_valid@?$__crt_unique_handle_t@Uenvironment_strings_traits@?A0x1bf47908@@@@QEBA_NXZ 000000014005df40     libucrtd:get_environment_from_os.obj
 0005:00002f50       __guard_xfg__acrt_initialize_locks 000000014005df50     libucrtd:locks.obj
 0005:00002f60       __guard_xfg__acrt_uninitialize_locks 000000014005df60     libucrtd:locks.obj
 0005:00002f70       __guard_xfg__acrt_lock     000000014005df70     libucrtd:locks.obj
 0005:00002f80       __guard_xfg__acrt_unlock   000000014005df80     libucrtd:locks.obj
 0005:00002f90       __guard_xfg__acrt_get_process_end_policy 000000014005df90     libucrtd:win_policies.obj
 0005:00002fa0       __guard_xfg__acrt_get_developer_information_policy 000000014005dfa0     libucrtd:win_policies.obj
 0005:00002fb0       __guard_xfg__acrt_get_windowing_model_policy 000000014005dfb0     libucrtd:win_policies.obj
 0005:00002fc0       __guard_xfg?appmodel_policy_to_policy_type@process_end_policy_properties@?1??__acrt_get_process_end_policy@@YA?AW4process_end_policy@@XZ@SA?AW43@W4AppPolicyProcessTerminationMethod@@@Z 000000014005dfc0     libucrtd:win_policies.obj
 0005:00002fd0       __guard_xfg?appmodel_get_policy@process_end_policy_properties@?1??__acrt_get_process_end_policy@@YA?AW4process_end_policy@@XZ@SAJPEAW4AppPolicyProcessTerminationMethod@@@Z 000000014005dfd0     libucrtd:win_policies.obj
 0005:00002fe0       __guard_xfg??$get_win_policy@Uprocess_end_policy_properties@?1??__acrt_get_process_end_policy@@YA?AW4process_end_policy@@XZ@@@YA?AW4process_end_policy@@W4AppPolicyProcessTerminationMethod@@@Z 000000014005dfe0     libucrtd:win_policies.obj
 0005:00002ff0       __guard_xfg?appmodel_policy_to_policy_type@developer_information_policy_properties@?1??__acrt_get_developer_information_policy@@YA?AW4developer_information_policy@@XZ@SA?AW43@J@Z 000000014005dff0     libucrtd:win_policies.obj
 0005:00003000       __guard_xfg?appmodel_get_policy@developer_information_policy_properties@?1??__acrt_get_developer_information_policy@@YA?AW4developer_information_policy@@XZ@SAJPEAW4AppPolicyShowDeveloperDiagnostic@@@Z 000000014005e000     libucrtd:win_policies.obj
 0005:00003010       __guard_xfg??$get_cached_win_policy@Udeveloper_information_policy_properties@?1??__acrt_get_developer_information_policy@@YA?AW4developer_information_policy@@XZ@@@YA?AW4developer_information_policy@@W4AppPolicyShowDeveloperDiagnostic@@@Z 000000014005e010     libucrtd:win_policies.obj
 0005:00003020       __guard_xfg?appmodel_policy_to_policy_type@windowing_model_policy_properties@?1??__acrt_get_windowing_model_policy@@YA?AW4windowing_model_policy@@XZ@SA?AW43@J@Z 000000014005e020     libucrtd:win_policies.obj
 0005:00003030       __guard_xfg?appmodel_get_policy@windowing_model_policy_properties@?1??__acrt_get_windowing_model_policy@@YA?AW4windowing_model_policy@@XZ@SAJPEAW4AppPolicyWindowingModel@@@Z 000000014005e030     libucrtd:win_policies.obj
 0005:00003040       __guard_xfg??$get_cached_win_policy@Uwindowing_model_policy_properties@?1??__acrt_get_windowing_model_policy@@YA?AW4windowing_model_policy@@XZ@@@YA?AW4windowing_model_policy@@W4AppPolicyWindowingModel@@@Z 000000014005e040     libucrtd:win_policies.obj
 0005:00003050       __guard_xfg_get_osfhandle  000000014005e050     libucrtd:osfinfo.obj
 0005:00003060       __guard_xfg_free_osfhnd    000000014005e060     libucrtd:osfinfo.obj
 0005:00003070       __guard_xfg__acrt_lowio_create_handle_array 000000014005e070     libucrtd:osfinfo.obj
 0005:00003080       __guard_xfg__acrt_lowio_destroy_handle_array 000000014005e080     libucrtd:osfinfo.obj
 0005:00003090       __guard_xfg__acrt_lowio_ensure_fh_exists 000000014005e090     libucrtd:osfinfo.obj
 0005:000030a0       __guard_xfg__acrt_lowio_lock_fh 000000014005e0a0     libucrtd:osfinfo.obj
 0005:000030b0       __guard_xfg__acrt_lowio_unlock_fh 000000014005e0b0     libucrtd:osfinfo.obj
 0005:000030c0       __guard_xfg??0?$__crt_unique_heap_ptr@U__crt_lowio_handle_data@@U__crt_internal_free_policy@@@@QEAA@QEAU__crt_lowio_handle_data@@@Z 000000014005e0c0     libucrtd:osfinfo.obj
 0005:000030d0       __guard_xfg??1?$__crt_unique_heap_ptr@U__crt_lowio_handle_data@@U__crt_internal_free_policy@@@@QEAA@XZ 000000014005e0d0     libucrtd:osfinfo.obj
 0005:000030e0       __guard_xfg?detach@?$__crt_unique_heap_ptr@U__crt_lowio_handle_data@@U__crt_internal_free_policy@@@@QEAAPEAU__crt_lowio_handle_data@@XZ 000000014005e0e0     libucrtd:osfinfo.obj
 0005:000030f0       __guard_xfg?release@?$__crt_unique_heap_ptr@U__crt_lowio_handle_data@@U__crt_internal_free_policy@@@@QEAAXXZ 000000014005e0f0     libucrtd:osfinfo.obj
 0005:00003100       __guard_xfg?is_valid@?$__crt_unique_heap_ptr@U__crt_lowio_handle_data@@U__crt_internal_free_policy@@@@QEBA_NXZ 000000014005e100     libucrtd:osfinfo.obj
 0005:00003110       __guard_xfg??B?$__crt_unique_heap_ptr@U__crt_lowio_handle_data@@U__crt_internal_free_policy@@@@QEBA_NXZ 000000014005e110     libucrtd:osfinfo.obj
 0005:00003120       __guard_xfg?get@?$__crt_unique_heap_ptr@U__crt_lowio_handle_data@@U__crt_internal_free_policy@@@@QEBAPEAU__crt_lowio_handle_data@@XZ 000000014005e120     libucrtd:osfinfo.obj
 0005:00003130       __guard_xfg??$?RU__crt_lowio_handle_data@@@__crt_internal_free_policy@@QEBAXQEBU__crt_lowio_handle_data@@@Z 000000014005e130     libucrtd:osfinfo.obj
 0005:00003140       __guard_xfg?dangerous_get_state_array@?$dual_state_global@H@__crt_state_management@@QEAAPEAHXZ 000000014005e140     libucrtd:txtmode.obj
 0005:00003150       __guard_xfg__acrt_initialize_fmode 000000014005e150     libucrtd:txtmode.obj
 0005:00003160       __guard_xfg__acrt_initialize_lowio 000000014005e160     libucrtd:ioinit.obj
 0005:00003170       __guard_xfg__acrt_uninitialize_lowio 000000014005e170     libucrtd:ioinit.obj
 0005:00003180       __guard_xfg?get_std_handle_id@@YAKH@Z 000000014005e180     libucrtd:ioinit.obj
 0005:00003190       __guard_xfg?initialize_inherited_file_handles_nolock@@YAXXZ 000000014005e190     libucrtd:ioinit.obj
 0005:000031a0       __guard_xfg?initialize_stdio_handles_nolock@@YAXXZ 000000014005e1a0     libucrtd:ioinit.obj
 0005:000031b0       __guard_xfg__acrt_locale_free_monetary 000000014005e1b0     libucrtd:initmon.obj
 0005:000031c0       __guard_xfg__acrt_locale_free_numeric 000000014005e1c0     libucrtd:initnum.obj
 0005:000031d0       __guard_xfg__acrt_locale_free_time 000000014005e1d0     libucrtd:inittime.obj
 0005:000031e0       __guard_xfg?free_crt_array_internal@@YAXQEAPEBX_K@Z 000000014005e1e0     libucrtd:inittime.obj
 0005:000031f0       __guard_xfg??$free_crt_array@D$06@@YAXAEAY06PEAD@Z 000000014005e1f0     libucrtd:inittime.obj
 0005:00003200       __guard_xfg??$free_crt_array@D$0M@@@YAXAEAY0M@PEAD@Z 000000014005e200     libucrtd:inittime.obj
 0005:00003210       __guard_xfg??$free_crt_array@D$01@@YAXAEAY01PEAD@Z 000000014005e210     libucrtd:inittime.obj
 0005:00003220       __guard_xfg??$free_crt_array@_W$06@@YAXAEAY06PEA_W@Z 000000014005e220     libucrtd:inittime.obj
 0005:00003230       __guard_xfg??$free_crt_array@_W$0M@@@YAXAEAY0M@PEA_W@Z 000000014005e230     libucrtd:inittime.obj
 0005:00003240       __guard_xfg??$free_crt_array@_W$01@@YAXAEAY01PEA_W@Z 000000014005e240     libucrtd:inittime.obj
 0005:00003250       __guard_xfg_isctype_l      000000014005e250     libucrtd:isctype.obj
 0005:00003260       __guard_xfg_chvalidator_l  000000014005e260     libucrtd:isctype.obj
 0005:00003270       __guard_xfg_isleadbyte_fast_internal 000000014005e270     libucrtd:isctype.obj
 0005:00003280       __guard_xfg_MarkAllocaS    000000014005e280     libucrtd:getstringtypea.obj
 0005:00003290       __guard_xfg_MallocaComputeSize 000000014005e290     libucrtd:getstringtypea.obj
 0005:000032a0       __guard_xfg_freea_crt      000000014005e2a0     libucrtd:getstringtypea.obj
 0005:000032b0       __guard_xfg__acrt_GetStringTypeA 000000014005e2b0     libucrtd:getstringtypea.obj
 0005:000032c0       __guard_xfg??0?$__crt_scoped_stack_ptr_tag@_W@@QEAA@QEA_W@Z 000000014005e2c0     libucrtd:getstringtypea.obj
 0005:000032d0       __guard_xfg??0?$__crt_scoped_stack_ptr@_W@@QEAA@U?$__crt_scoped_stack_ptr_tag@_W@@@Z 000000014005e2d0     libucrtd:getstringtypea.obj
 0005:000032e0       __guard_xfg??1?$__crt_scoped_stack_ptr@_W@@QEAA@XZ 000000014005e2e0     libucrtd:getstringtypea.obj
 0005:000032f0       __guard_xfg?get@?$__crt_scoped_stack_ptr@_W@@QEBAPEA_WXZ 000000014005e2f0     libucrtd:getstringtypea.obj
 0005:00003300       __guard_xfg__acrt_add_locale_ref 000000014005e300     libucrtd:locale_refcounting.obj
 0005:00003310       __guard_xfg__acrt_release_locale_ref 000000014005e310     libucrtd:locale_refcounting.obj
 0005:00003320       __guard_xfg__acrt_free_locale 000000014005e320     libucrtd:locale_refcounting.obj
 0005:00003330       __guard_xfg__acrt_locale_add_lc_time_reference 000000014005e330     libucrtd:locale_refcounting.obj
 0005:00003340       __guard_xfg__acrt_locale_release_lc_time_reference 000000014005e340     libucrtd:locale_refcounting.obj
 0005:00003350       __guard_xfg__acrt_locale_free_lc_time_if_unreferenced 000000014005e350     libucrtd:locale_refcounting.obj
 0005:00003360       __guard_xfg__acrt_update_thread_locale_data 000000014005e360     libucrtd:locale_refcounting.obj
 0005:00003370       __guard_xfg_updatetlocinfoEx_nolock 000000014005e370     libucrtd:locale_refcounting.obj
 0005:00003380       __guard_xfgGetCurrentThreadEffectiveToken 000000014005e380     libucrtd:winapi_thunks.obj
 0005:00003390       __guard_xfg__acrt_initialize_winapi_thunks 000000014005e390     libucrtd:winapi_thunks.obj
 0005:000033a0       __guard_xfg__acrt_uninitialize_winapi_thunks 000000014005e3a0     libucrtd:winapi_thunks.obj
 0005:000033b0       __guard_xfg__acrt_AreFileApisANSI 000000014005e3b0     libucrtd:winapi_thunks.obj
 0005:000033c0       __guard_xfg__acrt_FlsAlloc 000000014005e3c0     libucrtd:winapi_thunks.obj
 0005:000033d0       __guard_xfg__acrt_FlsFree  000000014005e3d0     libucrtd:winapi_thunks.obj
 0005:000033e0       __guard_xfg__acrt_FlsGetValue 000000014005e3e0     libucrtd:winapi_thunks.obj
 0005:000033f0       __guard_xfg__acrt_FlsSetValue 000000014005e3f0     libucrtd:winapi_thunks.obj
 0005:00003400       __guard_xfg__acrt_InitializeCriticalSectionEx 000000014005e400     libucrtd:winapi_thunks.obj
 0005:00003410       __guard_xfg__acrt_LCMapStringEx 000000014005e410     libucrtd:winapi_thunks.obj
 0005:00003420       __guard_xfg__acrt_LocaleNameToLCID 000000014005e420     libucrtd:winapi_thunks.obj
 0005:00003430       __guard_xfg__acrt_MessageBoxW 000000014005e430     libucrtd:winapi_thunks.obj
 0005:00003440       __guard_xfg__acrt_AppPolicyGetProcessTerminationMethodInternal 000000014005e440     libucrtd:winapi_thunks.obj
 0005:00003450       __guard_xfg__acrt_AppPolicyGetShowDeveloperDiagnosticInternal 000000014005e450     libucrtd:winapi_thunks.obj
 0005:00003460       __guard_xfg__acrt_AppPolicyGetWindowingModelInternal 000000014005e460     libucrtd:winapi_thunks.obj
 0005:00003470       __guard_xfg__acrt_can_show_message_box 000000014005e470     libucrtd:winapi_thunks.obj
 0005:00003480       __guard_xfg__acrt_get_parent_window 000000014005e480     libucrtd:winapi_thunks.obj
 0005:00003490       __guard_xfg__acrt_is_interactive 000000014005e490     libucrtd:winapi_thunks.obj
 0005:000034a0       __guard_xfg?invalid_function_sentinel@@YAPEAXXZ 000000014005e4a0     libucrtd:winapi_thunks.obj
 0005:000034b0       __guard_xfg?try_load_library_from_system_directory@@YAPEAUHINSTANCE__@@QEB_W@Z 000000014005e4b0     libucrtd:winapi_thunks.obj
 0005:000034c0       __guard_xfg?try_get_module@@YAPEAUHINSTANCE__@@W4module_id@?A0x391cf84c@@@Z 000000014005e4c0     libucrtd:winapi_thunks.obj
 0005:000034d0       __guard_xfg?try_get_first_available_module@@YAPEAUHINSTANCE__@@QEBW4module_id@?A0x391cf84c@@0@Z 000000014005e4d0     libucrtd:winapi_thunks.obj
 0005:000034e0       __guard_xfg?try_get_proc_address_from_first_available_module@@YAPEAXQEBDQEBW4module_id@?A0x391cf84c@@1@Z 000000014005e4e0     libucrtd:winapi_thunks.obj
 0005:000034f0       __guard_xfg?try_get_function@@YAPEAXW4function_id@?A0x391cf84c@@QEBDQEBW4module_id@2@2@Z 000000014005e4f0     libucrtd:winapi_thunks.obj
 0005:00003500       __guard_xfg?try_get_AreFileApisANSI@@YAP6AHXZXZ 000000014005e500     libucrtd:winapi_thunks.obj
 0005:00003510       __guard_xfg?try_get_GetActiveWindow@@YAP6APEAUHWND__@@XZXZ 000000014005e510     libucrtd:winapi_thunks.obj
 0005:00003520       __guard_xfg?try_get_GetLastActivePopup@@YAP6APEAUHWND__@@PEAU1@@ZXZ 000000014005e520     libucrtd:winapi_thunks.obj
 0005:00003530       __guard_xfg?try_get_GetProcessWindowStation@@YAP6APEAUHWINSTA__@@XZXZ 000000014005e530     libucrtd:winapi_thunks.obj
 0005:00003540       __guard_xfg?try_get_GetUserObjectInformationW@@YAP6AHPEAXH0KPEAK@ZXZ 000000014005e540     libucrtd:winapi_thunks.obj
 0005:00003550       __guard_xfg?try_get_InitializeCriticalSectionEx@@YAP6AHPEAU_RTL_CRITICAL_SECTION@@KK@ZXZ 000000014005e550     libucrtd:winapi_thunks.obj
 0005:00003560       __guard_xfg?try_get_LCMapStringEx@@YAP6AHPEB_WK0HPEA_WHPEAU_nlsversioninfo@@PEAX_J@ZXZ 000000014005e560     libucrtd:winapi_thunks.obj
 0005:00003570       __guard_xfg?try_get_LocaleNameToLCID@@YAP6AKPEB_WK@ZXZ 000000014005e570     libucrtd:winapi_thunks.obj
 0005:00003580       __guard_xfg?try_get_MessageBoxA@@YAP6AHPEAUHWND__@@PEBD1I@ZXZ 000000014005e580     libucrtd:winapi_thunks.obj
 0005:00003590       __guard_xfg?try_get_MessageBoxW@@YAP6AHPEAUHWND__@@PEB_W1I@ZXZ 000000014005e590     libucrtd:winapi_thunks.obj
 0005:000035a0       __guard_xfg?try_get_AppPolicyGetProcessTerminationMethod@@YAP6AJPEAXPEAW4AppPolicyProcessTerminationMethod@@@ZXZ 000000014005e5a0     libucrtd:winapi_thunks.obj
 0005:000035b0       __guard_xfg?try_get_AppPolicyGetShowDeveloperDiagnostic@@YAP6AJPEAXPEAW4AppPolicyShowDeveloperDiagnostic@@@ZXZ 000000014005e5b0     libucrtd:winapi_thunks.obj
 0005:000035c0       __guard_xfg?try_get_AppPolicyGetWindowingModel@@YAP6AJPEAXPEAW4AppPolicyWindowingModel@@@ZXZ 000000014005e5c0     libucrtd:winapi_thunks.obj
 0005:000035d0       __guard_xfg__acrt_initialize_heap 000000014005e5d0     libucrtd:heap_handle.obj
 0005:000035e0       __guard_xfg__acrt_uninitialize_heap 000000014005e5e0     libucrtd:heap_handle.obj
 0005:000035f0       __guard_xfg__acrt_execute_initializers 000000014005e5f0     libucrtd:shared_initialization.obj
 0005:00003600       __guard_xfg__acrt_execute_uninitializers 000000014005e600     libucrtd:shared_initialization.obj
 0005:00003610       __guard_xfg_callnewh       000000014005e610     libucrtd:new_handler.obj
 0005:00003620       __guard_xfg__acrt_initialize_new_handler 000000014005e620     libucrtd:new_handler.obj
 0005:00003630       __guard_xfg_query_new_handler 000000014005e630     libucrtd:new_handler.obj
 0005:00003640       __guard_xfg?value@?$dual_state_global@P6AH_K@Z@__crt_state_management@@QEAAAEAP6AH_K@ZXZ 000000014005e640     libucrtd:new_handler.obj
 0005:00003650       __guard_xfg?initialize@?$dual_state_global@P6AH_K@Z@__crt_state_management@@QEAAXQ6AH_K@Z@Z 000000014005e650     libucrtd:new_handler.obj
 0005:00003660       __guard_xfg??$__crt_fast_decode_pointer@P6AH_K@Z@@YAP6AH_K@ZQ6AH0@Z@Z 000000014005e660     libucrtd:new_handler.obj
 0005:00003670       __guard_xfg__acrt_initialize_signal_handlers 000000014005e670     libucrtd:signal.obj
 0005:00003680       __guard_xfg__acrt_get_sigabrt_handler 000000014005e680     libucrtd:signal.obj
 0005:00003690       __guard_xfg__fpecode       000000014005e690     libucrtd:signal.obj
 0005:000036a0       __guard_xfgraise           000000014005e6a0     libucrtd:signal.obj
 0005:000036b0       __guard_xfg?value@?$dual_state_global@P6AXH@Z@__crt_state_management@@QEAAAEAP6AXH@ZXZ 000000014005e6b0     libucrtd:signal.obj
 0005:000036c0       __guard_xfg?initialize@?$dual_state_global@P6AXH@Z@__crt_state_management@@QEAAXQ6AXH@Z@Z 000000014005e6c0     libucrtd:signal.obj
 0005:000036d0       __guard_xfg?get_global_action_nolock@@YAPEAP6AXH@ZH@Z 000000014005e6d0     libucrtd:signal.obj
 0005:000036e0       __guard_xfg?siglookup@@YAPEAU__crt_signal_action_t@@HQEAU1@@Z 000000014005e6e0     libucrtd:signal.obj
 0005:000036f0       __guard_xfg??$__crt_fast_decode_pointer@P6AXH@Z@@YAP6AXH@ZQ6AXH@Z@Z 000000014005e6f0     libucrtd:signal.obj
 0005:00003700       __guard_xfg??$?B$$A6AXH@Z@__crt_fast_encoded_nullptr_t@@QEBAP6AXH@ZXZ 000000014005e700     libucrtd:signal.obj
 0005:00003710       __guard_xfg??$__crt_fast_encode_pointer@P6AXH@Z@@YAP6AXH@ZQ6AXH@Z@Z 000000014005e710     libucrtd:signal.obj
 0005:00003720       __guard_xfg??R<lambda_44731a7d0e6d81c3e6aa82d741081786>@@QEBAP6AXH@ZXZ 000000014005e720     libucrtd:signal.obj
 0005:00003730       __guard_xfg??$__acrt_lock_and_call@V<lambda_44731a7d0e6d81c3e6aa82d741081786>@@@@YAP6AXH@ZW4__acrt_lock_id@@$$QEAV<lambda_44731a7d0e6d81c3e6aa82d741081786>@@@Z 000000014005e730     libucrtd:signal.obj
 0005:00003740       __guard_xfg??R<lambda_450d765d439847d4c735a33c368b5fc0>@@QEBAXXZ 000000014005e740     libucrtd:signal.obj
 0005:00003750       __guard_xfg??0<lambda_450d765d439847d4c735a33c368b5fc0>@@QEAA@AEBW4__acrt_lock_id@@@Z 000000014005e750     libucrtd:signal.obj
 0005:00003760       __guard_xfg??R<lambda_601a2a7da3b7a96e9554ac7215c4b07c>@@QEBAXXZ 000000014005e760     libucrtd:signal.obj
 0005:00003770       __guard_xfg??0<lambda_601a2a7da3b7a96e9554ac7215c4b07c>@@QEAA@AEBW4__acrt_lock_id@@@Z 000000014005e770     libucrtd:signal.obj
 0005:00003780       __guard_xfg??$?RV<lambda_450d765d439847d4c735a33c368b5fc0>@@AEAV<lambda_44731a7d0e6d81c3e6aa82d741081786>@@V<lambda_601a2a7da3b7a96e9554ac7215c4b07c>@@@?$__crt_seh_guarded_call@P6AXH@Z@@QEAAP6AXH@Z$$QEAV<lambda_450d765d439847d4c735a33c368b5fc0>@@AEAV<lambda_44731a7d0e6d81c3e6aa82d741081786>@@$$QEAV<lambda_601a2a7da3b7a96e9554ac7215c4b07c>@@@Z 000000014005e780     libucrtd:signal.obj
 0005:00003790       __guard_xfg?has_any_of@__crt_stdio_stream@@QEBA_NJ@Z 000000014005e790     libucrtd:_sftbuf.obj
 0005:000037a0       __guard_xfg?set_flags@__crt_stdio_stream@@QEBA_NJ@Z 000000014005e7a0     libucrtd:_sftbuf.obj
 0005:000037b0       __guard_xfg?unset_flags@__crt_stdio_stream@@QEBA_NJ@Z 000000014005e7b0     libucrtd:_sftbuf.obj
 0005:000037c0       __guard_xfg_free_base      000000014005e7c0     libucrtd:free_base.obj
 0005:000037d0       __guard_xfg?select_heap@@YAPEAXQEAX@Z 000000014005e7d0     libucrtd:free_base.obj
 0005:000037e0       __guard_xfg_realloc_base   000000014005e7e0     libucrtd:realloc_base.obj
 0005:000037f0       __guard_xfg_expand_base    000000014005e7f0     libucrtd:expand.obj
 0005:00003800       __guard_xfg?is_contraction_possible@@YA_N_K@Z 000000014005e800     libucrtd:expand.obj
 0005:00003810       __guard_xfg__acrt_update_locale_info 000000014005e810     libucrtd:locale_update.obj
 0005:00003820       __guard_xfg__acrt_update_multibyte_info 000000014005e820     libucrtd:locale_update.obj
 0005:00003830       __guard_xfg__acrt_update_locale_info_explicit 000000014005e830     libucrtd:locale_update.obj
 0005:00003840       __guard_xfg__acrt_update_multibyte_info_explicit 000000014005e840     libucrtd:locale_update.obj
 0005:00003850       __guard_xfg?value_explicit@?$dual_state_global@PEAU__crt_locale_data@@@__crt_state_management@@QEAAAEAPEAU__crt_locale_data@@_K@Z 000000014005e850     libucrtd:locale_update.obj
 0005:00003860       __guard_xfg?value_explicit@?$dual_state_global@PEAU__crt_multibyte_data@@@__crt_state_management@@QEAAAEAPEAU__crt_multibyte_data@@_K@Z 000000014005e860     libucrtd:locale_update.obj
 0005:00003870       __guard_xfg_CrtDefaultAllocHook 000000014005e870     libucrtd:debug_heap_hook.obj
 0005:00003880       __guard_xfg_CrtGetDebugFillThreshold 000000014005e880     libucrtd:debug_fill_threshold.obj
 0005:00003890       __guard_xfg_VCrtDbgReportA 000000014005e890     libucrtd:dbgrptt.obj
 0005:000038a0       __guard_xfg_VCrtDbgReportW 000000014005e8a0     libucrtd:dbgrptt.obj
 0005:000038b0       __guard_xfg_vsnprintf_s_l  000000014005e8b0     libucrtd:dbgrptt.obj
 0005:000038c0       __guard_xfg_vsnprintf_s    000000014005e8c0     libucrtd:dbgrptt.obj
 0005:000038d0       __guard_xfg_snprintf_s     000000014005e8d0     libucrtd:dbgrptt.obj
 0005:000038e0       __guard_xfg?strrchr@@YAPEADQEADH@Z 000000014005e8e0     libucrtd:cvt.obj
 0005:000038f0       __guard_xfg?__acrt_fp_classify@@YA?AW4__acrt_fp_class@@AEBN@Z 000000014005e8f0     libucrtd:cvt.obj
 0005:00003900       __guard_xfg?__acrt_fp_is_negative@@YA_NAEBN@Z 000000014005e900     libucrtd:cvt.obj
 0005:00003910       __guard_xfg__acrt_fp_format 000000014005e910     libucrtd:cvt.obj
 0005:00003920       __guard_xfg?shift_bytes@@YAXQEAD_K0H@Z 000000014005e920     libucrtd:cvt.obj
 0005:00003930       __guard_xfg?fp_format_nan_or_infinity@@YAHW4__acrt_fp_class@@_NPEAD_K1@Z 000000014005e930     libucrtd:cvt.obj
 0005:00003940       __guard_xfg?fp_format_e_internal@@YAHQEAD_KH_NIQEAU_strflt@@2AEAV__crt_cached_ptd_host@@@Z 000000014005e940     libucrtd:cvt.obj
 0005:00003950       __guard_xfg?fp_format_e@@YAHQEBNQEAD_K12H_NIW4__acrt_rounding_mode@@AEAV__crt_cached_ptd_host@@@Z 000000014005e950     libucrtd:cvt.obj
 0005:00003960       __guard_xfg?fe_to_nearest@@YA_NQEBN_KF@Z 000000014005e960     libucrtd:cvt.obj
 0005:00003970       __guard_xfg?should_round_up@@YA_NQEBN_KFW4__acrt_rounding_mode@@@Z 000000014005e970     libucrtd:cvt.obj
 0005:00003980       __guard_xfg?fp_format_a@@YAHQEBNPEAD_KQEAD2H_NIW4__acrt_rounding_mode@@AEAV__crt_cached_ptd_host@@@Z 000000014005e980     libucrtd:cvt.obj
 0005:00003990       __guard_xfg?fp_format_f_internal@@YAHQEAD_KHQEAU_strflt@@_NAEAV__crt_cached_ptd_host@@@Z 000000014005e990     libucrtd:cvt.obj
 0005:000039a0       __guard_xfg?fp_format_f@@YAHQEBNQEAD_K12HW4__acrt_rounding_mode@@AEAV__crt_cached_ptd_host@@@Z 000000014005e9a0     libucrtd:cvt.obj
 0005:000039b0       __guard_xfg?fp_format_g@@YAHQEBNQEAD_K12H_NIW4__acrt_rounding_mode@@AEAV__crt_cached_ptd_host@@@Z 000000014005e9b0     libucrtd:cvt.obj
 0005:000039c0       __guard_xfg_wctomb_internal 000000014005e9c0     libucrtd:wctomb.obj
 0005:000039d0       __guard_xfg?value_or@?$cached@H@__crt_cached_ptd_host@@QEBAHH@Z 000000014005e9d0     libucrtd:wctomb.obj
 0005:000039e0       __guard_xfg_mbtowc_internal 000000014005e9e0     libucrtd:mbtowc.obj
 0005:000039f0       __guard_xfg_fileno         000000014005e9f0     libucrtd:fileno.obj
 0005:00003a00       __guard_xfg?lowio_handle@__crt_stdio_stream@@QEBAHXZ 000000014005ea00     libucrtd:fileno.obj
 0005:00003a10       __guard_xfg_lock_file      000000014005ea10     libucrtd:_file.obj
 0005:00003a20       __guard_xfg_unlock_file    000000014005ea20     libucrtd:_file.obj
 0005:00003a30       __guard_xfg__acrt_initialize_stdio 000000014005ea30     libucrtd:_file.obj
 0005:00003a40       __guard_xfg??0?$__crt_unique_heap_ptr@PEAU__crt_stdio_stream_data@@U__crt_internal_free_policy@@@@QEAA@QEAPEAU__crt_stdio_stream_data@@@Z 000000014005ea40     libucrtd:_file.obj
 0005:00003a50       __guard_xfg??1?$__crt_unique_heap_ptr@PEAU__crt_stdio_stream_data@@U__crt_internal_free_policy@@@@QEAA@XZ 000000014005ea50     libucrtd:_file.obj
 0005:00003a60       __guard_xfg?detach@?$__crt_unique_heap_ptr@PEAU__crt_stdio_stream_data@@U__crt_internal_free_policy@@@@QEAAPEAPEAU__crt_stdio_stream_data@@XZ 000000014005ea60     libucrtd:_file.obj
 0005:00003a70       __guard_xfg?release@?$__crt_unique_heap_ptr@PEAU__crt_stdio_stream_data@@U__crt_internal_free_policy@@@@QEAAXXZ 000000014005ea70     libucrtd:_file.obj
 0005:00003a80       __guard_xfg__acrt_uninitialize_stdio 000000014005ea80     libucrtd:_file.obj
 0005:00003a90       __guard_xfg??$?RPEAU__crt_stdio_stream_data@@@__crt_internal_free_policy@@QEBAXQEBQEAU__crt_stdio_stream_data@@@Z 000000014005ea90     libucrtd:_file.obj
 0005:00003aa0       __guard_xfg_get_printf_count_output 000000014005eaa0     libucrtd:printf_count_output.obj
 0005:00003ab0       __guard_xfg__acrt_OutputDebugStringA 000000014005eab0     libucrtd:outputdebugstringa.obj
 0005:00003ac0       __guard_xfgqsort           000000014005eac0     libucrtd:qsort.obj
 0005:00003ad0       __guard_xfg?swap@@YAXPEAD0_K@Z 000000014005ead0     libucrtd:qsort.obj
 0005:00003ae0       __guard_xfg?shortsort@@YAXPEAD0_KP6AHPEBX2@Z@Z 000000014005eae0     libucrtd:qsort.obj
 0005:00003af0       __guard_xfgstrncpy_s       000000014005eaf0     libucrtd:strncpy_s.obj
 0005:00003b00       __guard_xfg??$common_tcsncpy_s@D@@YAHQEAD_KQEBD1@Z 000000014005eb00     libucrtd:strncpy_s.obj
 0005:00003b10       __guard_xfgstrpbrk         000000014005eb10     libucrtd:strpbrk.obj
 0005:00003b20       __guard_xfgfallbackMethod  000000014005eb20     libucrtd:strpbrk.obj
 0005:00003b30       __guard_xfg_mbsdec         000000014005eb30     libucrtd:mbsdec.obj
 0005:00003b40       __guard_xfg_mbsdec_l       000000014005eb40     libucrtd:mbsdec.obj
 0005:00003b50       __guard_xfg__acrt_LCMapStringA 000000014005eb50     libucrtd:lcmapstringa.obj
 0005:00003b60       __guard_xfg?__acrt_LCMapStringA_stat@@YAHPEAU__crt_locale_pointers@@PEB_WKPEBDHPEADHHH@Z 000000014005eb60     libucrtd:lcmapstringa.obj
 0005:00003b70       __guard_xfg??B?$__crt_scoped_stack_ptr@_W@@QEBA_NXZ 000000014005eb70     libucrtd:lcmapstringa.obj
 0005:00003b80       __guard_xfg?initialize_multibyte@@YAHXZ 000000014005eb80     libucrtd:multibyte_initializer.obj
 0005:00003b90       __guard_xfg_itow_s         000000014005eb90     libucrtd:xtoa.obj
 0005:00003ba0       __guard_xfg_itoa_s         000000014005eba0     libucrtd:xtoa.obj
 0005:00003bb0       __guard_xfg??$common_xtox_s@KD@@YAHKQEAD_KI_N@Z 000000014005ebb0     libucrtd:xtoa.obj
 0005:00003bc0       __guard_xfg??$common_xtox@KD@@YAHKQEAD_KI_N@Z 000000014005ebc0     libucrtd:xtoa.obj
 0005:00003bd0       __guard_xfg??$common_xtox_s@K_W@@YAHKQEA_W_KI_N@Z 000000014005ebd0     libucrtd:xtoa.obj
 0005:00003be0       __guard_xfg??$common_xtox@K_W@@YAHKQEA_W_KI_N@Z 000000014005ebe0     libucrtd:xtoa.obj
 0005:00003bf0       __guard_xfg__ascii_wcsnicmp 000000014005ebf0     libucrtd:wcsnicmp.obj
 0005:00003c00       __guard_xfg__acrt_DownlevelLocaleNameToLCID 000000014005ec00     libucrtd:lcidtoname_downlevel.obj
 0005:00003c10       __guard_xfg?GetTableIndexFromLocaleName@@YAHPEB_W@Z 000000014005ec10     libucrtd:lcidtoname_downlevel.obj
 0005:00003c20       __guard_xfg_isatty         000000014005ec20     libucrtd:isatty.obj
 0005:00003c30       __guard_xfg_flushall       000000014005ec30     libucrtd:fflush.obj
 0005:00003c40       __guard_xfg_fflush_nolock  000000014005ec40     libucrtd:fflush.obj
 0005:00003c50       __guard_xfg??0__crt_stdio_stream@@QEAA@QEAU__crt_stdio_stream_data@@@Z 000000014005ec50     libucrtd:fflush.obj
 0005:00003c60       __guard_xfg?has_all_of@__crt_stdio_stream@@QEBA_NJ@Z 000000014005ec60     libucrtd:fflush.obj
 0005:00003c70       __guard_xfg__acrt_stdio_flush_nolock 000000014005ec70     libucrtd:fflush.obj
 0005:00003c80       __guard_xfg?__acrt_stdio_reset_buffer@@YAXV__crt_stdio_stream@@@Z 000000014005ec80     libucrtd:fflush.obj
 0005:00003c90       __guard_xfg?is_stream_allocated@@YA_NJ@Z 000000014005ec90     libucrtd:fflush.obj
 0005:00003ca0       __guard_xfg?is_stream_flushable@@YA_NJ@Z 000000014005eca0     libucrtd:fflush.obj
 0005:00003cb0       __guard_xfg?is_stream_flushable_or_commitable@@YA_NJ@Z 000000014005ecb0     libucrtd:fflush.obj
 0005:00003cc0       __guard_xfg?common_flush_all_should_try_to_flush_stream@@YA_NV__crt_stdio_stream@@QEAH@Z 000000014005ecc0     libucrtd:fflush.obj
 0005:00003cd0       __guard_xfg?common_flush_all@@YAH_N@Z 000000014005ecd0     libucrtd:fflush.obj
 0005:00003ce0       __guard_xfg??R<lambda_ab61a845afdef5b7c387490eaf3616ee>@@QEBA@XZ 000000014005ece0     libucrtd:fflush.obj
 0005:00003cf0       __guard_xfg??0<lambda_ab61a845afdef5b7c387490eaf3616ee>@@QEAA@AEAHAEB_N0@Z 000000014005ecf0     libucrtd:fflush.obj
 0005:00003d00       __guard_xfg??R<lambda_c5860995281e5c4ce005b3de8f5874ee>@@QEBAXXZ 000000014005ed00     libucrtd:fflush.obj
 0005:00003d10       __guard_xfg??0<lambda_c5860995281e5c4ce005b3de8f5874ee>@@QEAA@AEBV__crt_stdio_stream@@AEAHAEB_N1@Z 000000014005ed10     libucrtd:fflush.obj
 0005:00003d20       __guard_xfg??$__acrt_lock_stream_and_call@V<lambda_c5860995281e5c4ce005b3de8f5874ee>@@@@YAXQEAU_iobuf@@$$QEAV<lambda_c5860995281e5c4ce005b3de8f5874ee>@@@Z 000000014005ed20     libucrtd:fflush.obj
 0005:00003d30       __guard_xfg??$__acrt_lock_and_call@V<lambda_ab61a845afdef5b7c387490eaf3616ee>@@@@YAXW4__acrt_lock_id@@$$QEAV<lambda_ab61a845afdef5b7c387490eaf3616ee>@@@Z 000000014005ed30     libucrtd:fflush.obj
 0005:00003d40       __guard_xfg?_fflush_nolock_internal@@YAHQEAU_iobuf@@AEAV__crt_cached_ptd_host@@@Z 000000014005ed40     libucrtd:fflush.obj
 0005:00003d50       __guard_xfg??R<lambda_842d9ff0dc9ef11c61343bbaebe7f885>@@QEBAXXZ 000000014005ed50     libucrtd:fflush.obj
 0005:00003d60       __guard_xfg??0<lambda_842d9ff0dc9ef11c61343bbaebe7f885>@@QEAA@AEBQEAU_iobuf@@@Z 000000014005ed60     libucrtd:fflush.obj
 0005:00003d70       __guard_xfg??R<lambda_d90129c13df834fdcbf8d2b88dafcf2d>@@QEBAXXZ 000000014005ed70     libucrtd:fflush.obj
 0005:00003d80       __guard_xfg??0<lambda_d90129c13df834fdcbf8d2b88dafcf2d>@@QEAA@AEBQEAU_iobuf@@@Z 000000014005ed80     libucrtd:fflush.obj
 0005:00003d90       __guard_xfg??$?RV<lambda_842d9ff0dc9ef11c61343bbaebe7f885>@@AEAV<lambda_c5860995281e5c4ce005b3de8f5874ee>@@V<lambda_d90129c13df834fdcbf8d2b88dafcf2d>@@@?$__crt_seh_guarded_call@X@@QEAAX$$QEAV<lambda_842d9ff0dc9ef11c61343bbaebe7f885>@@AEAV<lambda_c5860995281e5c4ce005b3de8f5874ee>@@$$QEAV<lambda_d90129c13df834fdcbf8d2b88dafcf2d>@@@Z 000000014005ed90     libucrtd:fflush.obj
 0005:00003da0       __guard_xfg??R<lambda_886d6c58226a84441f68b9f2b8217b83>@@QEBAXXZ 000000014005eda0     libucrtd:fflush.obj
 0005:00003db0       __guard_xfg??0<lambda_886d6c58226a84441f68b9f2b8217b83>@@QEAA@AEBW4__acrt_lock_id@@@Z 000000014005edb0     libucrtd:fflush.obj
 0005:00003dc0       __guard_xfg??R<lambda_f7f22ab5edc0698d5f6905b0d3f44752>@@QEBAXXZ 000000014005edc0     libucrtd:fflush.obj
 0005:00003dd0       __guard_xfg??0<lambda_f7f22ab5edc0698d5f6905b0d3f44752>@@QEAA@AEBW4__acrt_lock_id@@@Z 000000014005edd0     libucrtd:fflush.obj
 0005:00003de0       __guard_xfg??$?RV<lambda_886d6c58226a84441f68b9f2b8217b83>@@AEAV<lambda_ab61a845afdef5b7c387490eaf3616ee>@@V<lambda_f7f22ab5edc0698d5f6905b0d3f44752>@@@?$__crt_seh_guarded_call@X@@QEAAX$$QEAV<lambda_886d6c58226a84441f68b9f2b8217b83>@@AEAV<lambda_ab61a845afdef5b7c387490eaf3616ee>@@$$QEAV<lambda_f7f22ab5edc0698d5f6905b0d3f44752>@@@Z 000000014005ede0     libucrtd:fflush.obj
 0005:00003df0       __guard_xfg_malloc_base    000000014005edf0     libucrtd:malloc_base.obj
 0005:00003e00       __guard_xfgmbstowcs_s      000000014005ee00     libucrtd:mbstowcs.obj
 0005:00003e10       __guard_xfg?_mbstowcs_l_helper@@YA_KPEA_WPEBD_KAEAV__crt_cached_ptd_host@@@Z 000000014005ee10     libucrtd:mbstowcs.obj
 0005:00003e20       __guard_xfg?_mbstowcs_internal@@YAHPEA_KPEA_W_KPEBD2AEAV__crt_cached_ptd_host@@@Z 000000014005ee20     libucrtd:mbstowcs.obj
 0005:00003e30       __guard_xfgwcstombs_s      000000014005ee30     libucrtd:wcstombs.obj
 0005:00003e40       __guard_xfg?wcsncnt@@YA_KPEB_W_K@Z 000000014005ee40     libucrtd:wcstombs.obj
 0005:00003e50       __guard_xfg?_wcstombs_l_helper@@YA_KPEADPEB_W_KAEAV__crt_cached_ptd_host@@@Z 000000014005ee50     libucrtd:wcstombs.obj
 0005:00003e60       __guard_xfg?_wcstombs_internal@@YAHPEA_KPEAD_KPEB_W2AEAV__crt_cached_ptd_host@@@Z 000000014005ee60     libucrtd:wcstombs.obj
 0005:00003e70       __guard_xfgstrcat_s        000000014005ee70     libucrtd:strcat_s.obj
 0005:00003e80       __guard_xfg??$common_tcscat_s@D@@YAHQEAD_KQEBD@Z 000000014005ee80     libucrtd:strcat_s.obj
 0005:00003e90       __guard_xfg__acrt_fp_strflt_to_string 000000014005ee90     libucrtd:_fptostr.obj
 0005:00003ea0       __guard_xfg?check_trailing@@YA_NPEBDW4__acrt_has_trailing_digits@@@Z 000000014005eea0     libucrtd:_fptostr.obj
 0005:00003eb0       __guard_xfg?should_round_up@@YA_NQEBD0HW4__acrt_has_trailing_digits@@W4__acrt_rounding_mode@@@Z 000000014005eeb0     libucrtd:_fptostr.obj
 0005:00003ec0       __guard_xfgmemcpy_s        000000014005eec0     libucrtd:cfout.obj
 0005:00003ed0       __guard_xfg__acrt_fltout   000000014005eed0     libucrtd:cfout.obj
 0005:00003ee0       __guard_xfg??0big_integer@__crt_strtox@@QEAA@XZ 000000014005eee0     libucrtd:cfout.obj
 0005:00003ef0       __guard_xfg??0big_integer@__crt_strtox@@QEAA@AEBU01@@Z 000000014005eef0     libucrtd:cfout.obj
 0005:00003f00       __guard_xfg??4big_integer@__crt_strtox@@QEAAAEAU01@AEBU01@@Z 000000014005ef00     libucrtd:cfout.obj
 0005:00003f10       __guard_xfg??8__crt_strtox@@YA_NAEBUbig_integer@0@0@Z 000000014005ef10     libucrtd:cfout.obj
 0005:00003f20       __guard_xfg??9__crt_strtox@@YA_NAEBUbig_integer@0@0@Z 000000014005ef20     libucrtd:cfout.obj
 0005:00003f30       __guard_xfg?make_big_integer@__crt_strtox@@YA?AUbig_integer@1@_K@Z 000000014005ef30     libucrtd:cfout.obj
 0005:00003f40       __guard_xfg?make_big_integer_power_of_two@__crt_strtox@@YA?AUbig_integer@1@I@Z 000000014005ef40     libucrtd:cfout.obj
 0005:00003f50       __guard_xfg?is_zero@__crt_strtox@@YA_NAEBUbig_integer@1@@Z 000000014005ef50     libucrtd:cfout.obj
 0005:00003f60       __guard_xfg?bit_scan_reverse@__crt_strtox@@YAII@Z 000000014005ef60     libucrtd:cfout.obj
 0005:00003f70       __guard_xfg?shift_left@__crt_strtox@@YA_NAEAUbig_integer@1@I@Z 000000014005ef70     libucrtd:cfout.obj
 0005:00003f80       __guard_xfg?add_carry@__crt_strtox@@YAIAEAIII@Z 000000014005ef80     libucrtd:cfout.obj
 0005:00003f90       __guard_xfg?add_multiply_carry@__crt_strtox@@YAIAEAIIII@Z 000000014005ef90     libucrtd:cfout.obj
 0005:00003fa0       __guard_xfg?multiply_core@__crt_strtox@@YAIQEAIII@Z 000000014005efa0     libucrtd:cfout.obj
 0005:00003fb0       __guard_xfg?multiply@__crt_strtox@@YA_NAEAUbig_integer@1@I@Z 000000014005efb0     libucrtd:cfout.obj
 0005:00003fc0       __guard_xfg?multiply@__crt_strtox@@YA_NAEAUbig_integer@1@AEBU21@@Z 000000014005efc0     libucrtd:cfout.obj
 0005:00003fd0       __guard_xfg?multiply_by_power_of_ten@__crt_strtox@@YA_NAEAUbig_integer@1@I@Z 000000014005efd0     libucrtd:cfout.obj
 0005:00003fe0       __guard_xfg?count_sequential_high_zeroes@__crt_strtox@@YAII@Z 000000014005efe0     libucrtd:cfout.obj
 0005:00003ff0       __guard_xfg?multiply_64_32@__crt_strtox@@YA_K_KI@Z 000000014005eff0     libucrtd:cfout.obj
 0005:00004000       __guard_xfg?divide@__crt_strtox@@YA_KAEAUbig_integer@1@AEBU21@@Z 000000014005f000     libucrtd:cfout.obj
 0005:00004010       __guard_xfg??0scoped_fp_state_reset@?A0x71ca7cfb@@QEAA@XZ 000000014005f010     libucrtd:cfout.obj
 0005:00004020       __guard_xfg??1scoped_fp_state_reset@?A0x71ca7cfb@@QEAA@XZ 000000014005f020     libucrtd:cfout.obj
 0005:00004030       __guard_xfg??$convert_to_fos_high_precision@N@@YA?AW4__acrt_has_trailing_digits@@NIW4__acrt_precision_style@@QEAHQEAD_K@Z 000000014005f030     libucrtd:cfout.obj
 0005:00004040       __guard_xfgfegetround      000000014005f040     libucrtd:fegetround.obj
 0005:00004050       __guard_xfg?__c32rtomb_utf8@__crt_mbstring@@YA_KPEAD_UPEAU_Mbstatet@@AEAV__crt_cached_ptd_host@@@Z 000000014005f050     libucrtd:c32rtomb.obj
 0005:00004060       __guard_xfg?__mbrtowc_utf8@__crt_mbstring@@YA_KPEA_WPEBD_KPEAU_Mbstatet@@AEAV__crt_cached_ptd_host@@@Z 000000014005f060     libucrtd:mbrtowc.obj
 0005:00004070       __guard_xfg?__mbsrtowcs_utf8@__crt_mbstring@@YA_KPEA_WPEAPEBD_KPEAU_Mbstatet@@AEAV__crt_cached_ptd_host@@@Z 000000014005f070     libucrtd:mbrtowc.obj
 0005:00004080       __guard_xfg??R<lambda_599026849492e2a71b24cce8b46aab16>@@QEBA_KPEBD@Z 000000014005f080     libucrtd:mbrtowc.obj
 0005:00004090       __guard_xfg_fcloseall      000000014005f090     libucrtd:closeall.obj
 0005:000040a0       __guard_xfg?is_in_use@__crt_stdio_stream@@QEBA_NXZ 000000014005f0a0     libucrtd:closeall.obj
 0005:000040b0       __guard_xfg?has_crt_buffer@__crt_stdio_stream@@QEBA_NXZ 000000014005f0b0     libucrtd:_freebuf.obj
 0005:000040c0       __guard_xfg__acrt_stdio_free_buffer_nolock 000000014005f0c0     libucrtd:_freebuf.obj
 0005:000040d0       __guard_xfg__strncnt       000000014005f0d0     libucrtd:strncnt.obj
 0005:000040e0       __guard_xfg_commit         000000014005f0e0     libucrtd:commit.obj
 0005:000040f0       __guard_xfg??R<lambda_3e4146214822e0ea86c47ff907aef2ff>@@QEBAHXZ 000000014005f0f0     libucrtd:commit.obj
 0005:00004100       __guard_xfg??0<lambda_3e4146214822e0ea86c47ff907aef2ff>@@QEAA@AEBH@Z 000000014005f100     libucrtd:commit.obj
 0005:00004110       __guard_xfg??$__acrt_lowio_lock_fh_and_call@V<lambda_3e4146214822e0ea86c47ff907aef2ff>@@@@YAHH$$QEAV<lambda_3e4146214822e0ea86c47ff907aef2ff>@@@Z 000000014005f110     libucrtd:commit.obj
 0005:00004120       __guard_xfg??R<lambda_7d29013d608e9f25a034de83c9b9e983>@@QEBAXXZ 000000014005f120     libucrtd:commit.obj
 0005:00004130       __guard_xfg??0<lambda_7d29013d608e9f25a034de83c9b9e983>@@QEAA@AEBH@Z 000000014005f130     libucrtd:commit.obj
 0005:00004140       __guard_xfg??R<lambda_b869e5a4e1069fcb5c3da79c0d999133>@@QEBAXXZ 000000014005f140     libucrtd:commit.obj
 0005:00004150       __guard_xfg??0<lambda_b869e5a4e1069fcb5c3da79c0d999133>@@QEAA@AEBH@Z 000000014005f150     libucrtd:commit.obj
 0005:00004160       __guard_xfg??$?RV<lambda_7d29013d608e9f25a034de83c9b9e983>@@AEAV<lambda_3e4146214822e0ea86c47ff907aef2ff>@@V<lambda_b869e5a4e1069fcb5c3da79c0d999133>@@@?$__crt_seh_guarded_call@H@@QEAAH$$QEAV<lambda_7d29013d608e9f25a034de83c9b9e983>@@AEAV<lambda_3e4146214822e0ea86c47ff907aef2ff>@@$$QEAV<lambda_b869e5a4e1069fcb5c3da79c0d999133>@@@Z 000000014005f160     libucrtd:commit.obj
 0005:00004170       __guard_xfg_utf8_no_of_trailbytes 000000014005f170     libucrtd:write.obj
 0005:00004180       __guard_xfg_write_nolock   000000014005f180     libucrtd:write.obj
 0005:00004190       __guard_xfg_write_internal 000000014005f190     libucrtd:write.obj
 0005:000041a0       __guard_xfg?write_requires_double_translation_nolock@@YA_NHAEAV__crt_cached_ptd_host@@@Z 000000014005f1a0     libucrtd:write.obj
 0005:000041b0       __guard_xfg?write_double_translated_ansi_nolock@@YA?AUwrite_result@?A0x17268360@@HQEBDIAEAV__crt_cached_ptd_host@@@Z 000000014005f1b0     libucrtd:write.obj
 0005:000041c0       __guard_xfg?write_double_translated_unicode_nolock@@YA?AUwrite_result@?A0x17268360@@QEBDI@Z 000000014005f1c0     libucrtd:write.obj
 0005:000041d0       __guard_xfg?write_text_ansi_nolock@@YA?AUwrite_result@?A0x17268360@@HQEBDI@Z 000000014005f1d0     libucrtd:write.obj
 0005:000041e0       __guard_xfg?write_text_utf16le_nolock@@YA?AUwrite_result@?A0x17268360@@HQEBDI@Z 000000014005f1e0     libucrtd:write.obj
 0005:000041f0       __guard_xfg?write_text_utf8_nolock@@YA?AUwrite_result@?A0x17268360@@HQEBDI@Z 000000014005f1f0     libucrtd:write.obj
 0005:00004200       __guard_xfg?write_binary_nolock@@YA?AUwrite_result@?A0x17268360@@HQEBDI@Z 000000014005f200     libucrtd:write.obj
 0005:00004210       __guard_xfg?__wcsrtombs_utf8@__crt_mbstring@@YA_KPEADPEAPEB_W_KPEAU_Mbstatet@@AEAV__crt_cached_ptd_host@@@Z 000000014005f210     libucrtd:wcrtomb.obj
 0005:00004220       __guard_xfgceil            000000014005f220     libucrtd:ceil.obj
 0005:00004230       __guard_xfg_controlfp_s    000000014005f230     libucrtd:contrlfp.obj
 0005:00004240       __guard_xfgfegetenv        000000014005f240     libucrtd:fegetenv.obj
 0005:00004250       __guard_xfgfesetenv        000000014005f250     libucrtd:fesetenv.obj
 0005:00004260       __guard_xfgfeholdexcept    000000014005f260     libucrtd:feholdexcept.obj
 0005:00004270       __guard_xfg??U@YA?AW4__acrt_fenv_abstract_status@@W40@0@Z 000000014005f270     libucrtd:_fenvutils.obj
 0005:00004280       __guard_xfg??_5@YAAEAW4__acrt_fenv_abstract_status@@AEAW40@W40@@Z 000000014005f280     libucrtd:_fenvutils.obj
 0005:00004290       __guard_xfg??I@YA?AW4__acrt_fenv_abstract_status@@W40@0@Z 000000014005f290     libucrtd:_fenvutils.obj
 0005:000042a0       __guard_xfg??$__acrt_fenv_shift_bits@W4__acrt_fenv_abstract_status@@@@YA?AW4__acrt_fenv_abstract_status@@W40@0I@Z 000000014005f2a0     libucrtd:_fenvutils.obj
 0005:000042b0       __guard_xfg??$__acrt_fenv_unshift_bits@W4__acrt_fenv_abstract_status@@@@YA?AW4__acrt_fenv_abstract_status@@W40@0I@Z 000000014005f2b0     libucrtd:_fenvutils.obj
 0005:000042c0       __guard_xfg?__acrt_fenv_shift_abstract_sse_status@@YA?AW4__acrt_fenv_abstract_status@@W41@@Z 000000014005f2c0     libucrtd:_fenvutils.obj
 0005:000042d0       __guard_xfg?__acrt_fenv_unshift_abstract_sse_status@@YA?AW4__acrt_fenv_abstract_status@@W41@@Z 000000014005f2d0     libucrtd:_fenvutils.obj
 0005:000042e0       __guard_xfg??_5@YAAEAW4__acrt_fenv_machine_sse_status@@AEAW40@W40@@Z 000000014005f2e0     libucrtd:_fenvutils.obj
 0005:000042f0       __guard_xfg??I@YA?AW4__acrt_fenv_machine_sse_status@@W40@0@Z 000000014005f2f0     libucrtd:_fenvutils.obj
 0005:00004300       __guard_xfg??U@YA?AW4__acrt_fenv_abstract_control@@W40@0@Z 000000014005f300     libucrtd:_fenvutils.obj
 0005:00004310       __guard_xfg??_5@YAAEAW4__acrt_fenv_abstract_control@@AEAW40@W40@@Z 000000014005f310     libucrtd:_fenvutils.obj
 0005:00004320       __guard_xfg??I@YA?AW4__acrt_fenv_abstract_control@@W40@0@Z 000000014005f320     libucrtd:_fenvutils.obj
 0005:00004330       __guard_xfg??$__acrt_fenv_shift_bits@W4__acrt_fenv_abstract_control@@@@YA?AW4__acrt_fenv_abstract_control@@W40@0I@Z 000000014005f330     libucrtd:_fenvutils.obj
 0005:00004340       __guard_xfg??$__acrt_fenv_unshift_bits@W4__acrt_fenv_abstract_control@@@@YA?AW4__acrt_fenv_abstract_control@@W40@0I@Z 000000014005f340     libucrtd:_fenvutils.obj
 0005:00004350       __guard_xfg?__acrt_fenv_shift_abstract_sse_control@@YA?AW4__acrt_fenv_abstract_control@@W41@@Z 000000014005f350     libucrtd:_fenvutils.obj
 0005:00004360       __guard_xfg?__acrt_fenv_unshift_abstract_sse_control@@YA?AW4__acrt_fenv_abstract_control@@W41@@Z 000000014005f360     libucrtd:_fenvutils.obj
 0005:00004370       __guard_xfg??U@YA?AW4__acrt_fenv_machine_sse_control@@W40@0@Z 000000014005f370     libucrtd:_fenvutils.obj
 0005:00004380       __guard_xfg??_5@YAAEAW4__acrt_fenv_machine_sse_control@@AEAW40@W40@@Z 000000014005f380     libucrtd:_fenvutils.obj
 0005:00004390       __guard_xfg??I@YA?AW4__acrt_fenv_machine_sse_control@@W40@0@Z 000000014005f390     libucrtd:_fenvutils.obj
 0005:000043a0       __guard_xfg__acrt_fenv_get_status 000000014005f3a0     libucrtd:_fenvutils.obj
 0005:000043b0       __guard_xfg__acrt_fenv_set_status 000000014005f3b0     libucrtd:_fenvutils.obj
 0005:000043c0       __guard_xfg__acrt_fenv_get_control 000000014005f3c0     libucrtd:_fenvutils.obj
 0005:000043d0       __guard_xfg__acrt_fenv_set_control 000000014005f3d0     libucrtd:_fenvutils.obj
 0005:000043e0       __guard_xfg__acrt_fenv_get_common_round_control 000000014005f3e0     libucrtd:_fenvutils.obj
 0005:000043f0       __guard_xfg?to_machine_sse_status@@YA?AW4__acrt_fenv_machine_sse_status@@W4__acrt_fenv_abstract_status@@@Z 000000014005f3f0     libucrtd:_fenvutils.obj
 0005:00004400       __guard_xfg??$translate_status@W4__acrt_fenv_machine_sse_status@@W4__acrt_fenv_abstract_status@@@@YA?AW4__acrt_fenv_machine_sse_status@@W4__acrt_fenv_abstract_status@@@Z 000000014005f400     libucrtd:_fenvutils.obj
 0005:00004410       __guard_xfg?translate_control_denormal_control_to_sse@@YA?AW4__acrt_fenv_machine_sse_control@@W4__acrt_fenv_abstract_control@@@Z 000000014005f410     libucrtd:_fenvutils.obj
 0005:00004420       __guard_xfg?translate_control_denormal_control_from_sse@@YA?AW4__acrt_fenv_abstract_control@@W4__acrt_fenv_machine_sse_control@@@Z 000000014005f420     libucrtd:_fenvutils.obj
 0005:00004430       __guard_xfg?to_abstract_control@@YA?AW4__acrt_fenv_abstract_control@@W4__acrt_fenv_machine_sse_control@@@Z 000000014005f430     libucrtd:_fenvutils.obj
 0005:00004440       __guard_xfg??$translate_control_exception_mask@W4__acrt_fenv_abstract_control@@W4__acrt_fenv_machine_sse_control@@@@YA?AW4__acrt_fenv_abstract_control@@W4__acrt_fenv_machine_sse_control@@@Z 000000014005f440     libucrtd:_fenvutils.obj
 0005:00004450       __guard_xfg??$translate_control_rounding_control@W4__acrt_fenv_abstract_control@@W4__acrt_fenv_machine_sse_control@@@@YA?AW4__acrt_fenv_abstract_control@@W4__acrt_fenv_machine_sse_control@@@Z 000000014005f450     libucrtd:_fenvutils.obj
 0005:00004460       __guard_xfg?to_machine_sse_control@@YA?AW4__acrt_fenv_machine_sse_control@@W4__acrt_fenv_abstract_control@@@Z 000000014005f460     libucrtd:_fenvutils.obj
 0005:00004470       __guard_xfg??$translate_control_exception_mask@W4__acrt_fenv_machine_sse_control@@W4__acrt_fenv_abstract_control@@@@YA?AW4__acrt_fenv_machine_sse_control@@W4__acrt_fenv_abstract_control@@@Z 000000014005f470     libucrtd:_fenvutils.obj
 0005:00004480       __guard_xfg??$translate_control_rounding_control@W4__acrt_fenv_machine_sse_control@@W4__acrt_fenv_abstract_control@@@@YA?AW4__acrt_fenv_machine_sse_control@@W4__acrt_fenv_abstract_control@@@Z 000000014005f480     libucrtd:_fenvutils.obj
 0005:00004490       __guard_xfg?get_machine_sse_status@@YA?AW4__acrt_fenv_machine_sse_status@@XZ 000000014005f490     libucrtd:_fenvutils.obj
 0005:000044a0       __guard_xfg?set_machine_sse_status@@YAXW4__acrt_fenv_machine_sse_status@@@Z 000000014005f4a0     libucrtd:_fenvutils.obj
 0005:000044b0       __guard_xfg?get_machine_sse_control@@YA?AW4__acrt_fenv_machine_sse_control@@XZ 000000014005f4b0     libucrtd:_fenvutils.obj
 0005:000044c0       __guard_xfg?set_machine_sse_control@@YAXW4__acrt_fenv_machine_sse_control@@@Z 000000014005f4c0     libucrtd:_fenvutils.obj
 0005:000044d0       __guard_xfg??$to_abstract_status@W4__acrt_fenv_machine_sse_status@@@@YA?AW4__acrt_fenv_abstract_status@@W4__acrt_fenv_machine_sse_status@@@Z 000000014005f4d0     libucrtd:_fenvutils.obj
 0005:000044e0       __guard_xfg??$__acrt_fenv_translate_bit@W4__acrt_fenv_machine_sse_status@@W4__acrt_fenv_abstract_status@@@@YA?AW4__acrt_fenv_machine_sse_status@@W4__acrt_fenv_abstract_status@@0W40@1@Z 000000014005f4e0     libucrtd:_fenvutils.obj
 0005:000044f0       __guard_xfg??$__acrt_fenv_translate_bit@W4__acrt_fenv_abstract_control@@W4__acrt_fenv_machine_sse_control@@@@YA?AW4__acrt_fenv_abstract_control@@W4__acrt_fenv_machine_sse_control@@0W40@1@Z 000000014005f4f0     libucrtd:_fenvutils.obj
 0005:00004500       __guard_xfg??$__acrt_fenv_translate_bit@W4__acrt_fenv_machine_sse_control@@W4__acrt_fenv_abstract_control@@@@YA?AW4__acrt_fenv_machine_sse_control@@W4__acrt_fenv_abstract_control@@0W40@1@Z 000000014005f500     libucrtd:_fenvutils.obj
 0005:00004510       __guard_xfg??$translate_status@W4__acrt_fenv_abstract_status@@W4__acrt_fenv_machine_sse_status@@@@YA?AW4__acrt_fenv_abstract_status@@W4__acrt_fenv_machine_sse_status@@@Z 000000014005f510     libucrtd:_fenvutils.obj
 0005:00004520       __guard_xfg??$__acrt_fenv_translate_bit@W4__acrt_fenv_abstract_status@@W4__acrt_fenv_machine_sse_status@@@@YA?AW4__acrt_fenv_abstract_status@@W4__acrt_fenv_machine_sse_status@@0W40@1@Z 000000014005f520     libucrtd:_fenvutils.obj
 0005:00004530       __guard_xfg?return_illegal_sequence@__crt_mbstring@@YA_KPEAU_Mbstatet@@AEAV__crt_cached_ptd_host@@@Z 000000014005f530     libucrtd:common_utf8.obj
 0005:00004540       __guard_xfg?reset_and_return@__crt_mbstring@@YA_K_KPEAU_Mbstatet@@@Z 000000014005f540     libucrtd:common_utf8.obj
 0005:00004550       __guard_xfg?__mbrtoc32_utf8@__crt_mbstring@@YA_KPEA_UPEBD_KPEAU_Mbstatet@@AEAV__crt_cached_ptd_host@@@Z 000000014005f550     libucrtd:mbrtoc32.obj
 0005:00004560       __guard_xfgfclose          000000014005f560     libucrtd:fclose.obj
 0005:00004570       __guard_xfg?_fclose_nolock_internal@@YAHQEAU_iobuf@@AEAV__crt_cached_ptd_host@@@Z 000000014005f570     libucrtd:fclose.obj
 0005:00004580       __guard_xfg?_fclose_internal@@YAHQEAU_iobuf@@AEAV__crt_cached_ptd_host@@@Z 000000014005f580     libucrtd:fclose.obj
 0005:00004590       __guard_xfg_lseeki64_nolock_internal 000000014005f590     libucrtd:lseek.obj
 0005:000045a0       __guard_xfg?common_lseek_do_seek_nolock@@YA_JQEAX_JHAEAV__crt_cached_ptd_host@@@Z 000000014005f5a0     libucrtd:lseek.obj
 0005:000045b0       __guard_xfg??$common_lseek_nolock@_J@@YA_JH_JHAEAV__crt_cached_ptd_host@@@Z 000000014005f5b0     libucrtd:lseek.obj
 0005:000045c0       __guard_xfg_putwch_nolock  000000014005f5c0     libucrtd:putwch.obj
 0005:000045d0       __guard_xfg?__c16rtomb_utf8@__crt_mbstring@@YA_KPEAD_SPEAU_Mbstatet@@AEAV__crt_cached_ptd_host@@@Z 000000014005f5d0     libucrtd:c16rtomb.obj
 0005:000045e0       __guard_xfg?store_first_surrogate@?A0xc60ee810@@YAX_SPEAU_Mbstatet@@@Z 000000014005f5e0     libucrtd:c16rtomb.obj
 0005:000045f0       __guard_xfg?combine_second_surrogate@?A0xc60ee810@@YA_U_SPEAU_Mbstatet@@@Z 000000014005f5f0     libucrtd:c16rtomb.obj
 0005:00004600       __guard_xfg?has_surrogate@?A0xc60ee810@@YA_NPEAU_Mbstatet@@@Z 000000014005f600     libucrtd:c16rtomb.obj
 0005:00004610       __guard_xfg?is_first_surrogate@?A0xc60ee810@@YA_N_S@Z 000000014005f610     libucrtd:c16rtomb.obj
 0005:00004620       __guard_xfg?is_second_surrogate@?A0xc60ee810@@YA_N_S@Z 000000014005f620     libucrtd:c16rtomb.obj
 0005:00004630       __guard_xfg__acrt_initialize_fma3 000000014005f630     libucrtd:fma3_available.obj
 0005:00004640       __guard_xfg_log_special_common 000000014005f640     libucrtd:log_special.obj
 0005:00004650       __guard_xfg_log10_special  000000014005f650     libucrtd:log_special.obj
 0005:00004660       __guard_xfg_call_matherr   000000014005f660     libucrtd:libm_error.obj
 0005:00004670       __guard_xfg_exception_enabled 000000014005f670     libucrtd:libm_error.obj
 0005:00004680       __guard_xfg_handle_nan     000000014005f680     libucrtd:libm_error.obj
 0005:00004690       __guard_xfg_handle_error   000000014005f690     libucrtd:libm_error.obj
 0005:000046a0       __guard_xfg_clearfp        000000014005f6a0     libucrtd:ieee.obj
 0005:000046b0       __guard_xfg_control87      000000014005f6b0     libucrtd:ieee.obj
 0005:000046c0       __guard_xfg_abstract_sw    000000014005f6c0     libucrtd:ieee.obj
 0005:000046d0       __guard_xfg_abstract_cw    000000014005f6d0     libucrtd:ieee.obj
 0005:000046e0       __guard_xfg_hw_cw          000000014005f6e0     libucrtd:ieee.obj
 0005:000046f0       __guard_xfgcommon_control87 000000014005f6f0     libucrtd:ieee.obj
 0005:00004700       __guard_xfg_close_nolock_internal 000000014005f700     libucrtd:close.obj
 0005:00004710       __guard_xfg_close_internal 000000014005f710     libucrtd:close.obj
 0005:00004720       __guard_xfg?close_os_handle_nolock@@YAKH@Z 000000014005f720     libucrtd:close.obj
 0005:00004730       __guard_xfg??R<lambda_af29824b49a67d335554598d6cad2be6>@@QEBAHXZ 000000014005f730     libucrtd:close.obj
 0005:00004740       __guard_xfg??0<lambda_af29824b49a67d335554598d6cad2be6>@@QEAA@AEBHAEAV__crt_cached_ptd_host@@@Z 000000014005f740     libucrtd:close.obj
 0005:00004750       __guard_xfg??$__acrt_lowio_lock_fh_and_call@V<lambda_af29824b49a67d335554598d6cad2be6>@@@@YAHH$$QEAV<lambda_af29824b49a67d335554598d6cad2be6>@@@Z 000000014005f750     libucrtd:close.obj
 0005:00004760       __guard_xfg??R<lambda_19eaff14c5fe7be5b1b106a862eb1091>@@QEBAXXZ 000000014005f760     libucrtd:close.obj
 0005:00004770       __guard_xfg??0<lambda_19eaff14c5fe7be5b1b106a862eb1091>@@QEAA@AEBH@Z 000000014005f770     libucrtd:close.obj
 0005:00004780       __guard_xfg??R<lambda_3ce37f5b621ab310299ea5f68cbdf3bb>@@QEBAXXZ 000000014005f780     libucrtd:close.obj
 0005:00004790       __guard_xfg??0<lambda_3ce37f5b621ab310299ea5f68cbdf3bb>@@QEAA@AEBH@Z 000000014005f790     libucrtd:close.obj
 0005:000047a0       __guard_xfg??$?RV<lambda_19eaff14c5fe7be5b1b106a862eb1091>@@AEAV<lambda_af29824b49a67d335554598d6cad2be6>@@V<lambda_3ce37f5b621ab310299ea5f68cbdf3bb>@@@?$__crt_seh_guarded_call@H@@QEAAH$$QEAV<lambda_19eaff14c5fe7be5b1b106a862eb1091>@@AEAV<lambda_af29824b49a67d335554598d6cad2be6>@@$$QEAV<lambda_3ce37f5b621ab310299ea5f68cbdf3bb>@@@Z 000000014005f7a0     libucrtd:close.obj
 0005:000047b0       __guard_xfg?deallocate@__crt_stdio_stream@@QEAAXXZ 000000014005f7b0     libucrtd:stream.obj
 0005:000047c0       __guard_xfg?__acrt_stdio_free_stream@@YAXV__crt_stdio_stream@@@Z 000000014005f7c0     libucrtd:stream.obj
 0005:000047d0       __guard_xfg__dcrt_lowio_ensure_console_output_initialized 000000014005f7d0     libucrtd:initcon.obj
 0005:000047e0       __guard_xfg__dcrt_write_console 000000014005f7e0     libucrtd:initcon.obj
 0005:000047f0       __guard_xfg?__dcrt_lowio_initialize_console_output@@YAXXZ 000000014005f7f0     libucrtd:initcon.obj
 0005:00004800       __guard_xfg__dcrt_terminate_console_output 000000014005f800     libucrtd:initcon.obj
 0005:00004810       __guard_xfg??R<lambda_61c1b8a38cedca4df5fdc542e6ccae6d>@@QEBAHXZ 000000014005f810     libucrtd:initcon.obj
 0005:00004820       __guard_xfg??0<lambda_61c1b8a38cedca4df5fdc542e6ccae6d>@@QEAA@AEBQEBXAEBKAEBQEAK@Z 000000014005f820     libucrtd:initcon.obj
 0005:00004830       __guard_xfg??$console_output_reopen_and_retry@V<lambda_61c1b8a38cedca4df5fdc542e6ccae6d>@@@@YAHAEBV<lambda_61c1b8a38cedca4df5fdc542e6ccae6d>@@@Z 000000014005f830     libucrtd:initcon.obj
 0005:00004840       __guard_xfg_set_errno_from_matherr 000000014005f840     libucrtd:fpexcept.obj
 0005:00004850       __guard_xfg_raise_exc      000000014005f850     libucrtd:fpexcept.obj
 0005:00004860       __guard_xfg_raise_exc_ex   000000014005f860     libucrtd:fpexcept.obj
 0005:00004870       __guard_xfg_clrfp          000000014005f870     libucrtd:fpctrl.obj
 0005:00004880       __guard_xfg_ctrlfp         000000014005f880     libucrtd:fpctrl.obj
 0005:00004890       __guard_xfg_statfp         000000014005f890     libucrtd:fpctrl.obj
 0005:000048a0       __guard_xfg_set_statfp     000000014005f8a0     libucrtd:fpctrl.obj
 0006:00000000       __guard_ehcont_??R<lambda_6e4b09c48022b2350581041d5f6b0c4c>@@QEBA@XZ 0000000140060000     libucrtd:exit.obj
 0006:00000004       __guard_ehcont_terminate   0000000140060004     libucrtd:terminate.obj
 0006:00000008       __guard_ehcont_?is_bad_read_pointer@@YA_NQEBX_K@Z 0000000140060008     libucrtd:debug_heap.obj
 0006:0000000c       __guard_ehcont_common_control87 000000014006000c     libucrtd:ieee.obj
 0006:00000010       __guard_ehcont__ctrlfp     0000000140060010     libucrtd:fpctrl.obj
